******************************************************************************
               TMS320C6x Linker PC v7.4.1                      
******************************************************************************
>> Linked Thu Aug 07 15:52:07 2014

OUTPUT FILE NAME:   <gooao_fr_c6748.out>
ENTRY POINT SYMBOL: "_c_int00"  address: c080ec20


MEMORY CONFIGURATION

         name            origin    length      used     unused   attr    fill
----------------------  --------  ---------  --------  --------  ----  --------
  IROM                  11700000   00100000  00000000  00100000  R  X
  IRAM                  11800000   00020000  00000000  00020000  RW X
  E_RAM_CS2             60000000   01000000  00000000  01000000  RW  
  E_RAM_CS3             62000000   01000000  00000000  01000000  RW  
  E_RAM_CS4             64000000   01000000  00000000  01000000  RW  
  E_RAM_CS5             66000000   01000000  00000000  01000000  RW  
  L3_CBA_RAM            80000000   00020000  00001000  0001f000  RW X
  SN_PAR                c0000000   00180000  00000000  00180000  RW  
  DDR2_SN_PAR4          c0180000   00080000  00000000  00080000  RW  
  DDR2_RAM              c0200000   02d00000  0062007e  026dff82  RW X
  DDR2_USB              c2f00000   00100000  00000000  00100000  RW  
  App_Prog_START        c3000000   00000400  00000040  000003c0  RW X
  DDR                   c3000400   000ff000  00000000  000ff000  RW X
  Inf1                  c30ff400   00000100  00000000  00000100  RW  
  Inf2                  c30ff500   00000100  00000000  00000100  RW  
  Inf3                  c30ff600   00000100  00000000  00000100  RW  
  Inf4                  c30ff700   00000100  00000000  00000100  RW  
  Inf5                  c30ff800   00000800  00000000  00000800  RW  
  USBHOST_SRAM          c3280000   00080000  00000000  00080000  RW  
  DDR_EXT               c4000000   0c000000  00000000  0c000000  RW  


SEGMENT ALLOCATION MAP

run origin  load origin   length   init length attrs members
----------  ----------- ---------- ----------- ----- -------
80000000    80000000    00001000   00000000    rw-
  80000000    80000000    00001000   00000000    rw- .stack
c0200000    c0200000    005bb230   00000000    rw-
  c0200000    c0200000    005bb230   00000000    rw- .far
c07bb230    c07bb230    00000010   00000010    r--
  c07bb230    c07bb230    00000010   00000010    r-- .const.1
c07bb240    c07bb240    000622da   000622da    r-x
  c07bb240    c07bb240    0005cae0   0005cae0    r-x .text
  c0817d20    c0817d20    000057fa   000057fa    r-- .const.2
c081d520    c081d520    000013c4   000013c4    rw-
  c081d520    c081d520    000013c4   000013c4    rw- .fardata
c081e8e4    c081e8e4    00000318   00000318    r--
  c081e8e4    c081e8e4    00000318   00000318    r-- .switch.1
c081ec00    c081ec00    00000240   00000240    r-x
  c081ec00    c081ec00    00000200   00000200    r-x .vecs
  c081ee00    c081ee00    00000040   00000040    r-- .switch.2
c081ee40    c081ee40    000000c0   00000000    rw-
  c081ee40    c081ee40    000000c0   00000000    rw- .bss
c081ef00    c081ef00    00000240   00000240    rw-
  c081ef00    c081ef00    00000240   00000240    rw- .neardata
c081f140    c081f140    0000003c   0000003c    r--
  c081f140    c081f140    0000003c   0000003c    r-- .rodata
c081f17c    c081f17c    00000120   00000000    rw-
  c081f17c    c081f17c    00000120   00000000    rw- .cio
c081f29c    c081f29c    00000dec   00000dec    r--
  c081f29c    c081f29c    00000dec   00000dec    r-- .cinit
c3000000    c3000000    00000040   00000040    r-x
  c3000000    c3000000    00000040   00000040    r-x my_boot_sect


SECTION ALLOCATION MAP

 output                                  attributes/
section   page    origin      length       input sections
--------  ----  ----------  ----------   ----------------
.init_array 
*          0    c0200000    00000000     UNINITIALIZED

.stack     0    80000000    00001000     UNINITIALIZED
                  80000000    00000008     boot.ae674 : boot.oe674 (.stack)
                  80000008    00000ff8     --HOLE--

xdc.meta   0    c0200000    00000118     COPY SECTION
                  c0200000    00000118     gooao_fr_c6748_pe674.oe674 (xdc.meta)

.far       0    c0200000    005bb230     UNINITIALIZED
                  c0200000    004fdc40     taskImageInput.obj (.far)
                  c06fdc40    00000030     stk6_ppp_pppoe.ae674 : udp.oe674 (.far)
                  c06fdc70    00000010     netctrl.ae674 : netctrl.oe674 (.far)
                  c06fdc80    00052b00     stk6_ppp_pppoe.ae674 : pbm_data.oe674 (.far:NDK_PACKETMEM)
                  c0750780    00035a20     cppi41dma.obj (.far)
                  c07861a0    00020428     gooao_fr_c6748_pe674.oe674 (.far)
                  c07a65c8    0000c1c0     os.ae674 : mem_data.oe674 (.far:NDK_MMBUFFER)
                  c07b2788    00005800     gooao_fr_c6748_pe674.oe674 (.far:taskStackSection)
                  c07b7f88    00001618     ti.drv.omapl138.ae674 : ethdriver.oe674 (.far)
                  c07b95a0    00000660     nettool.ae674 : daemon.oe674 (.far)
                  c07b9c00    0000047c     ti.drv.omapl138.ae674 : csl_emac.oe674 (.far)
                  c07ba07c    00000004     stk6_ppp_pppoe.ae674 : rawethsock_pcb.oe674 (.far)
                  c07ba080    00000440     usbhostenum.obj (.far)
                  c07ba4c0    00000200     networkmain.obj (.far)
                  c07ba6c0    00000180     Upp.obj (.far)
                  c07ba840    00000140     rts6740_elf.lib : defs.obj (.far)
                  c07ba980    00000110     stk6_ppp_pppoe.ae674 : igmp.oe674 (.far)
                  c07baa90    00000100     Psc.obj (.far)
                  c07bab90    000000d8     netctrl.ae674 : netsrv.oe674 (.far)
                  c07bac68    000000c8     stk6_ppp_pppoe.ae674 : ipv6.oe674 (.far)
                  c07bad30    000000c4                          : tcp.oe674 (.far)
                  c07badf4    000000b8                          : tcp6in.oe674 (.far)
                  c07baeac    00000004     --HOLE--
                  c07baeb0    0000009c                          : icmp.oe674 (.far)
                  c07baf4c    00000004     --HOLE--
                  c07baf50    0000007c     os.ae674 : mem.oe674 (.far)
                  c07bafcc    00000068     stk6_ppp_pppoe.ae674 : ip.oe674 (.far)
                  c07bb034    00000064                          : nimu.oe674 (.far)
                  c07bb098    00000060     HT82V46A.obj (.far)
                  c07bb0f8    00000058     ti.drv.omapl138.ae674 : csl_mdio.oe674 (.far)
                  c07bb150    00000028     stk6_ppp_pppoe.ae674 : vlan.oe674 (.far)
                  c07bb178    00000024                          : udp6.oe674 (.far)
                  c07bb19c    00000004     --HOLE--
                  c07bb1a0    0000001c     usbtick.obj (.far)
                  c07bb1bc    00000018     stk6_ppp_pppoe.ae674 : icmpv6.oe674 (.far)
                  c07bb1d4    00000004     --HOLE--
                  c07bb1d8    00000014                          : rtc.oe674 (.far)
                  c07bb1ec    00000010                          : raw.oe674 (.far)
                  c07bb1fc    00000010                          : raw6.oe674 (.far)
                  c07bb20c    00000010                          : raweth.oe674 (.far)
                  c07bb21c    0000000c                          : pbm.oe674 (.far)
                  c07bb228    00000008     rts6740_elf.lib : trgdrv.obj (.far)

.const.1   0    c07bb230    00000010     
                  c07bb230    00000010     gooao_fr_c6748_pe674.oe674 (.const:ti_sysbios_family_c64p_EventCombiner_EVTMASK__C)

.text      0    c07bb240    0005cae0     
                  c07bb240    00002ba0     Upp.obj (.text)
                  c07bdde0    00002880     usbhostenum.obj (.text)
                  c07c0660    00001bc0     cppi41dma.obj (.text)
                  c07c2220    00001a00     stk6_ppp_pppoe.ae674 : tcpin.oe674 (.text:TcpInput)
                  c07c3c20    00001980                          : tcp6in.oe674 (.text:TCP6Input)
                  c07c55a0    00001920     usb.obj (.text)
                  c07c6ec0    00001240     stk6_ppp_pppoe.ae674 : tcpout.oe674 (.text:TcpOutput)
                  c07c8100    00001180                          : tcp6out.oe674 (.text:TCP6Output)
                  c07c9280    00000c60     ti.drv.omapl138.ae674 : csl_emac.oe674 (.text:EMAC_open)
                  c07c9ee0    00000c00     nettool.ae674 : httpclie.oe674 (.text:httpClientProcess)
                  c07caae0    00000b80     stk6_ppp_pppoe.ae674 : ipin.oe674 (.text:IPRxPacket)
                  c07cb660    00000b00     Upp_ioctl.obj (.text)
                  c07cc160    00000aa0     stk6_ppp_pppoe.ae674 : md5.oe674 (.text:MD5Transform)
                  c07ccc00    000009c0                          : ipout.oe674 (.text:IPTxPacket)
                  c07cd5c0    000009a0                          : lcp.oe674 (.text:lcpInput)
                  c07cdf60    000009a0     ti.targets.rts6000.ae674 : System.oe674 (.text:xdc_runtime_System_doPrint__I)
                  c07ce900    00000900     nettool.ae674 : httpsend.oe674 (.text:SetContentType)
                  c07cf200    000007e0     stk6_ppp_pppoe.ae674 : ipcp.oe674 (.text:ipcpInput)
                  c07cf9e0    000007c0                          : sock.oe674 (.text:SockSet)
                  c07d01a0    000007a0     cslr_uart.obj (.text)
                  c07d0940    000007a0     stk6_ppp_pppoe.ae674 : fileuser.oe674 (.text:fdPoll)
                  c07d10e0    00000780     sysbios.ae674 : BIOS.obj (.text:ti_sysbios_family_c64p_Exception_handler__I)
                  c07d1860    00000760     ti.drv.omapl138.ae674 : csl_mdio.oe674 (.text:MDIO_timerTick)
                  c07d1fc0    00000720     HT82V46A.obj (.text)
                  c07d26e0    000006c0     nettool.ae674 : telnetd.oe674 (.text:telnet_netdata)
                  c07d2da0    00000680     stk6_ppp_pppoe.ae674 : icmpv6_ndisc.oe674 (.text:ICMPv6RecvRA)
                  c07d3420    00000680     sysbios.ae674 : BIOS.obj (.text:ti_sysbios_knl_Task_Instance_finalize__F)
                  c07d3aa0    00000660     taskImageInput.obj (.text)
                  c07d4100    00000600     stk6_ppp_pppoe.ae674 : route6.oe674 (.text:Rt6Create)
                  c07d4700    00000600     guao6748_Init.obj (.text)
                  c07d4d00    00000600     sysbios.ae674 : BIOS.obj (.text:ti_sysbios_heaps_HeapMem_alloc__E)
                  c07d5300    00000600                   : BIOS.obj (.text:ti_sysbios_heaps_HeapMem_free__E)
                  c07d5900    000005c0     stk6_ppp_pppoe.ae674 : ipfrag.oe674 (.text:IPReasm)
                  c07d5ec0    000005c0     rts6740_elf.lib : _printfi.obj (.text:_getarg_diouxp)
                  c07d6480    000005c0     sysbios.ae674 : BIOS.obj (.text:ti_sysbios_timers_timer64_Timer_Module_startup__F)
                  c07d6a40    000005a0     stk6_ppp_pppoe.ae674 : icmpin.oe674 (.text:ICMPInput)
                  c07d6fe0    000005a0     rts6740_elf.lib : divd.obj (.text:__c6xabi_divd)
                  c07d7580    00000580     stk6_ppp_pppoe.ae674 : nimuppp.oe674 (.text:pppEvent)
                  c07d7b00    00000560                          : ipv6.oe674 (.text:IPv6IPAddressToString)
                  c07d8060    00000520                          : sock.oe674 (.text:SockNew)
                  c07d8580    00000520     nettool.ae674 : httpsend.oe674 (.text:httpSendStatusLine)
                  c07d8aa0    000004e0     stk6_ppp_pppoe.ae674 : lliin.oe674 (.text:LLIRxPacket)
                  c07d8f80    000004e0                          : udp.oe674 (.text:UdpInput)
                  c07d9460    000004e0                          : nimupppoe.oe674 (.text:pppoeInputS)
                  c07d9940    000004e0     sysbios.ae674 : BIOS.obj (.text:ti_sysbios_knl_Semaphore_pend__E)
                  c07d9e20    000004c0     stk6_ppp_pppoe.ae674 : sock6.oe674 (.text:Sock6Connect)
                  c07da2e0    000004c0                          : sock6.oe674 (.text:Sock6Set)
                  c07da7a0    000004a0                          : sock6.oe674 (.text:Sock6Recv)
                  c07dac40    000004a0                          : sock.oe674 (.text:SockRecv)
                  c07db0e0    00000480                          : bind6.oe674 (.text:Bind6New)
                  c07db560    00000480     sysbios.ae674 : BIOS.obj (.text:ti_sysbios_knl_Task_Module_startup__F)
                  c07db9e0    00000460     rts6740_elf.lib : _printfi.obj (.text:_printfi)
                  c07dbe40    00000460                     : _printfi.obj (.text:_setfield)
                  c07dc2a0    00000460     stk6_ppp_pppoe.ae674 : nimuppp.oe674 (.text:pppNew)
                  c07dc700    00000440                          : sock6.oe674 (.text:Sock6New)
                  c07dcb40    00000440                          : fileuser.oe674 (.text:fdSelect)
                  c07dcf80    00000440                          : nimupppoe.oe674 (.text:pppoeInputC)
                  c07dd3c0    00000440     taskNet.obj (.text)
                  c07dd800    00000420     ti.drv.omapl138.ae674 : csl_mdio.oe674 (.text:MDIO_initContinue)
                  c07ddc20    00000420     stk6_ppp_pppoe.ae674 : auth.oe674 (.text:chapInput)
                  c07de040    00000420     nettool.ae674 : daemon.oe674 (.text:daemon)
                  c07de460    00000400     stk6_ppp_pppoe.ae674 : sock6.oe674 (.text:Sock6Send)
                  c07de860    00000400     os.ae674 : efs.oe674 (.text:efs_filecheck)
                  c07dec60    000003e0     stk6_ppp_pppoe.ae674 : ipv6_frag.oe674 (.text:IPv6TxFragPacket)
                  c07df040    000003c0     ti.drv.omapl138.ae674 : csl_emac.oe674 (.text:EMAC_close)
                  c07df400    000003c0     stk6_ppp_pppoe.ae674 : ipv6out.oe674 (.text:IPv6TxPacket)
                  c07df7c0    000003c0                          : lli6.oe674 (.text:LLI6TimerCheck)
                  c07dfb80    000003c0                          : sock.oe674 (.text:SockSend)
                  c07dff40    000003c0                          : tcp6.oe674 (.text:TCP6TimeoutCheck)
                  c07e0300    000003c0                          : tcp.oe674 (.text:TcpTimeoutCheck)
                  c07e06c0    000003c0     networkmain.obj (.text)
                  c07e0a80    000003c0     sysbios.ae674 : BIOS.obj (.text:ti_sysbios_knl_Task_Instance_init__F)
                  c07e0e40    000003c0                   : BIOS.obj (.text:ti_sysbios_knl_Task_setPri__E)
                  c07e1200    000003a0     stk6_ppp_pppoe.ae674 : nimu.oe674 (.text:NIMUIoctl)
                  c07e15a0    000003a0                          : route.oe674 (.text:RtCreate)
                  c07e1940    000003a0                          : sb.oe674 (.text:SBRead)
                  c07e1ce0    000003a0     rts6740_elf.lib : fputs.obj (.text:fputs)
                  c07e2080    000003a0     stk6_ppp_pppoe.ae674 : auth.oe674 (.text:papInput)
                  c07e2420    00000380                          : icmpv6in.oe674 (.text:ICMPv6RxPacket)
                  c07e27a0    00000380                          : igmp.oe674 (.text:IGMPInput)
                  c07e2b20    00000380     Psc.obj (.text)
                  c07e2ea0    00000380     stk6_ppp_pppoe.ae674 : sock.oe674 (.text:SockConnect)
                  c07e3220    00000380     nettool.ae674 : dhcppkt.oe674 (.text:dhcpPacketProcess)
                  c07e35a0    00000380     sysbios.ae674 : BIOS.obj (.text:ti_sysbios_io_GIO_Instance_init__F)
                  c07e3920    00000360     stk6_ppp_pppoe.ae674 : ipv6_frag.oe674 (.text:IPv6FragReasm)
                  c07e3c80    00000360                          : lliout.oe674 (.text:LLITxIpPacket)
                  c07e3fe0    00000360                          : sock6int.oe674 (.text:Sock6Notify)
                  c07e4340    00000360                          : sockint.oe674 (.text:SockNotify)
                  c07e46a0    00000340                          : icmpv6out.oe674 (.text:ICMPv6SendParameterProblem)
                  c07e49e0    00000340     os.ae674 : mem.oe674 (.text:mmAlloc)
                  c07e4d20    00000340     stk6_ppp_pppoe.ae674 : nimupppoe.oe674 (.text:pppoeSI)
                  c07e5060    00000320     nettool.ae674 : config.oe674 (.text:CfgAddEntry)
                  c07e5380    00000320     stk6_ppp_pppoe.ae674 : icmpv6_ndisc.oe674 (.text:ICMPv6RecvRedirect)
                  c07e56a0    00000320                          : nimupppoe.oe674 (.text:SendServerMsg)
                  c07e59c0    00000320     rts6740_elf.lib : _printfi.obj (.text:_pproc_fge)
                  c07e5ce0    00000320     nettool.ae674 : telnetd.oe674 (.text:telnet_engine)
                  c07e6000    00000320     usbdesc.obj (.text)
                  c07e6320    00000300     stk6_ppp_pppoe.ae674 : icmpv6out.oe674 (.text:ICMPv6SendDstUnreachable)
                  c07e6620    00000300                          : icmpv6out.oe674 (.text:ICMPv6SendTimeExceeded)
                  c07e6920    00000300     netctrl.ae674 : netctrl.oe674 (.text:NetScheduler)
                  c07e6c20    00000300     stk6_ppp_pppoe.ae674 : sock6pcb.oe674 (.text:Sock6PcbBind)
                  c07e6f20    00000300                          : udp6.oe674 (.text:Udp6Input)
                  c07e7220    00000300     nettool.ae674 : inetaddr.oe674 (.text:inet_aton)
                  c07e7520    00000300     sysbios.ae674 : BIOS.obj (.text:ti_sysbios_family_c64p_Hwi_dispatchC__I)
                  c07e7820    000002e0     ti.drv.omapl138.ae674 : ethdriver.oe674 (.text:HwPktOpen)
                  c07e7b00    000002e0     stk6_ppp_pppoe.ae674 : icmpv6_ndisc.oe674 (.text:ICMPv6RecvNS)
                  c07e7de0    000002e0                          : route6.oe674 (.text:Rt6Find)
                  c07e80c0    000002e0                          : nimupppoe.oe674 (.text:SendClientMsg)
                  c07e83a0    000002e0                          : udp.oe674 (.text:UdpOutput)
                  c07e8680    000002e0     rts6740_elf.lib : _printfi.obj (.text:_pproc_fwp)
                  c07e8960    000002e0     fr_main.obj (.text)
                  c07e8c40    000002e0     stk6_ppp_pppoe.ae674 : nimuppp.oe674 (.text:pppInput)
                  c07e8f20    000002e0     sysbios.ae674 : BIOS.obj (.text:ti_sysbios_heaps_HeapMem_Instance_init__F)
                  c07e9200    000002c0     stk6_ppp_pppoe.ae674 : bind.oe674 (.text:BindNew)
                  c07e94c0    000002c0                          : ipv6_frag.oe674 (.text:IPv6FragQEnqueueFrag)
                  c07e9780    000002c0                          : rtable.oe674 (.text:RtFind)
                  c07e9a40    000002c0                          : sb6.oe674 (.text:SB6Read)
                  c07e9d00    000002c0                          : sock6pcb.oe674 (.text:Sock6PcbResolve)
                  c07e9fc0    000002c0                          : udp6.oe674 (.text:Udp6Output)
                  c07ea280    000002c0     sysbios.ae674 : BIOS.obj (.text:ti_sysbios_knl_Task_exit__E)
                  c07ea540    000002a0     nettool.ae674 : dhcpmain.oe674 (.text:DHCPOpen)
                  c07ea7e0    000002a0     stk6_ppp_pppoe.ae674 : ipv6_exthdrs.oe674 (.text:IPv6ParseExtnHeaders)
                  c07eaa80    000002a0                          : node.oe674 (.text:NodeAdd)
                  c07ead20    000002a0                          : sock6pcb.oe674 (.text:Sock6PcbFind)
                  c07eafc0    000002a0                          : sock.oe674 (.text:SockClose)
                  c07eb260    000002a0                          : tcp6prot.oe674 (.text:TCP6PrSetOption)
                  c07eb500    000002a0                          : tcpprot.oe674 (.text:TcpPrSetOption)
                  c07eb7a0    000002a0     rts6740_elf.lib : _printfi.obj (.text:ecvt)
                  c07eba40    000002a0                     : _printfi.obj (.text:fcvt)
                  c07ebce0    000002a0     sysbios.ae674 : BIOS.obj (.text:ti_sysbios_knl_Clock_workFunc__E)
                  c07ebf80    000002a0                   : BIOS.obj (.text:ti_sysbios_knl_Task_sleep__E)
                  c07ec220    00000280     nettool.ae674 : config.oe674 (.text:CfgSave)
                  c07ec4a0    00000280     stk6_ppp_pppoe.ae674 : icmp.oe674 (.text:ICMPGenPacket)
                  c07ec720    00000280                          : icmpv6in.oe674 (.text:ICMPv6RecvEchoRequest)
                  c07ec9a0    00000280                          : lli6.oe674 (.text:LLI6NeighUnreachStateMachine)
                  c07ecc20    00000280                          : route6.oe674 (.text:Rt6Free)
                  c07ecea0    00000280                          : sockpcb.oe674 (.text:SockPcbResolve)
                  c07ed120    00000280                          : sock.oe674 (.text:SockRecvNC)
                  c07ed3a0    00000280                          : tcp6out.oe674 (.text:TCP6GenPacket)
                  c07ed620    00000280     sysbios.ae674 : BIOS.obj (.text:deviceConfig$47)
                  c07ed8a0    00000280     stk6_ppp_pppoe.ae674 : ipcp.oe674 (.text:ipcpSendCfg)
                  c07edb20    00000280     sysbios.ae674 : BIOS.obj (.text:ti_sysbios_family_c64p_Cache_Module_startup__F)
                  c07edda0    00000280                   : BIOS.obj (.text:ti_sysbios_knl_Clock_Instance_init__F)
                  c07ee020    00000280     ti.targets.rts6000.ae674 : Core-mem.oe674 (.text:xdc_runtime_Core_createObject__I)
                  c07ee2a0    00000280                              : Error.oe674 (.text:xdc_runtime_Error_raiseX__F)
                  c07ee520    00000280     gooao_fr_c6748_pe674.oe674 (.text:xdc_runtime_System_printfExtend__I)
                  c07ee7a0    00000260     stk6_ppp_pppoe.ae674 : icmpv6_ndisc.oe674 (.text:ICMPv6SendNS)
                  c07eea00    00000260     os.ae674 : intmgmt.oe674 (.text:Interrupt_add)
                  c07eec60    00000260     stk6_ppp_pppoe.ae674 : lli6.oe674 (.text:LLI6TxIPPacket)
                  c07eeec0    00000260                          : nimu.oe674 (.text:NIMUReceivePacket)
                  c07ef120    00000260                          : rawethsock.oe674 (.text:RawEthSockSet)
                  c07ef380    00000260                          : sb6.oe674 (.text:SB6Write)
                  c07ef5e0    00000260                          : sb.oe674 (.text:SBWrite)
                  c07ef840    00000260                          : sock6.oe674 (.text:Sock6Close)
                  c07efaa0    00000260                          : sockpcb.oe674 (.text:SockPcbBind)
                  c07efd00    00000260     rts6740_elf.lib : imath64.obj (.text:__c6xabi_divull)
                  c07eff60    00000260                     : _printfi.obj (.text:_pconv_e)
                  c07f01c0    00000260     nettool.ae674 : httppars.oe674 (.text:httpParseRecv)
                  c07f0420    00000260                   : httpsend.oe674 (.text:httpSendErrorHTML)
                  c07f0680    00000260     stk6_ppp_pppoe.ae674 : lcp.oe674 (.text:lcpSendCfg)
                  c07f08e0    00000260     ti.targets.rts6000.ae674 : Startup.oe674 (.text:xdc_runtime_Startup_startMods__I)
                  c07f0b40    00000240     stk6_ppp_pppoe.ae674 : bind6.oe674 (.text:Bind6RunDAD)
                  c07f0d80    00000240     nettool.ae674 : daemon.oe674 (.text:DaemonNew)
                  c07f0fc0    00000240     ti.drv.omapl138.ae674 : nimu_eth.oe674 (.text:Emacioctl)
                  c07f1200    00000240     stk6_ppp_pppoe.ae674 : icmpv6_ndisc.oe674 (.text:ICMPv6RecvNA)
                  c07f1440    00000240                          : icmpv6_ndisc.oe674 (.text:ICMPv6SendNA)
                  c07f1680    00000240                          : pipe.oe674 (.text:PipeRecv)
                  c07f18c0    00000240                          : raw.oe674 (.text:RawInput)
                  c07f1b00    00000240     rts6740_elf.lib : _printfi.obj (.text:_pproc_diouxp)
                  c07f1d40    00000240     nettool.ae674 : dhcpsm.oe674 (.text:dhcpIPAdd)
                  c07f1f80    00000240                   : dhcpsm.oe674 (.text:dhcpState)
                  c07f21c0    00000240                   : dhcppkt.oe674 (.text:dhcpVerifyMessage)
                  c07f2400    00000240     sysbios.ae674 : BIOS.obj (.text:ti_sysbios_family_c64p_Exception_internalHandler__I)
                  c07f2640    00000240                   : BIOS.obj (.text:ti_sysbios_knl_Semaphore_post__E)
                  c07f2880    00000220     stk6_ppp_pppoe.ae674 : igmp.oe674 (.text:IGMPJoinHostGroup)
                  c07f2aa0    00000220                          : ipv6in.oe674 (.text:IPv6RxPacket)
                  c07f2cc0    00000220                          : rawethsock.oe674 (.text:RawEthSockNew)
                  c07f2ee0    00000220                          : sockpcb.oe674 (.text:SockPcbFind)
                  c07f3100    00000220     rts6740_elf.lib : _printfi.obj (.text:_pproc_str)
                  c07f3320    00000220                     : fputc.obj (.text:fputc)
                  c07f3540    00000220     nettool.ae674 : httpclie.oe674 (.text:httpGetAuthParams)
                  c07f3760    00000220     sysbios.ae674 : BIOS.obj (.text:ti_sysbios_io_GIO_issue__E)
                  c07f3980    00000220                   : BIOS.obj (.text:ti_sysbios_knl_Swi_run__I)
                  c07f3ba0    00000220                   : BIOS.obj (.text:ti_sysbios_knl_Task_schedule__I)
                  c07f3dc0    00000220                   : BIOS.obj (.text:ti_sysbios_knl_Task_startCore__E)
                  c07f3fe0    00000200     stk6_ppp_pppoe.ae674 : ipv6_frag.oe674 (.text:IPv6ParseFragHdr)
                  c07f41e0    00000200                          : lli6.oe674 (.text:LLI6New)
                  c07f43e0    00000200                          : rtc.oe674 (.text:RTCReport)
                  c07f45e0    00000200                          : raw6.oe674 (.text:Raw6Output)
                  c07f47e0    00000200     rts6740_elf.lib : _printfi.obj (.text:_pconv_g)
                  c07f49e0    00000200     sysbios.ae674 : c64p_Hwi_disp_always.obj (.text:_ti_sysbios_family_c64p_Hwi_dispatchAlways)
                  c07f4be0    00000200     stk6_ppp_pppoe.ae674 : socket.oe674 (.text:accept)
                  c07f4de0    00000200     sysbios.ae674 : BIOS.obj (.text:block$58)
                  c07f4fe0    00000200     ti.drv.omapl138.ae674 : csl_emac.oe674 (.text:emacDequeueRx)
                  c07f51e0    00000200     rts6740_elf.lib : setvbuf.obj (.text:setvbuf)
                  c07f53e0    00000200     sysbios.ae674 : BIOS.obj (.text:ti_sysbios_family_c64p_Hwi_reconfig__E)
                  c07f55e0    00000200                   : BIOS.obj (.text:ti_sysbios_io_DEV_Module_startup__F)
                  c07f57e0    000001e0     ti.drv.omapl138.ae674 : csl_emac.oe674 (.text:EMAC_setReceiveFilter)
                  c07f59c0    000001e0                           : nimu_eth.oe674 (.text:EmacInit)
                  c07f5ba0    000001e0     stk6_ppp_pppoe.ae674 : igmp.oe674 (.text:IGMPSendReply)
                  c07f5d80    000001e0                          : route6.oe674 (.text:Rt6Modify)
                  c07f5f60    000001e0                          : sock6pcb.oe674 (.text:Sock6PcbFindRaw)
                  c07f6140    000001e0                          : tcpout.oe674 (.text:TcpGenPacket)
                  c07f6320    000001e0                          : tcptime.oe674 (.text:TcpTimeoutRexmt)
                  c07f6500    000001e0                          : auth.oe674 (.text:chapSendMsg)
                  c07f66e0    000001e0     nettool.ae674 : dhcpsock.oe674 (.text:dhcpSocketOpen)
                  c07f68c0    000001e0     emacHooks.obj (.text)
                  c07f6aa0    000001e0     stk6_ppp_pppoe.ae674 : nimupppoe.oe674 (.text:pppoeCtrlMsg)
                  c07f6c80    000001e0                          : socket.oe674 (.text:recvnc)
                  c07f6e60    000001e0     scom.obj (.text)
                  c07f7040    000001e0     stk6_ppp_pppoe.ae674 : socket.oe674 (.text:sendto)
                  c07f7220    000001e0     sysbios.ae674 : BIOS.obj (.text:ti_sysbios_io_GIO_submit__E)
                  c07f7400    000001e0                   : BIOS.obj (.text:ti_sysbios_knl_Task_postInit__I)
                  c07f75e0    000001e0                   : BIOS.obj (.text:ti_sysbios_timers_timer64_Timer_getFreq__E)
                  c07f77c0    000001c0     nettool.ae674 : config.oe674 (.text:CfgExecute)
                  c07f7980    000001c0     ti.drv.omapl138.ae674 : csl_emac.oe674 (.text:EMAC_sendPacket)
                  c07f7b40    000001c0     stk6_ppp_pppoe.ae674 : ip.oe674 (.text:IPGetRoute)
                  c07f7d00    000001c0                          : ipv6_exthdrs.oe674 (.text:IPv6ParseHopOptions)
                  c07f7ec0    000001c0                          : lliout.oe674 (.text:LLIGenArpPacket)
                  c07f8080    000001c0     netctrl.ae674 : netsrv.oe674 (.text:SPIpNet)
                  c07f8240    000001c0     stk6_ppp_pppoe.ae674 : lli.oe674 (.text:_LLITimeoutCheck)
                  c07f8400    000001c0     rts6740_elf.lib : _printfi.obj (.text:_mcpy)
                  c07f85c0    000001c0     nettool.ae674 : dhcpbild.oe674 (.text:dhcpBuildHeader)
                  c07f8780    000001c0     ti.drv.omapl138.ae674 : csl_emac.oe674 (.text:emacEnqueueTx)
                  c07f8940    000001c0     stk6_ppp_pppoe.ae674 : fileuser.oe674 (.text:fdClose)
                  c07f8b00    000001c0     sysbios.ae674 : BIOS.obj (.text:ti_sysbios_knl_Task_checkStacks__E)
                  c07f8cc0    000001c0                   : BIOS.obj (.text:ti_sysbios_timers_timer64_Timer_setPeriodMicroSecs__E)
                  c07f8e80    000001a0     stk6_ppp_pppoe.ae674 : bind6.oe674 (.text:Bind6Msg)
                  c07f9020    000001a0     nettool.ae674 : config.oe674 (.text:CfgRemoveEntry)
                  c07f91c0    000001a0     stk6_ppp_pppoe.ae674 : icmpin.oe674 (.text:ICMPRevSrcRoute)
                  c07f9360    000001a0                          : ipv6_frag.oe674 (.text:IPv6FragMsg)
                  c07f9500    000001a0                          : ipv6_exthdrs.oe674 (.text:IPv6ParseRoutingHdr)
                  c07f96a0    000001a0     netctrl.ae674 : netctrl.oe674 (.text:NC_NetStart)
                  c07f9840    000001a0     stk6_ppp_pppoe.ae674 : node.oe674 (.text:NodeTreeFree)
                  c07f99e0    000001a0                          : raw6.oe674 (.text:Raw6Input)
                  c07f9b80    000001a0                          : route6.oe674 (.text:Route6LifetimeMgmt)
                  c07f9d20    000001a0                          : sockint.oe674 (.text:SockCreatePacket)
                  c07f9ec0    000001a0     nettool.ae674 : dhcpsm.oe674 (.text:StateRenewRebind)
                  c07fa060    000001a0     stk6_ppp_pppoe.ae674 : tcp6time.oe674 (.text:TCP6TimeoutRexmt)
                  c07fa200    000001a0     rts6740_elf.lib : imath40.obj (.text:__c6xabi_divul)
                  c07fa3a0    000001a0     nettool.ae674 : dhcptags.oe674 (.text:dhcpBuildOptions)
                  c07fa540    000001a0     stk6_ppp_pppoe.ae674 : socket.oe674 (.text:getpeername)
                  c07fa6e0    000001a0     nettool.ae674 : telnetd.oe674 (.text:telnet_termdata)
                  c07fa880    000001a0     sysbios.ae674 : BIOS.obj (.text:ti_sysbios_gates_GateMutex_enter__E)
                  c07faa20    000001a0                   : BIOS.obj (.text:ti_sysbios_io_DEV_postInit__I)
                  c07fabc0    000001a0                   : BIOS.obj (.text:ti_sysbios_timers_timer64_Timer_start__E)
                  c07fad60    00000180     stk6_ppp_pppoe.ae674 : bind6.oe674 (.text:Bind6GetGlobalAddress)
                  c07faee0    00000180     ti.drv.omapl138.ae674 : csl_emac.oe674 (.text:EMAC_RxServiceCheck)
                  c07fb060    00000180     rts6740_elf.lib : trgdrv.obj (.text:HOSTrename)
                  c07fb1e0    00000180     stk6_ppp_pppoe.ae674 : igmp.oe674 (.text:IGMPMsg)
                  c07fb360    00000180                          : nimu.oe674 (.text:NIMURegister)
                  c07fb4e0    00000180                          : nimuppp.oe674 (.text:PPPStop)
                  c07fb660    00000180     netctrl.ae674 : netsrv.oe674 (.text:ServiceScan)
                  c07fb7e0    00000180                   : netsrv.oe674 (.text:ServiceSpawn)
                  c07fb960    00000180     nettool.ae674 : dhcpsm.oe674 (.text:StateBound)
                  c07fbae0    00000180     rts6740_elf.lib : copy_decompress_rle.obj (.text:__TI_decompress_rle_core)
                  c07fbc60    00000180     stk6_ppp_pppoe.ae674 : socket.oe674 (.text:bind)
                  c07fbde0    00000180                          : socket.oe674 (.text:connect)
                  c07fbf60    00000180     nettool.ae674 : dhcpbild.oe674 (.text:dhcpBuildRequest)
                  c07fc0e0    00000180     os.ae674 : task.oe674 (.text:llEnter)
                  c07fc260    00000180     stk6_ppp_pppoe.ae674 : auth.oe674 (.text:papSendCfg)
                  c07fc3e0    00000180     sysbios.ae674 : c64p_Exception_asm.obj (.text)
                  c07fc560    00000180                   : BIOS.obj (.text:ti_sysbios_knl_Swi_schedule__I)
                  c07fc6e0    00000180                   : BIOS.obj (.text:ti_sysbios_knl_Task_unblockI__E)
                  c07fc860    00000180     ti.targets.rts6000.ae674 : Text.oe674 (.text:xdc_runtime_Text_putSite__F)
                  c07fc9e0    00000160     nettool.ae674 : config.oe674 (.text:CfgGetEntry)
                  c07fcb40    00000160                   : config.oe674 (.text:CfgGetNextEntry)
                  c07fcca0    00000160                   : config.oe674 (.text:CfgLoad)
                  c07fce00    00000160     ti.drv.omapl138.ae674 : csl_emac.oe674 (.text:EMAC_TxServiceCheck)
                  c07fcf60    00000160                           : ethdriver.oe674 (.text:HwPktSetRx)
                  c07fd0c0    00000160                           : ethdriver.oe674 (.text:HwPktTxNext)
                  c07fd220    00000160     stk6_ppp_pppoe.ae674 : igmp.oe674 (.text:IGMPDoMCast)
                  c07fd380    00000160                          : nimu.oe674 (.text:NIMUIoctlSpecialCmd)
                  c07fd4e0    00000160                          : pipe.oe674 (.text:PipeSend)
                  c07fd640    00000160                          : raw.oe674 (.text:RawOutput)
                  c07fd7a0    00000160                          : rtable.oe674 (.text:RtTimeoutCheck)
                  c07fd900    00000160                          : rtable.oe674 (.text:RtWalkNext)
                  c07fda60    00000160     netctrl.ae674 : netsrv.oe674 (.text:SPRoute)
                  c07fdbc0    00000160     stk6_ppp_pppoe.ae674 : sock6.oe674 (.text:Sock6Check)
                  c07fdd20    00000160                          : sock6int.oe674 (.text:Sock6CreatePacket)
                  c07fde80    00000160                          : sock6pcb.oe674 (.text:Sock6PcbConnect)
                  c07fdfe0    00000160                          : sock.oe674 (.text:SockCheck)
                  c07fe140    00000160                          : sockpcb.oe674 (.text:SockPcbConnect)
                  c07fe2a0    00000160     nettool.ae674 : dhcpsm.oe674 (.text:StateRequesting)
                  c07fe400    00000160     stk6_ppp_pppoe.ae674 : tcp6time.oe674 (.text:TCP6TimeoutKeep)
                  c07fe560    00000160                          : tcptime.oe674 (.text:TcpTimeoutKeep)
                  c07fe6c0    00000160     ti.drv.omapl138.ae674 : ethdriver.oe674 (.text:_HwPktPoll)
                  c07fe820    00000160     stk6_ppp_pppoe.ae674 : auth.oe674 (.text:authInit)
                  c07fe980    00000160     nettool.ae674 : httpclie.oe674 (.text:httpExtractTag)
                  c07feae0    00000160     stk6_ppp_pppoe.ae674 : socket.oe674 (.text:setsockopt)
                  c07fec40    00000160     nettool.ae674 : telnetd.oe674 (.text:telnetClientProcess)
                  c07feda0    00000160     sysbios.ae674 : BIOS.obj (.text:ti_sysbios_io_GIO_reclaim__E)
                  c07fef00    00000140     stk6_ppp_pppoe.ae674 : bind6.oe674 (.text:Bind6Free)
                  c07ff040    00000140                          : exec.oe674 (.text:ExecOpen)
                  c07ff180    00000140                          : icmp.oe674 (.text:ICMPSendRtAdv)
                  c07ff2c0    00000140                          : igmp.oe674 (.text:IGMPJoin)
                  c07ff400    00000140                          : ipv6.oe674 (.text:IPv6DisplayIPAddress)
                  c07ff540    00000140                          : lli6.oe674 (.text:LLI6Find)
                  c07ff680    00000140                          : lli.oe674 (.text:LLINew)
                  c07ff7c0    00000140                          : node.oe674 (.text:NodeFind)
                  c07ff900    00000140                          : node.oe674 (.text:NodeWalk)
                  c07ffa40    00000140                          : pbm.oe674 (.text:PBM_alloc)
                  c07ffb80    00000140                          : pbm.oe674 (.text:PBM_free)
                  c07ffcc0    00000140                          : rtable.oe674 (.text:RtFlush)
                  c07ffe00    00000140                          : sb6.oe674 (.text:SB6New)
                  c07fff40    00000140     netctrl.ae674 : netsrv.oe674 (.text:ServiceKill)
                  c0800080    00000140     stk6_ppp_pppoe.ae674 : sock6.oe674 (.text:Sock6Accept)
                  c08001c0    00000140                          : sock6.oe674 (.text:Sock6Listen)
                  c0800300    00000140                          : sock.oe674 (.text:SockAccept)
                  c0800440    00000140                          : sock.oe674 (.text:SockListen)
                  c0800580    00000140                          : sockpcb.oe674 (.text:SockPcbCtlError)
                  c08006c0    00000140     boot.ae674 : autoinit.oe674 (.text:_auto_init_elf)
                  c0800800    00000140     rts6740_elf.lib : _printfi.obj (.text:_pproc_fflags)
                  c0800940    00000140     stk6_ppp_pppoe.ae674 : auth.oe674 (.text:authGetPassword)
                  c0800a80    00000140     nettool.ae674 : dhcptags.oe674 (.text:dhcpDecodeType)
                  c0800bc0    00000140     ti.drv.omapl138.ae674 : csl_emac.oe674 (.text:emacDequeueTx)
                  c0800d00    00000140                           : csl_emac.oe674 (.text:emacEnqueueRx)
                  c0800e40    00000140     rts6740_elf.lib : lowlev.obj (.text:getdevice)
                  c0800f80    00000140     nettool.ae674 : httpsend.oe674 (.text:httpAuthenticationReq)
                  c08010c0    00000140     os.ae674 : mem.oe674 (.text:mmCopy)
                  c0801200    00000140     stk6_ppp_pppoe.ae674 : nimuppp.oe674 (.text:pppAddClient)
                  c0801340    00000140                          : socket.oe674 (.text:recv)
                  c0801480    00000140                          : socket.oe674 (.text:send)
                  c08015c0    00000140     sysbios.ae674 : BIOS.obj (.text:ti_sysbios_family_c64p_Hwi_Module_startup__F)
                  c0801700    00000140                   : BIOS.obj (.text:ti_sysbios_knl_Clock_Instance_finalize__F)
                  c0801840    00000140                   : BIOS.obj (.text:ti_sysbios_knl_Semaphore_Instance_init__F)
                  c0801980    00000140                   : BIOS.obj (.text:ti_sysbios_knl_Swi_post__E)
                  c0801ac0    00000140                   : BIOS.obj (.text:ti_sysbios_knl_Task_blockI__E)
                  c0801c00    00000120     stk6_ppp_pppoe.ae674 : bind6.oe674 (.text:Bind6DADCheck)
                  c0801d20    00000120                          : bind6.oe674 (.text:Bind6LifetimeMgmt)
                  c0801e40    00000120                          : bind.oe674 (.text:BindFree)
                  c0801f60    00000120     nettool.ae674 : config.oe674 (.text:CfgFree)
                  c0802080    00000120                   : daemon.oe674 (.text:DaemonFree)
                  c08021a0    00000120     stk6_ppp_pppoe.ae674 : file.oe674 (.text:FdWaitEvent)
                  c08022c0    00000120                          : igmp.oe674 (.text:IGMPLeaveHostGroup)
                  c08023e0    00000120                          : ip.oe674 (.text:IPMsg)
                  c0802500    00000120                          : ipin.oe674 (.text:IPRouteIP)
                  c0802620    00000120                          : ipv6_frag.oe674 (.text:IPv6CreateFragQ)
                  c0802740    00000120                          : ipv6.oe674 (.text:IPv6Init)
                  c0802860    00000120                          : icmpv6out.oe674 (.text:IsICMPv6ErrorPkt)
                  c0802980    00000120                          : md5.oe674 (.text:MD5Update)
                  c0802aa0    00000120                          : mld.oe674 (.text:MLDJoinGroup)
                  c0802bc0    00000120     netctrl.ae674 : netctrl.oe674 (.text:NC_SystemOpen)
                  c0802ce0    00000120     stk6_ppp_pppoe.ae674 : nimu.oe674 (.text:NIMUAddEthernetHeader)
                  c0802e00    00000120                          : raweth.oe674 (.text:RawEthRxPacket)
                  c0802f20    00000120                          : rawethsock.oe674 (.text:RawEthSockRecvNC)
                  c0803040    00000120                          : raweth.oe674 (.text:RawEthTxPacket)
                  c0803160    00000120     ti.drv.omapl138.ae674 : ethdriver.oe674 (.text:RxPacket)
                  c0803280    00000120     stk6_ppp_pppoe.ae674 : sb.oe674 (.text:SBNew)
                  c08033a0    00000120     netctrl.ae674 : netsrv.oe674 (.text:SPConfig)
                  c08034c0    00000120                   : netsrv.oe674 (.text:SPService)
                  c08035e0    00000120     stk6_ppp_pppoe.ae674 : sock6.oe674 (.text:Sock6Shutdown)
                  c0803700    00000120                          : sockpcb.oe674 (.text:SockPcbFindRaw)
                  c0803820    00000120                          : sock.oe674 (.text:SockShutdown)
                  c0803940    00000120                          : tcp6prot.oe674 (.text:TCP6PrAttach)
                  c0803a60    00000120                          : tcpprot.oe674 (.text:TcpPrAttach)
                  c0803b80    00000120     nettool.ae674 : telnetd.oe674 (.text:TelnetOpen)
                  c0803ca0    00000120     stk6_ppp_pppoe.ae674 : rtable.oe674 (.text:_RtNodeInsert)
                  c0803dc0    00000120     rts6740_elf.lib : fclose.obj (.text:_closefile)
                  c0803ee0    00000120                     : _printfi.obj (.text:_ltostr)
                  c0804000    00000120     os.ae674 : mem.oe674 (.text:_mmInit)
                  c0804120    00000120     nettool.ae674 : daemon.oe674 (.text:dchild)
                  c0804240    00000120     stk6_ppp_pppoe.ae674 : fileuser.oe674 (.text:fdOpenSession)
                  c0804360    00000120     rts6740_elf.lib : fseek.obj (.text:fseek)
                  c0804480    00000120     nettool.ae674 : http.oe674 (.text:httpOpen)
                  c08045a0    00000120     stk6_ppp_pppoe.ae674 : lcp.oe674 (.text:lcpReject)
                  c08046c0    00000120     sysbios.ae674 : BIOS.obj (.text:rtsUnlock$0)
                  c08047e0    00000120     stk6_ppp_pppoe.ae674 : socket.oe674 (.text:socket)
                  c0804900    00000120     gooao_fr_c6748_pe674.oe674 (.text:ti_sysbios_family_c64p_Hwi_Object__create__S)
                  c0804a20    00000120     gooao_fr_c6748_pe674.oe674 (.text:ti_sysbios_hal_Hwi_Object__create__S)
                  c0804b40    00000120     gooao_fr_c6748_pe674.oe674 (.text:ti_sysbios_io_DEV_Object__create__S)
                  c0804c60    00000120     sysbios.ae674 : BIOS.obj (.text:ti_sysbios_io_GIO_Instance_finalize__F)
                  c0804d80    00000120     gooao_fr_c6748_pe674.oe674 (.text:ti_sysbios_io_GIO_Object__create__S)
                  c0804ea0    00000120     gooao_fr_c6748_pe674.oe674 (.text:ti_sysbios_knl_Task_Object__create__S)
                  c0804fc0    00000120     usbtick.obj (.text)
                  c08050e0    00000120     ti.targets.rts6000.ae674 : Text.oe674 (.text:xdc_runtime_Text_putLab__F)
                  c0805200    00000120     gooao_fr_c6748_pe674.oe674 (.text:xdc_runtime_knl_SemThread_Object__create__S)
                  c0805320    00000100     nettool.ae674 : config.oe674 (.text:CfgGetEntryCnt)
                  c0805420    00000100                   : config.oe674 (.text:CfgNew)
                  c0805520    00000100                   : config.oe674 (.text:CfgSetExecuteOrder)
                  c0805620    00000100     os.ae674 : ossys.oe674 (.text:DbgPrintf)
                  c0805720    00000100     rts6740_elf.lib : trgdrv.obj (.text:HOSTlseek)
                  c0805820    00000100     stk6_ppp_pppoe.ae674 : igmp.oe674 (.text:IGMPTimer)
                  c0805920    00000100                          : ipv6.oe674 (.text:IPv6GetSubnetMaskFromBits)
                  c0805a20    00000100                          : ipv6_frag.oe674 (.text:IPv6ReasmTimeout)
                  c0805b20    00000100                          : rtc.oe674 (.text:RTCMsg)
                  c0805c20    00000100                          : rawethsock.oe674 (.text:RawEthSockCheck)
                  c0805d20    00000100                          : route.oe674 (.text:RtRedirect)
                  c0805e20    00000100                          : sock6.oe674 (.text:Sock6Disconnect)
                  c0805f20    00000100                          : sockint.oe674 (.text:SockValidateRoute)
                  c0806020    00000100     nettool.ae674 : dhcpsm.oe674 (.text:StateSelecting)
                  c0806120    00000100     stk6_ppp_pppoe.ae674 : tcp6prot.oe674 (.text:TCP6PrInherit)
                  c0806220    00000100                          : tcp6time.oe674 (.text:TCP6XmitTimer)
                  c0806320    00000100                          : tcpprot.oe674 (.text:TcpPrInherit)
                  c0806420    00000100                          : tcptime.oe674 (.text:TcpXmitTimer)
                  c0806520    00000100     rts6740_elf.lib : _io_perm.obj (.text:_wrt_ok)
                  c0806620    00000100     sysbios.ae674 : BIOS.obj (.text:callback$44)
                  c0806720    00000100     rts6740_elf.lib : fprintf.obj (.text:fprintf)
                  c0806820    00000100     sysbios.ae674 : BIOS.obj (.text:initDevice$47)
                  c0806920    00000100     stk6_ppp_pppoe.ae674 : lcp.oe674 (.text:lcpOpen)
                  c0806a20    00000100                          : socket.oe674 (.text:listen)
                  c0806b20    00000100     os.ae674 : mem.oe674 (.text:mmFree)
                  c0806c20    00000100     sysbios.ae674 : BIOS.obj (.text:ti_sysbios_family_c64p_EventCombiner_dispatch__F)
                  c0806d20    00000100                   : BIOS.obj (.text:ti_sysbios_knl_Clock_startI__E)
                  c0806e20    00000100                   : BIOS.obj (.text:ti_sysbios_knl_Swi_restoreHwi__E)
                  c0806f20    00000100     stk6_ppp_pppoe.ae674 : lliin.oe674 (.text:updateRtTable)
                  c0807020    00000100     ti.targets.rts6000.ae674 : Core-mem.oe674 (.text:xdc_runtime_Core_deleteObject__I)
                  c0807120    00000100                              : Startup.oe674 (.text:xdc_runtime_Startup_exec__F)
                  c0807220    00000100                              : Text.oe674 (.text:xdc_runtime_Text_putMod__F)
                  c0807320    00000100                              : Text.oe674 (.text:xdc_runtime_Text_visitRope2__I)
                  c0807420    00000100     gooao_fr_c6748_pe674.oe674 (.text:xdc_runtime_knl_SyncSemThread_Object__create__S)
                  c0807520    000000e0     stk6_ppp_pppoe.ae674 : bind6.oe674 (.text:Bind6GetLinkLocalAddress)
                  c0807600    000000e0     rts6740_elf.lib : trgdrv.obj (.text:HOSTopen)
                  c08076e0    000000e0     stk6_ppp_pppoe.ae674 : igmp.oe674 (.text:IGMPLeave)
                  c08077c0    000000e0                          : ipv6_frag.oe674 (.text:IPv6FindFragQ)
                  c08078a0    000000e0     ti.drv.omapl138.ae674 : ethdriver.oe674 (.text:Interrupt_init)
                  c0807980    000000e0     stk6_ppp_pppoe.ae674 : lli6.oe674 (.text:LLI6Msg)
                  c0807a60    000000e0                          : lli6.oe674 (.text:LLI6Update)
                  c0807b40    000000e0                          : mld.oe674 (.text:MLDFindMulticastNode)
                  c0807c20    000000e0                          : nimu.oe674 (.text:NIMUAllocateIndex)
                  c0807d00    000000e0                          : nimu.oe674 (.text:NIMUAllocateName)
                  c0807de0    000000e0                          : node.oe674 (.text:NodeDeRef)
                  c0807ec0    000000e0                          : node.oe674 (.text:NodeNew)
                  c0807fa0    000000e0                          : node.oe674 (.text:NodeTreeNew)
                  c0808080    000000e0                          : pbm.oe674 (.text:PBMQ_enq)
                  c0808160    000000e0                          : pbm.oe674 (.text:PBM_copy)
                  c0808240    000000e0                          : rawethsock.oe674 (.text:RawEthSockNotify)
                  c0808320    000000e0                          : rawethsock_pcb.oe674 (.text:RawEthSockPcbAttach)
                  c0808400    000000e0                          : rawethsock.oe674 (.text:RawEthSockSend)
                  c08084e0    000000e0                          : route6.oe674 (.text:Route6Msg)
                  c08085c0    000000e0                          : route.oe674 (.text:RtRemove)
                  c08086a0    000000e0                          : sb.oe674 (.text:SBReadNC)
                  c0808780    000000e0                          : sb.oe674 (.text:SBSetMax)
                  c0808860    000000e0                          : sock6.oe674 (.text:Sock6IntAbort)
                  c0808940    000000e0                          : sock6int.oe674 (.text:Sock6SpawnAbort)
                  c0808a20    000000e0                          : sock6int.oe674 (.text:Sock6ValidateRoute)
                  c0808b00    000000e0                          : sock.oe674 (.text:SockDisconnect)
                  c0808be0    000000e0                          : sockint.oe674 (.text:SockSpawnAbort)
                  c0808cc0    000000e0                          : tcp6prot.oe674 (.text:TCP6PrDetach)
                  c0808da0    000000e0                          : tcp6prot.oe674 (.text:TCP6PrDisconnect)
                  c0808e80    000000e0                          : tcp6time.oe674 (.text:TCP6TimeoutSackRexmt)
                  c0808f60    000000e0                          : tcp6prot.oe674 (.text:TCP6ValidateMetrics)
                  c0809040    000000e0                          : tcpprot.oe674 (.text:TcpPrDetach)
                  c0809120    000000e0                          : tcpprot.oe674 (.text:TcpPrDisconnect)
                  c0809200    000000e0                          : tcptime.oe674 (.text:TcpTimeoutSackRexmt)
                  c08092e0    000000e0                          : tcpprot.oe674 (.text:TcpValidateMetrics)
                  c08093c0    000000e0                          : timer.oe674 (.text:TimerListInsert)
                  c08094a0    000000e0                          : udp.oe674 (.text:UdpChecksum)
                  c0809580    000000e0                          : vlan.oe674 (.text:VLANDeinit)
                  c0809660    000000e0                          : vlan.oe674 (.text:VLANReceivePacket)
                  c0809740    000000e0     nettool.ae674 : config.oe674 (.text:_CfgEntryScan)
                  c0809820    000000e0     stk6_ppp_pppoe.ae674 : lli.oe674 (.text:_LLIExpListInsert)
                  c0809900    000000e0                          : rtable.oe674 (.text:_RtExpListInsert)
                  c08099e0    000000e0                          : rtable.oe674 (.text:_RtNodeRemove)
                  c0809ac0    000000e0     rts6740_elf.lib : atoi.obj (.text:atoi)
                  c0809ba0    000000e0                     : lowlev.obj (.text:close)
                  c0809c80    000000e0                     : copy_zero_init.obj (.text:decompress:ZI:__TI_zero_init)
                  c0809d60    000000e0     stk6_ppp_pppoe.ae674 : file.oe674 (.text:fdint_lockfd)
                  c0809e40    000000e0                          : file.oe674 (.text:fdint_unlockfd)
                  c0809f20    000000e0     rts6740_elf.lib : fflush.obj (.text:fflush)
                  c080a000    000000e0     nettool.ae674 : httpclie.oe674 (.text:httpGetMimeBits)
                  c080a0e0    000000e0     os.ae674 : task.oe674 (.text:llExit)
                  c080a1c0    000000e0     rts6740_elf.lib : ltoa.obj (.text:ltoa)
                  c080a2a0    000000e0                     : memset.obj (.text:memset)
                  c080a380    000000e0     os.ae674 : mem.oe674 (.text:mmBulkAlloc)
                  c080a460    000000e0     stk6_ppp_pppoe.ae674 : nimuppp.oe674 (.text:pppFree)
                  c080a540    000000e0     rts6740_elf.lib : printf.obj (.text:printf)
                  c080a620    000000e0     sysbios.ae674 : BIOS.obj (.text:ti_sysbios_family_c64p_Hwi_Instance_finalize__F)
                  c080a700    000000e0                   : BIOS.obj (.text:ti_sysbios_family_c64p_Hwi_Instance_init__F)
                  c080a7e0    000000e0                   : BIOS.obj (.text:ti_sysbios_knl_Clock_start__E)
                  c080a8c0    000000e0                   : BIOS.obj (.text:ti_sysbios_timers_timer64_Timer_startup__E)
                  c080a9a0    000000e0     ti.targets.rts6000.ae674 : Error.oe674 (.text:xdc_runtime_Error_print__F)
                  c080aa80    000000e0                              : Memory.oe674 (.text:xdc_runtime_Memory_alloc__F)
                  c080ab60    000000c0     nettool.ae674 : dhcpmain.oe674 (.text:DHCPClose)
                  c080ac20    000000c0     rts6740_elf.lib : trgdrv.obj (.text:HOSTread)
                  c080ace0    000000c0                     : trgdrv.obj (.text:HOSTunlink)
                  c080ada0    000000c0                     : trgdrv.obj (.text:HOSTwrite)
                  c080ae60    000000c0     stk6_ppp_pppoe.ae674 : icmpv6in.oe674 (.text:ICMPv6SocketErrorInterface)
                  c080af20    000000c0                          : ipv6.oe674 (.text:IPv6Layer4ComputeChecksum)
                  c080afe0    000000c0                          : lli.oe674 (.text:LLIGetValidTime)
                  c080b0a0    000000c0                          : lli.oe674 (.text:LLIMsg)
                  c080b160    000000c0     ti.drv.omapl138.ae674 : csl_mdio.oe674 (.text:MDIO_initPHY)
                  c080b220    000000c0     stk6_ppp_pppoe.ae674 : mld.oe674 (.text:MLDCreateMulticastNode)
                  c080b2e0    000000c0                          : mld.oe674 (.text:MLDLeaveGroup)
                  c080b3a0    000000c0                          : nimu.oe674 (.text:NIMUFindByName)
                  c080b460    000000c0     netctrl.ae674 : netsrv.oe674 (.text:NS_BootTask)
                  c080b520    000000c0     stk6_ppp_pppoe.ae674 : node.oe674 (.text:NodeUpdatePL)
                  c080b5e0    000000c0     nettool.ae674 : ipaddr.oe674 (.text:NtIfIdx2Ip)
                  c080b6a0    000000c0     stk6_ppp_pppoe.ae674 : route6.oe674 (.text:Rt6FindDefaultRouter)
                  c080b760    000000c0                          : route.oe674 (.text:RtDeRef)
                  c080b820    000000c0                          : rtable.oe674 (.text:RtWalkBegin)
                  c080b8e0    000000c0                          : sb6.oe674 (.text:SB6Flush)
                  c080b9a0    000000c0                          : sb6.oe674 (.text:SB6SetMax)
                  c080ba60    000000c0                          : sb.oe674 (.text:SBFlush)
                  c080bb20    000000c0                          : sock6pcb.oe674 (.text:Sock6PcbResolveChain)
                  c080bbe0    000000c0                          : sock6pcb.oe674 (.text:Sock6PcbRtChange)
                  c080bca0    000000c0                          : sock.oe674 (.text:SockIntAbort)
                  c080bd60    000000c0                          : sockpcb.oe674 (.text:SockPcbRtChange)
                  c080be20    000000c0                          : tcp6prot.oe674 (.text:TCP6Close)
                  c080bee0    000000c0     os.ae674 : task.oe674 (.text:TaskGetEnv)
                  c080bfa0    000000c0     stk6_ppp_pppoe.ae674 : tcp.oe674 (.text:TcpChecksum)
                  c080c060    000000c0                          : tcpprot.oe674 (.text:TcpClose)
                  c080c120    000000c0                          : bind6.oe674 (.text:_Bind6FindByHostInList)
                  c080c1e0    000000c0                          : bind6.oe674 (.text:_Bind6FindByNetInList)
                  c080c2a0    000000c0     rts6740_elf.lib : dtor_list.obj (.text:_Z11__TI_atexitPFYvPvES_S_)
                  c080c360    000000c0                     : dtor_list.obj (.text:__cxa_finalize)
                  c080c420    000000c0                     : divu.obj (.text:__divu)
                  c080c4e0    000000c0                     : remi.obj (.text:__remi)
                  c080c5a0    000000c0                     : _printfi.obj (.text:_div)
                  c080c660    000000c0                     : fflush.obj (.text:_doflush)
                  c080c720    000000c0     nettool.ae674 : dhcptags.oe674 (.text:dhcpOptionsClear)
                  c080c7e0    000000c0     os.ae674 : efs.oe674 (.text:efs_fopen)
                  c080c8a0    000000c0              : efs.oe674 (.text:efs_internal_remove)
                  c080c960    000000c0     rts6740_elf.lib : exit.obj (.text:exit)
                  c080ca20    000000c0     nettool.ae674 : httpsend.oe674 (.text:httpSendFullResponse)
                  c080cae0    000000c0     os.ae674 : mem.oe674 (.text:mmZeroInit)
                  c080cba0    000000c0     stk6_ppp_pppoe.ae674 : nimuppp.oe674 (.text:pppAddIP)
                  c080cc60    000000c0     sysbios.ae674 : BIOS.obj (.text:ti_sysbios_BIOS_errorRaiseHook__I)
                  c080cd20    000000c0                   : BIOS.obj (.text:ti_sysbios_heaps_HeapMem_getStats__E)
                  c080cde0    000000c0                   : BIOS.obj (.text:ti_sysbios_io_DEV_Instance_finalize__F)
                  c080cea0    000000c0                   : BIOS.obj (.text:ti_sysbios_knl_Clock_logTick__E)
                  c080cf60    000000c0                   : BIOS.obj (.text:ti_sysbios_knl_Task_allBlockedFunction__I)
                  c080d020    000000c0                   : BIOS.obj (.text:ti_sysbios_timers_timer64_Timer_stop__E)
                  c080d0e0    000000c0                   : BIOS.obj (.text:ti_sysbios_xdcruntime_SemThreadSupport_pend__F)
                  c080d1a0    000000c0     usbphyGS60.obj (.text)
                  c080d260    000000c0     ti.targets.rts6000.ae674 : System.oe674 (.text:xdc_runtime_System_formatNum__I)
                  c080d320    000000a0     nettool.ae674 : config.oe674 (.text:CfgEntryDeRef)
                  c080d3c0    000000a0                   : config.oe674 (.text:CfgEntryGetData)
                  c080d460    000000a0                   : config.oe674 (.text:CfgGetImmediate)
                  c080d500    000000a0                   : telnetd.oe674 (.text:CmdWriteBytes)
                  c080d5a0    000000a0                   : telnetd.oe674 (.text:CmdWriteCmd)
                  c080d640    000000a0     stk6_ppp_pppoe.ae674 : file.oe674 (.text:FdSignalEvent)
                  c080d6e0    000000a0     rts6740_elf.lib : trgdrv.obj (.text:HOSTclose)
                  c080d780    000000a0     ti.drv.omapl138.ae674 : ethdriver.oe674 (.text:HwPktClose)
                  c080d820    000000a0     stk6_ppp_pppoe.ae674 : icmpv6in.oe674 (.text:ICMPv6RecvDstUnreachable)
                  c080d8c0    000000a0                          : ipfrag.oe674 (.text:IPReasmFree)
                  c080d960    000000a0                          : ipfrag.oe674 (.text:IPReasmTimeout)
                  c080da00    000000a0                          : ipv6.oe674 (.text:IPv6CompareAddress)
                  c080daa0    000000a0                          : lliin.oe674 (.text:LLIValidateRoute)
                  c080db40    000000a0                          : md5.oe674 (.text:MD5Final)
                  c080dbe0    000000a0                          : nimu.oe674 (.text:NIMUShutdown)
                  c080dc80    000000a0                          : nimu.oe674 (.text:NIMUUnregister)
                  c080dd20    000000a0     nettool.ae674 : ipaddr.oe674 (.text:NtAddNetwork)
                  c080ddc0    000000a0     stk6_ppp_pppoe.ae674 : pbm.oe674 (.text:PBM_open)
                  c080de60    000000a0                          : pipe.oe674 (.text:PipeCheck)
                  c080df00    000000a0                          : rtable.oe674 (.text:RouteMsg)
                  c080dfa0    000000a0                          : route.oe674 (.text:RtNew)
                  c080e040    000000a0                          : sb6.oe674 (.text:SB6Free)
                  c080e0e0    000000a0                          : sb.oe674 (.text:SBFree)
                  c080e180    000000a0     os.ae674 : semaphore.oe674 (.text:SemCreate)
                  c080e220    000000a0     stk6_ppp_pppoe.ae674 : sock6pcb.oe674 (.text:Sock6CleanPcb)
                  c080e2c0    000000a0                          : sock6.oe674 (.text:Sock6GetName)
                  c080e360    000000a0                          : sock.oe674 (.text:SockBind)
                  c080e400    000000a0                          : sockpcb.oe674 (.text:SockCleanPcb)
                  c080e4a0    000000a0                          : tcp6prot.oe674 (.text:TCP6Drop)
                  c080e540    000000a0                          : tcp6prot.oe674 (.text:TCP6PrCtlError)
                  c080e5e0    000000a0                          : tcp6prot.oe674 (.text:TCP6PrSend)
                  c080e680    000000a0                          : tcp6prot.oe674 (.text:TCP6PrSendOOB)
                  c080e720    000000a0     os.ae674 : task.oe674 (.text:TaskCreate)
                  c080e7c0    000000a0     stk6_ppp_pppoe.ae674 : tcpprot.oe674 (.text:TcpDrop)
                  c080e860    000000a0                          : tcpprot.oe674 (.text:TcpPrCtlError)
                  c080e900    000000a0                          : tcpprot.oe674 (.text:TcpPrSend)
                  c080e9a0    000000a0                          : tcpprot.oe674 (.text:TcpPrSendOOB)
                  c080ea40    000000a0                          : timer.oe674 (.text:TimerNew)
                  c080eae0    000000a0                          : lli.oe674 (.text:_LLITimeoutFlush)
                  c080eb80    000000a0     rts6740_elf.lib : remu.obj (.text:__remu)
                  c080ec20    000000a0     boot.ae674 : boot.oe674 (.text:_c_int00)
                  c080ecc0    000000a0     rts6740_elf.lib : fopen.obj (.text:_cleanup)
                  c080ed60    000000a0                     : _printfi.obj (.text:_ecpy)
                  c080ee00    000000a0                     : _printfi.obj (.text:_fcpy)
                  c080eea0    000000a0                     : _printfi.obj (.text:_pconv_f)
                  c080ef40    000000a0     sysbios.ae674 : c64p_Hwi_asm.obj (.text:_ti_sysbios_family_c64p_Hwi_plug__E)
                  c080efe0    000000a0     stk6_ppp_pppoe.ae674 : auth.oe674 (.text:authStart)
                  c080f080    000000a0     nettool.ae674 : dhcpbild.oe674 (.text:dhcpBuildDecline)
                  c080f120    000000a0                   : dhcpsm.oe674 (.text:dhcpIPRemove)
                  c080f1c0    000000a0     stk6_ppp_pppoe.ae674 : fileuser.oe674 (.text:fdCloseSession)
                  c080f260    000000a0     rts6740_elf.lib : lowlev.obj (.text:finddevice)
                  c080f300    000000a0     stk6_ppp_pppoe.ae674 : lcp.oe674 (.text:lcpInit)
                  c080f3a0    000000a0                          : lcp.oe674 (.text:lcpSendTerm)
                  c080f440    000000a0     hal_timer_bios.ae674 : lltimer.oe674 (.text:llTimerTick)
                  c080f4e0    000000a0     rts6740_elf.lib : lowlev.obj (.text:lseek)
                  c080f580    000000a0     gooao_fr_c6748_pe674.oe674 (.text:malloc)
                  c080f620    000000a0     rts6740_elf.lib : memcpy64.obj (.text:memcpy)
                  c080f6c0    000000a0     os.ae674 : mem.oe674 (.text:mmBulkFree)
                  c080f760    000000a0              : mem.oe674 (.text:mmInitPage)
                  c080f800    000000a0              : ossys.oe674 (.text:stricmp)
                  c080f8a0    000000a0     rts6740_elf.lib : strstr.obj (.text:strstr)
                  c080f940    000000a0     taskImageProcess.obj (.text)
                  c080f9e0    000000a0     sysbios.ae674 : BIOS.obj (.text:ti_sysbios_heaps_HeapMem_init__I)
                  c080fa80    000000a0     gooao_fr_c6748_pe674.oe674 (.text:ti_sysbios_knl_Clock_Object__create__S)
                  c080fb20    000000a0     sysbios.ae674 : BIOS.obj (.text:ti_sysbios_knl_Idle_run__E)
                  c080fbc0    000000a0     gooao_fr_c6748_pe674.oe674 (.text:ti_sysbios_knl_Semaphore_Object__create__S)
                  c080fc60    000000a0     sysbios.ae674 : BIOS.obj (.text:ti_sysbios_knl_Task_deleteTerminatedTasksFunc__I)
                  c080fd00    000000a0     gooao_fr_c6748_pe674.oe674 (.text:ti_sysbios_xdcruntime_SemThreadSupport_Object__create__S)
                  c080fda0    000000a0     rts6740_elf.lib : lowlev.obj (.text:write)
                  c080fe40    000000a0     ti.targets.rts6000.ae674 : Assert.oe674 (.text:xdc_runtime_Assert_raise__I)
                  c080fee0    000000a0                              : LoggerBuf.oe674 (.text:xdc_runtime_LoggerBuf_Module_startup__F)
                  c080ff80    000000a0                              : SysMin.oe674 (.text:xdc_runtime_SysMin_abort__F)
                  c0810020    000000a0                              : SysMin.oe674 (.text:xdc_runtime_SysMin_flush__F)
                  c08100c0    000000a0                              : SysMin.oe674 (.text:xdc_runtime_SysMin_putch__F)
                  c0810160    00000080     stk6_ppp_pppoe.ae674 : md5.oe674 (.text:Decode)
                  c08101e0    00000080     ti.drv.omapl138.ae674 : nimu_eth.oe674 (.text:EmacStart)
                  c0810260    00000080                           : ethdriver.oe674 (.text:GetPacket)
                  c08102e0    00000080                           : ethdriver.oe674 (.text:HwRxInt)
                  c0810360    00000080                           : ethdriver.oe674 (.text:HwTxInt)
                  c08103e0    00000080     stk6_ppp_pppoe.ae674 : icmp.oe674 (.text:ICMPChecksum)
                  c0810460    00000080                          : icmpv6in.oe674 (.text:ICMPv6RecvParamProblem)
                  c08104e0    00000080                          : icmpv6_ndisc.oe674 (.text:ICMPv6RecvRS)
                  c0810560    00000080                          : icmpv6in.oe674 (.text:ICMPv6RecvTimeExceeded)
                  c08105e0    00000080                          : ipv6out.oe674 (.text:IPv6GetRoute)
                  c0810660    00000080                          : lli6.oe674 (.text:LLI6Free)
                  c08106e0    00000080                          : lli6.oe674 (.text:LLI6IsRouterStatMachine)
                  c0810760    00000080     ti.drv.omapl138.ae674 : csl_mdio.oe674 (.text:MDIO_close)
                  c08107e0    00000080     stk6_ppp_pppoe.ae674 : nimu.oe674 (.text:NIMUInit)
                  c0810860    00000080                          : pbm.oe674 (.text:PBMQ_deq)
                  c08108e0    00000080                          : nimuppp.oe674 (.text:PPPSend)
                  c0810960    00000080                          : pipe.oe674 (.text:PipeClose)
                  c08109e0    00000080                          : rawethsock.oe674 (.text:RawEthSockClose)
                  c0810a60    00000080                          : rawethsock_pcb.oe674 (.text:RawEthSockPcbDetach)
                  c0810ae0    00000080                          : route6.oe674 (.text:Rt6Update)
                  c0810b60    00000080                          : route.oe674 (.text:RtSetFailure)
                  c0810be0    00000080                          : route.oe674 (.text:RtSetTimeout)
                  c0810c60    00000080                          : sock6.oe674 (.text:Sock6Bind)
                  c0810ce0    00000080                          : sock6pcb.oe674 (.text:Sock6PcbCleanup)
                  c0810d60    00000080                          : sock.oe674 (.text:SockGetName)
                  c0810de0    00000080                          : sockpcb.oe674 (.text:SockPcbCleanup)
                  c0810e60    00000080                          : sockpcb.oe674 (.text:SockPcbDetach)
                  c0810ee0    00000080                          : sockpcb.oe674 (.text:SockPcbResolveChain)
                  c0810f60    00000080                          : tcp6prot.oe674 (.text:TCP6PrListen)
                  c0810fe0    00000080     os.ae674 : task.oe674 (.text:TaskSetEnv)
                  c0811060    00000080     stk6_ppp_pppoe.ae674 : tcpprot.oe674 (.text:TcpPrListen)
                  c08110e0    00000080                          : timer.oe674 (.text:TimerHSTick)
                  c0811160    00000080                          : timer.oe674 (.text:TimerListRemove)
                  c08111e0    00000080     nettool.ae674 : config.oe674 (.text:_CfgAcquire)
                  c0811260    00000080                   : config.oe674 (.text:_CfgRelease)
                  c08112e0    00000080     stk6_ppp_pppoe.ae674 : lli.oe674 (.text:_LLIExpListRemove)
                  c0811360    00000080                          : rtc.oe674 (.text:_RTCSendRtAdv)
                  c08113e0    00000080                          : rtable.oe674 (.text:_RtExpListRemove)
                  c0811460    00000080     rts6740_elf.lib : llshift.obj (.text:__c6xabi_llshl)
                  c08114e0    00000080     sysbios.ae674 : c62_TaskSupport_asm.obj (.text:_ti_sysbios_family_c62_TaskSupport_swap__E)
                  c0811560    00000080     os.ae674 : efs.oe674 (.text:efs_fclose)
                  c08115e0    00000080              : efs.oe674 (.text:efs_filesend)
                  c0811660    00000080              : efs.oe674 (.text:efs_findfile)
                  c08116e0    00000080     stk6_ppp_pppoe.ae674 : file.oe674 (.text:fdint_waitevent)
                  c0811760    00000080     fr_uart.obj (.text)
                  c08117e0    00000080     nettool.ae674 : httpsend.oe674 (.text:httpSendEntityLength)
                  c0811860    00000080                   : httpsend.oe674 (.text:httpSendErrorResponse)
                  c08118e0    00000080     hal_timer_bios.ae674 : lltimer.oe674 (.text:llTimerGetTime)
                  c0811960    00000080     rts6740_elf.lib : trgmsg.obj (.text:readmsg)
                  c08119e0    00000080     nettool.ae674 : httpsend.oe674 (.text:strcat)
                  c0811a60    00000080     gooao_fr_c6748_pe674.oe674 (.text:ti_sysbios_BIOS_exitFunc__I)
                  c0811ae0    00000080     sysbios.ae674 : BIOS.obj (.text:ti_sysbios_family_c62_TaskSupport_start__E)
                  c0811b60    00000080                   : BIOS.obj (.text:ti_sysbios_family_c64p_Cache_invL1pAll__E)
                  c0811be0    00000080                   : BIOS.obj (.text:ti_sysbios_family_c64p_Hwi_eventMap__E)
                  c0811c60    00000080     gooao_fr_c6748_pe674.oe674 (.text:ti_sysbios_gates_GateHwi_Object__create__S)
                  c0811ce0    00000080     gooao_fr_c6748_pe674.oe674 (.text:ti_sysbios_gates_GateMutex_Object__create__S)
                  c0811d60    00000080     gooao_fr_c6748_pe674.oe674 (.text:ti_sysbios_heaps_HeapMem_Object__create__S)
                  c0811de0    00000080     sysbios.ae674 : BIOS.obj (.text:ti_sysbios_knl_Clock_Module_startup__F)
                  c0811e60    00000080     gooao_fr_c6748_pe674.oe674 (.text:ti_sysbios_knl_Clock_doTick__I)
                  c0811ee0    00000080     sysbios.ae674 : BIOS.obj (.text:ti_sysbios_knl_Clock_getTicks__E)
                  c0811f60    00000080     gooao_fr_c6748_pe674.oe674 (.text:ti_sysbios_knl_Queue_Object__create__S)
                  c0811fe0    00000080     sysbios.ae674 : BIOS.obj (.text:ti_sysbios_knl_Swi_startup__E)
                  c0812060    00000080                   : BIOS.obj (.text:ti_sysbios_knl_Task_restore__E)
                  c08120e0    00000080                   : BIOS.obj (.text:ti_sysbios_timers_timer64_Timer_getCount__E)
                  c0812160    00000080                   : BIOS.obj (.text:ti_sysbios_timers_timer64_Timer_getPeriod__E)
                  c08121e0    00000080                   : BIOS.obj (.text:ti_sysbios_xdcruntime_SemThreadSupport_Instance_init__F)
                  c0812260    00000080     rts6740_elf.lib : lowlev.obj (.text:unlink)
                  c08122e0    00000080     ti.targets.rts6000.ae674 : Core-label.oe674 (.text:xdc_runtime_Core_assignLabel__I)
                  c0812360    00000080                              : Core-params.oe674 (.text:xdc_runtime_Core_assignParams__I)
                  c08123e0    00000080     gooao_fr_c6748_pe674.oe674 (.text:xdc_runtime_SysMin_output__I)
                  c0812460    00000080     ti.targets.rts6000.ae674 : System.oe674 (.text:xdc_runtime_System_atexit__F)
                  c08124e0    00000080                              : System.oe674 (.text:xdc_runtime_System_rtsExit__I)
                  c0812560    00000080                              : Text.oe674 (.text:xdc_runtime_Text_printVisFxn__I)
                  c08125e0    00000080                              : Text.oe674 (.text:xdc_runtime_Text_xprintf__I)
                  c0812660    00000080                              : SemThread.oe674 (.text:xdc_runtime_knl_SemThread_Instance_init__F)
                  c08126e0    00000060     stk6_ppp_pppoe.ae674 : bind6.oe674 (.text:Bind6FindByIF)
                  c0812740    00000060                          : bind6.oe674 (.text:Bind6IF2IPHost)
                  c08127a0    00000060                          : bind.oe674 (.text:BindFindByHost)
                  c0812800    00000060                          : bind.oe674 (.text:BindFindByIF)
                  c0812860    00000060                          : bind.oe674 (.text:BindFindByNet)
                  c08128c0    00000060                          : bind.oe674 (.text:BindGetIFByDBCast)
                  c0812920    00000060                          : bind.oe674 (.text:BindIF2IPHost)
                  c0812980    00000060     nettool.ae674 : config.oe674 (.text:CfgEntryInfo)
                  c08129e0    00000060                   : config.oe674 (.text:CfgSetService)
                  c0812a40    00000060     ti.drv.omapl138.ae674 : nimu_eth.oe674 (.text:EmacPktService)
                  c0812aa0    00000060                           : nimu_eth.oe674 (.text:EmacSend)
                  c0812b00    00000060                           : nimu_eth.oe674 (.text:EmacStop)
                  c0812b60    00000060     stk6_ppp_pppoe.ae674 : md5.oe674 (.text:Encode)
                  c0812bc0    00000060                          : exec.oe674 (.text:ExecBroadcast)
                  c0812c20    00000060                          : igmp.oe674 (.text:IGMPTestGroup)
                  c0812c80    00000060                          : ip.oe674 (.text:IPChecksum)
                  c0812ce0    00000060                          : lli.oe674 (.text:LLIFree)
                  c0812d40    00000060     ti.drv.omapl138.ae674 : csl_mdio.oe674 (.text:MDIO_open)
                  c0812da0    00000060     netctrl.ae674 : netctrl.oe674 (.text:NC_SystemClose)
                  c0812e00    00000060     stk6_ppp_pppoe.ae674 : nimu.oe674 (.text:NIMUAddHeader)
                  c0812e60    00000060                          : nimu.oe674 (.text:NIMUCreatePacket)
                  c0812ec0    00000060                          : nimu.oe674 (.text:NIMUFindByIndex)
                  c0812f20    00000060                          : nimu.oe674 (.text:NIMUPacketService)
                  c0812f80    00000060                          : nimu.oe674 (.text:NIMUPacketServiceCheck)
                  c0812fe0    00000060                          : nimu.oe674 (.text:NIMUSendPacket)
                  c0813040    00000060     netctrl.ae674 : netsrv.oe674 (.text:NS_PreBoot)
                  c08130a0    00000060     stk6_ppp_pppoe.ae674 : node.oe674 (.text:NodeGetRt)
                  c0813100    00000060                          : rtc.oe674 (.text:RTCAddHook)
                  c0813160    00000060                          : rtc.oe674 (.text:RTCRemoveHook)
                  c08131c0    00000060                          : rawethsock_pcb.oe674 (.text:RawEthSockPcbCleanup)
                  c0813220    00000060                          : rawethsock_pcb.oe674 (.text:RawEthSockPcbFind)
                  c0813280    00000060                          : route6.oe674 (.text:Rt6GetNetworkAddr)
                  c08132e0    00000060                          : rtable.oe674 (.text:RtWalkEnd)
                  c0813340    00000060     netctrl.ae674 : netsrv.oe674 (.text:ServiceCallback)
                  c08133a0    00000060     stk6_ppp_pppoe.ae674 : sock6pcb.oe674 (.text:Sock6PcbDetach)
                  c0813400    00000060                          : sock6prot.oe674 (.text:Sock6PrCtlError)
                  c0813460    00000060                          : sock6prot.oe674 (.text:Sock6PrDetach)
                  c08134c0    00000060                          : sockprot.oe674 (.text:SockPrCtlError)
                  c0813520    00000060                          : sockprot.oe674 (.text:SockPrDetach)
                  c0813580    00000060                          : tcp6prot.oe674 (.text:TCP6PrConnect)
                  c08135e0    00000060                          : tcp6time.oe674 (.text:TCP6SetPersist)
                  c0813640    00000060                          : tcp6time.oe674 (.text:TCP6TimeoutPersist)
                  c08136a0    00000060                          : tcpprot.oe674 (.text:TcpPrConnect)
                  c0813700    00000060                          : tcptime.oe674 (.text:TcpSetPersist)
                  c0813760    00000060                          : tcptime.oe674 (.text:TcpTimeoutPersist)
                  c08137c0    00000060                          : vlan.oe674 (.text:VLANFindNode)
                  c0813820    00000060                          : vlan.oe674 (.text:VLANFindSourceInterface)
                  c0813880    00000060                          : vlan.oe674 (.text:VLANInit)
                  c08138e0    00000060     nettool.ae674 : config.oe674 (.text:_CfgEntryProcess)
                  c0813940    00000060     rts6740_elf.lib : assert.obj (.text:__c6xabi_abort_msg)
                  c08139a0    00000060                     : imath64.obj (.text:_subcull)
                  c0813a00    00000060     nettool.ae674 : dhcpbild.oe674 (.text:dhcpBuildDiscover)
                  c0813a60    00000060                   : dhcpsock.oe674 (.text:dhcpPacketReceive)
                  c0813ac0    00000060                   : dhcpsock.oe674 (.text:dhcpPacketSend)
                  c0813b20    00000060                   : dhcpsock.oe674 (.text:dhcpSocketClose)
                  c0813b80    00000060     ti.drv.omapl138.ae674 : csl_emac.oe674 (.text:emacUpdateStats)
                  c0813be0    00000060     stk6_ppp_pppoe.ae674 : file.oe674 (.text:fdint_clearevent)
                  c0813c40    00000060                          : file.oe674 (.text:fdint_getfdt)
                  c0813ca0    00000060                          : file.oe674 (.text:fdint_setevent)
                  c0813d00    00000060                          : fileuser.oe674 (.text:fdsetTestEntry)
                  c0813d60    00000060     nettool.ae674 : httpsend.oe674 (.text:httpSendClientStr)
                  c0813dc0    00000060     stk6_ppp_pppoe.ae674 : ipcp.oe674 (.text:ipcpInit)
                  c0813e20    00000060                          : ipcp.oe674 (.text:ipcpStart)
                  c0813e80    00000060                          : lcp.oe674 (.text:lcpClose)
                  c0813ee0    00000060                          : listlib.oe674 (.text:list_cat)
                  c0813f40    00000060                          : listlib.oe674 (.text:list_remove_node)
                  c0813fa0    00000060     rts6740_elf.lib : memccpy.obj (.text:memccpy)
                  c0814000    00000060     os.ae674 : mem.oe674 (.text:mmUnInitPage)
                  c0814060    00000060     stk6_ppp_pppoe.ae674 : nimupppoe.oe674 (.text:pppoeInput)
                  c08140c0    00000060                          : socket.oe674 (.text:recvncfree)
                  c0814120    00000060     rts6740_elf.lib : strcpy.obj (.text:strcpy)
                  c0814180    00000060     gooao_fr_c6748_pe674.oe674 (.text:ti_ndk_config_Global_stackThread)
                  c08141e0    00000060     sysbios.ae674 : BIOS.obj (.text:ti_sysbios_BIOS_registerRTSLock__I)
                  c0814240    00000060                   : BIOS.obj (.text:ti_sysbios_family_c64p_Cache_setMar__E)
                  c08142a0    00000060                   : BIOS.obj (.text:ti_sysbios_family_c64p_Cache_setSize__E)
                  c0814300    00000060                   : BIOS.obj (.text:ti_sysbios_family_c64p_EventCombiner_Module_startup__F)
                  c0814360    00000060                   : BIOS.obj (.text:ti_sysbios_family_c64p_EventCombiner_dispatchPlug__F)
                  c08143c0    00000060                   : BIOS.obj (.text:ti_sysbios_family_c64p_Exception_Module_startup__F)
                  c0814420    00000060     gooao_fr_c6748_pe674.oe674 (.text:ti_sysbios_family_c64p_Hwi_Object__delete__S)
                  c0814480    00000060     sysbios.ae674 : BIOS.obj (.text:ti_sysbios_family_c64p_primus_TimerSupport_enable__E)
                  c08144e0    00000060     gooao_fr_c6748_pe674.oe674 (.text:ti_sysbios_gates_GateHwi_Handle__label__S)
                  c0814540    00000060     gooao_fr_c6748_pe674.oe674 (.text:ti_sysbios_gates_GateHwi_Object__delete__S)
                  c08145a0    00000060     gooao_fr_c6748_pe674.oe674 (.text:ti_sysbios_gates_GateMutex_Handle__label__S)
                  c0814600    00000060     sysbios.ae674 : BIOS.obj (.text:ti_sysbios_gates_GateMutex_Instance_init__F)
                  c0814660    00000060     gooao_fr_c6748_pe674.oe674 (.text:ti_sysbios_gates_GateMutex_Object__delete__S)
                  c08146c0    00000060     sysbios.ae674 : BIOS.obj (.text:ti_sysbios_hal_Hwi_Instance_init__F)
                  c0814720    00000060     gooao_fr_c6748_pe674.oe674 (.text:ti_sysbios_hal_Hwi_Object__delete__S)
                  c0814780    00000060     sysbios.ae674 : BIOS.obj (.text:ti_sysbios_hal_Hwi_checkStack:ti_sysbios_hal_Hwi_checkStack)
                  c08147e0    00000060                   : BIOS.obj (.text:ti_sysbios_hal_Hwi_initStack:ti_sysbios_hal_Hwi_initStack)
                  c0814840    00000060     gooao_fr_c6748_pe674.oe674 (.text:ti_sysbios_heaps_HeapMem_Handle__label__S)
                  c08148a0    00000060     gooao_fr_c6748_pe674.oe674 (.text:ti_sysbios_heaps_HeapMem_Object__delete__S)
                  c0814900    00000060     gooao_fr_c6748_pe674.oe674 (.text:ti_sysbios_knl_Queue_Object__delete__S)
                  c0814960    00000060     gooao_fr_c6748_pe674.oe674 (.text:ti_sysbios_knl_Semaphore_Object__delete__S)
                  c08149c0    00000060     sysbios.ae674 : BIOS.obj (.text:ti_sysbios_knl_Semaphore_pendTimeout__I)
                  c0814a20    00000060                   : BIOS.obj (.text:ti_sysbios_knl_Swi_Module_startup__F)
                  c0814a80    00000060     gooao_fr_c6748_pe674.oe674 (.text:ti_sysbios_knl_Task_Object__delete__S)
                  c0814ae0    00000060     sysbios.ae674 : BIOS.obj (.text:ti_sysbios_knl_Task_enter__I)
                  c0814b40    00000060     gooao_fr_c6748_pe674.oe674 (.text:ti_sysbios_xdcruntime_SemThreadSupport_Object__delete__S)
                  c0814ba0    00000060     rts6740_elf.lib : trgmsg.obj (.text:writemsg)
                  c0814c00    00000060     ti.targets.rts6000.ae674 : Memory.oe674 (.text:xdc_runtime_Memory_calloc__F)
                  c0814c60    00000060                              : SysMin.oe674 (.text:xdc_runtime_SysMin_Module_startup__F)
                  c0814cc0    00000060                              : SysMin.oe674 (.text:xdc_runtime_SysMin_exit__F)
                  c0814d20    00000060                              : System.oe674 (.text:xdc_runtime_System_avprintf__F)
                  c0814d80    00000060                              : System.oe674 (.text:xdc_runtime_System_vprintf__F)
                  c0814de0    00000060                              : Text.oe674 (.text:xdc_runtime_Text_cordText__F)
                  c0814e40    00000060     gooao_fr_c6748_pe674.oe674 (.text:xdc_runtime_knl_SemThread_Handle__label__S)
                  c0814ea0    00000060     gooao_fr_c6748_pe674.oe674 (.text:xdc_runtime_knl_SemThread_Object__delete__S)
                  c0814f00    00000060     gooao_fr_c6748_pe674.oe674 (.text:xdc_runtime_knl_SyncSemThread_Handle__label__S)
                  c0814f60    00000060     ti.targets.rts6000.ae674 : SyncSemThread.oe674 (.text:xdc_runtime_knl_SyncSemThread_Instance_init__F)
                  c0814fc0    00000060     gooao_fr_c6748_pe674.oe674 (.text:xdc_runtime_knl_SyncSemThread_Object__delete__S)
                  c0815020    00000040     stk6_ppp_pppoe.ae674 : bind6.oe674 (.text:Bind6FindByHost)
                  c0815060    00000040                          : bind6.oe674 (.text:Bind6FindByNet)
                  c08150a0    00000040                          : bind.oe674 (.text:BindGetIP)
                  c08150e0    00000040                          : exec.oe674 (.text:ExecClose)
                  c0815120    00000040                          : exec.oe674 (.text:ExecTimer)
                  c0815160    00000040     ti.drv.omapl138.ae674 : ethdriver.oe674 (.text:FreePacket)
                  c08151a0    00000040     stk6_ppp_pppoe.ae674 : ipv6.oe674 (.text:IPv6IsLinkLocal)
                  c08151e0    00000040                          : ipv6.oe674 (.text:IPv6IsMulticast)
                  c0815220    00000040     os.ae674 : intmgmt.oe674 (.text:Interrupt_delete)
                  c0815260    00000040     ti.drv.omapl138.ae674 : ethdriver.oe674 (.text:Interrupt_end)
                  c08152a0    00000040     stk6_ppp_pppoe.ae674 : lli6.oe674 (.text:LLI6IsValid)
                  c08152e0    00000040                          : md5.oe674 (.text:MD5Init)
                  c0815320    00000040                          : mld.oe674 (.text:MLDTestGroup)
                  c0815360    00000040     netctrl.ae674 : netctrl.oe674 (.text:NC_BootComplete)
                  c08153a0    00000040     os.ae674 : task.oe674 (.text:NDK_hookCreate)
                  c08153e0    00000040              : ossys.oe674 (.text:NDK_sprintf)
                  c0815420    00000040     nettool.ae674 : ipaddr.oe674 (.text:NtRemoveNetwork)
                  c0815460    00000040     stk6_ppp_pppoe.ae674 : nimuppp.oe674 (.text:PPPStart)
                  c08154a0    00000040     ti.drv.omapl138.ae674 : ethdriver.oe674 (.text:Queue_pop)
                  c08154e0    00000040                           : ethdriver.oe674 (.text:Queue_push)
                  c0815520    00000040     nettool.ae674 : ipaddr.oe674 (.text:RouteHook)
                  c0815560    00000040     stk6_ppp_pppoe.ae674 : route6.oe674 (.text:Rt6IsDefaultRoute)
                  c08155a0    00000040                          : sock6pcb.oe674 (.text:Sock6PcbAttach)
                  c08155e0    00000040                          : sock6int.oe674 (.text:Sock6SetOOBMark)
                  c0815620    00000040                          : sockpcb.oe674 (.text:SockPcbAttach)
                  c0815660    00000040                          : sockint.oe674 (.text:SockSetOOBMark)
                  c08156a0    00000040                          : tcp6.oe674 (.text:TCP6TimeoutRemove)
                  c08156e0    00000040                          : tcp6time.oe674 (.text:TCP6TimeoutWait2)
                  c0815720    00000040     os.ae674 : task.oe674 (.text:TaskDestroy)
                  c0815760    00000040     stk6_ppp_pppoe.ae674 : tcp.oe674 (.text:TcpTimeoutRemove)
                  c08157a0    00000040                          : tcptime.oe674 (.text:TcpTimeoutWait2)
                  c08157e0    00000040     rts6740_elf.lib : frcmpyd_div.obj (.text:__c6xabi_frcmpyd_div)
                  c0815820    00000040                     : isinf.obj (.text:__c6xabi_isinf)
                  c0815860    00000040                     : _printfi.obj (.text:__c6xabi_isnan)
                  c08158a0    00000040                     : llshift.obj (.text:__c6xabi_llshru)
                  c08158e0    00000040                     : strasg.obj (.text:__strasgi_64plus)
                  c0815920    00000040                     : args_main.obj (.text:_args_main)
                  c0815960    00000040     hal_timer_bios.ae674 : lltimer.oe674 (.text:_llTimerInit)
                  c08159a0    00000040     sysbios.ae674 : c62_TaskSupport_asm.obj (.text:_ti_sysbios_family_c62_TaskSupport_buildTaskStack)
                  c08159e0    00000040                   : c64p_Hwi_asm_switch.obj (.text:_ti_sysbios_family_xxx_Hwi_switchToIsrStack)
                  c0815a20    00000040     os.ae674 : efs.oe674 (.text:efs_loadfunction)
                  c0815a60    00000040     evminit.obj (.text)
                  c0815aa0    00000040     stk6_ppp_pppoe.ae674 : fileuser.oe674 (.text:fdError)
                  c0815ae0    00000040                          : fileuser.oe674 (.text:fdSelectAbort)
                  c0815b20    00000040                          : file.oe674 (.text:fdint_freefdt)
                  c0815b60    00000040     gooao_fr_c6748_pe674.oe674 (.text:free)
                  c0815ba0    00000040     nettool.ae674 : inetaddr.oe674 (.text:inet_addr)
                  c0815be0    00000040     stk6_ppp_pppoe.ae674 : listlib.oe674 (.text:list_add)
                  c0815c20    00000040                          : listlib.oe674 (.text:list_remove)
                  c0815c60    00000040     ti.drv.omapl138.ae674 : csl_emac.oe674 (.text:pqPush)
                  c0815ca0    00000040                           : csl_emac.oe674 (.text:pqPushChain)
                  c0815ce0    00000040     sysbios.ae674 : BIOS.obj (.text:rtsLock$0)
                  c0815d20    00000040     rts6740_elf.lib : strcmp.obj (.text:strcmp)
                  c0815d60    00000040                     : strlen.obj (.text:strlen)
                  c0815da0    00000040     gooao_fr_c6748_pe674.oe674 (.text:ti_sysbios_BIOS_startFunc__I)
                  c0815de0    00000040     sysbios.ae674 : BIOS.obj (.text:ti_sysbios_family_c64p_EventCombiner_disableEvent__F)
                  c0815e20    00000040                   : BIOS.obj (.text:ti_sysbios_family_c64p_EventCombiner_enableEvent__F)
                  c0815e60    00000040                   : BIOS.obj (.text:ti_sysbios_family_c64p_EventCombiner_unused__F)
                  c0815ea0    00000040     gooao_fr_c6748_pe674.oe674 (.text:ti_sysbios_family_c64p_Hwi_Module__startupDone__F)
                  c0815ee0    00000040     sysbios.ae674 : BIOS.obj (.text:ti_sysbios_family_c64p_Hwi_disableInterrupt__E)
                  c0815f20    00000040                   : BIOS.obj (.text:ti_sysbios_family_c64p_Hwi_enableIER__E)
                  c0815f60    00000040                   : BIOS.obj (.text:ti_sysbios_family_c64p_Hwi_enableInterrupt__E)
                  c0815fa0    00000040                   : BIOS.obj (.text:ti_sysbios_gates_GateMutex_leave__E)
                  c0815fe0    00000040                   : BIOS.obj (.text:ti_sysbios_hal_Hwi_Instance_finalize__F)
                  c0816020    00000040     gooao_fr_c6748_pe674.oe674 (.text:ti_sysbios_hal_Timer_Module__startupDone__F)
                  c0816060    00000040     gooao_fr_c6748_pe674.oe674 (.text:ti_sysbios_heaps_HeapMem_Object__get__S)
                  c08160a0    00000040     sysbios.ae674 : BIOS.obj (.text:ti_sysbios_io_DEV_Instance_init__F)
                  c08160e0    00000040     gooao_fr_c6748_pe674.oe674 (.text:ti_sysbios_knl_Clock_Object__destruct__S)
                  c0816120    00000040     sysbios.ae674 : BIOS.obj (.text:ti_sysbios_knl_Queue_get__E)
                  c0816160    00000040                   : BIOS.obj (.text:ti_sysbios_knl_Queue_put__E)
                  c08161a0    00000040     gooao_fr_c6748_pe674.oe674 (.text:ti_sysbios_knl_Semaphore_Object__destruct__S)
                  c08161e0    00000040     gooao_fr_c6748_pe674.oe674 (.text:ti_sysbios_knl_Swi_Object__get__S)
                  c0816220    00000040     gooao_fr_c6748_pe674.oe674 (.text:ti_sysbios_knl_Task_Object__get__S)
                  c0816260    00000040     sysbios.ae674 : BIOS.obj (.text:ti_sysbios_knl_Task_sleepTimeout__I)
                  c08162a0    00000040     gooao_fr_c6748_pe674.oe674 (.text:ti_sysbios_timers_timer64_Timer_Module__startupDone__F)
                  c08162e0    00000040     sysbios.ae674 : BIOS.obj (.text:ti_sysbios_xdcruntime_SemThreadSupport_post__F)
                  c0816320    00000040     ti.targets.rts6000.ae674 : Error.oe674 (.text:xdc_runtime_Error_check__F)
                  c0816360    00000040                              : Error.oe674 (.text:xdc_runtime_Error_init__F)
                  c08163a0    00000040                              : Memory.oe674 (.text:xdc_runtime_Memory_free__F)
                  c08163e0    00000040                              : Registry.oe674 (.text:xdc_runtime_Registry_findById__F)
                  c0816420    00000040                              : System.oe674 (.text:xdc_runtime_System_abort__F)
                  c0816460    00000040     gooao_fr_c6748_pe674.oe674 (.text:xdc_runtime_System_aprintf__E)
                  c08164a0    00000040     gooao_fr_c6748_pe674.oe674 (.text:xdc_runtime_System_printf__E)
                  c08164e0    00000040     ti.targets.rts6000.ae674 : Text.oe674 (.text:xdc_runtime_Text_ropeText__F)
                  c0816520    00000040                              : SemThread.oe674 (.text:xdc_runtime_knl_SemThread_Instance_finalize__F)
                  c0816560    00000040                              : SyncSemThread.oe674 (.text:xdc_runtime_knl_SyncSemThread_Instance_finalize__F)
                  c08165a0    00000040                              : SyncSemThread.oe674 (.text:xdc_runtime_knl_SyncSemThread_wait__F)
                  c08165e0    00000020     stk6_ppp_pppoe.ae674 : bind6.oe674 (.text:Bind6GetInterfaceHandle)
                  c0816600    00000020                          : bind6.oe674 (.text:Bind6GetLifetime)
                  c0816620    00000020                          : bind6.oe674 (.text:Bind6SetLifetime)
                  c0816640    00000020                          : bind.oe674 (.text:BindGetFirst)
                  c0816660    00000020                          : bind.oe674 (.text:BindGetIF)
                  c0816680    00000020                          : bind.oe674 (.text:BindGetNext)
                  c08166a0    00000020                          : bind.oe674 (.text:BindIFNet2IPHost)
                  c08166c0    00000020                          : bind.oe674 (.text:BindIPHost2IF)
                  c08166e0    00000020     nettool.ae674 : config.oe674 (.text:CfgSetDefault)
                  c0816700    00000020     ti.drv.omapl138.ae674 : nimu_eth.oe674 (.text:EmacPoll)
                  c0816720    00000020     stk6_ppp_pppoe.ae674 : exec.oe674 (.text:ExecHRef)
                  c0816740    00000020                          : exec.oe674 (.text:ExecLowResource)
                  c0816760    00000020     ti.drv.omapl138.ae674 : ethdriver.oe674 (.text:HwPktInit)
                  c0816780    00000020                           : ethdriver.oe674 (.text:HwPktShutdown)
                  c08167a0    00000020     stk6_ppp_pppoe.ae674 : ip.oe674 (.text:IPRtChange)
                  c08167c0    00000020     hal_userled_stub.ae674 : llled.oe674 (.text:LED_TOGGLE)
                  c08167e0    00000020     stk6_ppp_pppoe.ae674 : lli6.oe674 (.text:LLI6GetNetDevice)
                  c0816800    00000020                          : lli6.oe674 (.text:LLI6IncRefCount)
                  c0816820    00000020                          : lli6.oe674 (.text:LLI6IsDead)
                  c0816840    00000020                          : lli6.oe674 (.text:LLI6IsRouter)
                  c0816860    00000020                          : lli6.oe674 (.text:LLI6SetIncomplete)
                  c0816880    00000020     ti.drv.omapl138.ae674 : csl_mdio.oe674 (.text:MDIO_getStatus)
                  c08168a0    00000020     netctrl.ae674 : netctrl.oe674 (.text:NC_IPUpdate)
                  c08168c0    00000020                   : netctrl.oe674 (.text:NC_NetStop)
                  c08168e0    00000020     os.ae674 : task.oe674 (.text:NDK_hookInit)
                  c0816900    00000020     stk6_ppp_pppoe.ae674 : nimu.oe674 (.text:NIMUGetRsvdSizeInfo)
                  c0816920    00000020                          : nimu.oe674 (.text:NIMUSetRsvdSizeInfo)
                  c0816940    00000020                          : nat.oe674 (.text:NatMsg)
                  c0816960    00000020                          : node.oe674 (.text:NodeSetRt)
                  c0816980    00000020     os.ae674 : task.oe674 (.text:NotifyLowResource)
                  c08169a0    00000020              : oem.oe674 (.text:OEMCacheClean)
                  c08169c0    00000020              : oem.oe674 (.text:OEMSysCritOff)
                  c08169e0    00000020              : oem.oe674 (.text:OEMSysCritOn)
                  c0816a00    00000020     stk6_ppp_pppoe.ae674 : pbm.oe674 (.text:PBM_close)
                  c0816a20    00000020                          : rawethsock_pcb.oe674 (.text:RawEthSockPcbInit)
                  c0816a40    00000020                          : rawethsock_prot.oe674 (.text:RawEthSockPrAttach)
                  c0816a60    00000020                          : rawethsock_prot.oe674 (.text:RawEthSockPrDetach)
                  c0816a80    00000020                          : route6.oe674 (.text:Rt6GetIF)
                  c0816aa0    00000020                          : route6.oe674 (.text:Rt6GetLLI)
                  c0816ac0    00000020                          : route6.oe674 (.text:Rt6GetMTU)
                  c0816ae0    00000020                          : route6.oe674 (.text:Rt6IncRefCount)
                  c0816b00    00000020                          : route6.oe674 (.text:Rt6IsLocalRoute)
                  c0816b20    00000020     os.ae674 : semaphore.oe674 (.text:SemDelete)
                  c0816b40    00000020              : semaphore.oe674 (.text:SemPend)
                  c0816b60    00000020              : semaphore.oe674 (.text:SemPost)
                  c0816b80    00000020              : semaphore.oe674 (.text:SemReset)
                  c0816ba0    00000020     stk6_ppp_pppoe.ae674 : sock6prot.oe674 (.text:Sock6PrAttach)
                  c0816bc0    00000020                          : sock6int.oe674 (.text:Sock6SetOOBData)
                  c0816be0    00000020                          : sockprot.oe674 (.text:SockPrAttach)
                  c0816c00    00000020                          : sockint.oe674 (.text:SockSetOOBData)
                  c0816c20    00000020     ti.drv.omapl138.ae674 : ethdriver.oe674 (.text:StatisticsUpdate)
                  c0816c40    00000020                           : ethdriver.oe674 (.text:StatusUpdate)
                  c0816c60    00000020     stk6_ppp_pppoe.ae674 : tcp6prot.oe674 (.text:TCP6PrRecv)
                  c0816c80    00000020                          : tcp6.oe674 (.text:TCP6TimeoutAdd)
                  c0816ca0    00000020     os.ae674 : task.oe674 (.text:TaskBlock)
                  c0816cc0    00000020              : task.oe674 (.text:TaskSelf)
                  c0816ce0    00000020              : task.oe674 (.text:TaskSetPri)
                  c0816d00    00000020     stk6_ppp_pppoe.ae674 : tcpprot.oe674 (.text:TcpPrRecv)
                  c0816d20    00000020                          : tcp.oe674 (.text:TcpTimeoutAdd)
                  c0816d40    00000020                          : timer.oe674 (.text:TimerFree)
                  c0816d60    00000020     os.ae674 : task.oe674 (.text:_TaskInit)
                  c0816d80    00000020              : task.oe674 (.text:_TaskShutdown)
                  c0816da0    00000020     rts6740_elf.lib : negll.obj (.text:__c6xabi_negll)
                  c0816dc0    00000020                     : dtor_list.obj (.text:__cxa_atexit)
                  c0816de0    00000020                     : dtor_list.obj (.text:__cxa_ia64_exit)
                  c0816e00    00000020     ti.targets.rts6000.ae674 : xdc_noinit.oe674 (.text:__xdc__init)
                  c0816e20    00000020     hal_ser_stub.ae674 : llserstb.oe674 (.text:_llSerialInit)
                  c0816e40    00000020                        : llserstb.oe674 (.text:_llSerialServiceCheck)
                  c0816e60    00000020                        : llserstb.oe674 (.text:_llSerialShutdown)
                  c0816e80    00000020     hal_timer_bios.ae674 : lltimer.oe674 (.text:_llTimerShutdown)
                  c0816ea0    00000020     hal_userled_stub.ae674 : llled.oe674 (.text:_llUserLedInit)
                  c0816ec0    00000020                            : llled.oe674 (.text:_llUserLedShutdown)
                  c0816ee0    00000020     rts6740_elf.lib : _lock.obj (.text:_nop)
                  c0816f00    00000020                     : fprintf.obj (.text:_outc)
                  c0816f20    00000020                     : printf.obj (.text:_outc)
                  c0816f40    00000020                     : fprintf.obj (.text:_outs)
                  c0816f60    00000020                     : printf.obj (.text:_outs)
                  c0816f80    00000020                     : _lock.obj (.text:_register_lock)
                  c0816fa0    00000020                     : _lock.obj (.text:_register_unlock)
                  c0816fc0    00000020     sysbios.ae674 : c62_TaskSupport_asm.obj (.text:_ti_sysbios_family_c62_TaskSupport_glue)
                  c0816fe0    00000020                   : c64p_Hwi_asm_switch.obj (.text:_ti_sysbios_family_xxx_Hwi_switchToTaskStack)
                  c0817000    00000020     rts6740_elf.lib : exit.obj (.text:abort)
                  c0817020    00000020                     : dtor_list.obj (.text:atexit)
                  c0817040    00000020                     : copy_decompress_none.obj (.text:decompress:none:__TI_decompress_none)
                  c0817060    00000020                     : copy_decompress_rle.obj (.text:decompress:rle24:__TI_decompress_rle24)
                  c0817080    00000020     os.ae674 : efs.oe674 (.text:efs_getfilesize)
                  c08170a0    00000020     stk6_ppp_pppoe.ae674 : file.oe674 (.text:fdint_signaltimeout)
                  c08170c0    00000020                          : listlib.oe674 (.text:list_get_head)
                  c08170e0    00000020                          : listlib.oe674 (.text:list_get_next)
                  c0817100    00000020     hal_ser_stub.ae674 : llserstb.oe674 (.text:llSerialService)
                  c0817120    00000020     hal_timer_bios.ae674 : lltimer.oe674 (.text:llTimerGetStartTime)
                  c0817140    00000020     sysbios.ae674 : BIOS.obj (.text:nullFunc$0)
                  c0817160    00000020     gooao_fr_c6748_pe674.oe674 (.text:ti_sysbios_BIOS_RtsGateProxy_enter__E)
                  c0817180    00000020     gooao_fr_c6748_pe674.oe674 (.text:ti_sysbios_BIOS_RtsGateProxy_leave__E)
                  c08171a0    00000020     sysbios.ae674 : BIOS.obj (.text:ti_sysbios_BIOS_setThreadType__E)
                  c08171c0    00000020                   : BIOS.obj (.text:ti_sysbios_BIOS_start__E)
                  c08171e0    00000020     gooao_fr_c6748_pe674.oe674 (.text:ti_sysbios_family_c62_TaskSupport_Module__startupDone__S)
                  c0817200    00000020     sysbios.ae674 : BIOS.obj (.text:ti_sysbios_family_c62_TaskSupport_checkStack__E)
                  c0817220    00000020                   : BIOS.obj (.text:ti_sysbios_family_c62_TaskSupport_getStackAlignment__E)
                  c0817240    00000020                   : BIOS.obj (.text:ti_sysbios_family_c64p_Cache_inv__E)
                  c0817260    00000020                   : BIOS.obj (.text:ti_sysbios_family_c64p_Cache_wbInv__E)
                  c0817280    00000020                   : BIOS.obj (.text:ti_sysbios_family_c64p_Cache_wb__E)
                  c08172a0    00000020                   : BIOS.obj (.text:ti_sysbios_family_c64p_Hwi_clearInterrupt__E)
                  c08172c0    00000020                   : BIOS.obj (.text:ti_sysbios_family_c64p_Hwi_startup__E)
                  c08172e0    00000020                   : BIOS.obj (.text:ti_sysbios_family_c64p_Hwi_switchFromBootStack__E)
                  c0817300    00000020                   : BIOS.obj (.text:ti_sysbios_family_c64p_Hwi_unPluggedInterrupt__I)
                  c0817320    00000020                   : BIOS.obj (.text:ti_sysbios_family_c64p_TimestampProvider_Module_startup__F)
                  c0817340    00000020                   : BIOS.obj (.text:ti_sysbios_gates_GateHwi_Instance_init__F)
                  c0817360    00000020                   : BIOS.obj (.text:ti_sysbios_gates_GateHwi_enter__E)
                  c0817380    00000020                   : BIOS.obj (.text:ti_sysbios_gates_GateHwi_leave__E)
                  c08173a0    00000020                   : BIOS.obj (.text:ti_sysbios_gates_GateHwi_query__F)
                  c08173c0    00000020                   : BIOS.obj (.text:ti_sysbios_gates_GateMutex_Instance_finalize__F)
                  c08173e0    00000020                   : BIOS.obj (.text:ti_sysbios_gates_GateMutex_query__F)
                  c0817400    00000020     gooao_fr_c6748_pe674.oe674 (.text:ti_sysbios_hal_Hwi_HwiProxy_Module__startupDone__S)
                  c0817420    00000020     gooao_fr_c6748_pe674.oe674 (.text:ti_sysbios_hal_Hwi_HwiProxy_Object__create__S)
                  c0817440    00000020     gooao_fr_c6748_pe674.oe674 (.text:ti_sysbios_hal_Hwi_HwiProxy_Object__delete__S)
                  c0817460    00000020     sysbios.ae674 : BIOS.obj (.text:ti_sysbios_hal_Hwi_Module_startup__F)
                  c0817480    00000020     gooao_fr_c6748_pe674.oe674 (.text:ti_sysbios_hal_Hwi_Params__init__S)
                  c08174a0    00000020     sysbios.ae674 : BIOS.obj (.text:ti_sysbios_hal_Timer_Module_startup__F)
                  c08174c0    00000020     gooao_fr_c6748_pe674.oe674 (.text:ti_sysbios_hal_Timer_TimerProxy_Module__startupDone__S)
                  c08174e0    00000020     gooao_fr_c6748_pe674.oe674 (.text:ti_sysbios_hal_Timer_TimerProxy_getExpiredCounts__E)
                  c0817500    00000020     gooao_fr_c6748_pe674.oe674 (.text:ti_sysbios_hal_Timer_TimerProxy_getPeriod__E)
                  c0817520    00000020     gooao_fr_c6748_pe674.oe674 (.text:ti_sysbios_hal_Timer_TimerProxy_setNextTick__E)
                  c0817540    00000020     gooao_fr_c6748_pe674.oe674 (.text:ti_sysbios_heaps_HeapMem_Module_GateProxy_enter__E)
                  c0817560    00000020     gooao_fr_c6748_pe674.oe674 (.text:ti_sysbios_heaps_HeapMem_Module_GateProxy_leave__E)
                  c0817580    00000020     sysbios.ae674 : BIOS.obj (.text:ti_sysbios_heaps_HeapMem_isBlocking__E)
                  c08175a0    00000020     gooao_fr_c6748_pe674.oe674 (.text:ti_sysbios_io_DEV_Object__get__S)
                  c08175c0    00000020     gooao_fr_c6748_pe674.oe674 (.text:ti_sysbios_io_DEV_Params__init__S)
                  c08175e0    00000020     gooao_fr_c6748_pe674.oe674 (.text:ti_sysbios_io_GIO_Params__init__S)
                  c0817600    00000020     gooao_fr_c6748_pe674.oe674 (.text:ti_sysbios_knl_Clock_Params__init__S)
                  c0817620    00000020     sysbios.ae674 : BIOS.obj (.text:ti_sysbios_knl_Idle_loop__E)
                  c0817640    00000020                   : BIOS.obj (.text:ti_sysbios_knl_Queue_Instance_init__F)
                  c0817660    00000020     gooao_fr_c6748_pe674.oe674 (.text:ti_sysbios_knl_Queue_Object__destruct__S)
                  c0817680    00000020     gooao_fr_c6748_pe674.oe674 (.text:ti_sysbios_knl_Queue_Object__get__S)
                  c08176a0    00000020     sysbios.ae674 : BIOS.obj (.text:ti_sysbios_knl_Queue_empty__E)
                  c08176c0    00000020                   : BIOS.obj (.text:ti_sysbios_knl_Queue_head__E)
                  c08176e0    00000020                   : BIOS.obj (.text:ti_sysbios_knl_Queue_next__E)
                  c0817700    00000020                   : BIOS.obj (.text:ti_sysbios_knl_Queue_remove__E)
                  c0817720    00000020                   : BIOS.obj (.text:ti_sysbios_knl_Semaphore_Instance_finalize__F)
                  c0817740    00000020     gooao_fr_c6748_pe674.oe674 (.text:ti_sysbios_knl_Semaphore_Params__init__S)
                  c0817760    00000020     sysbios.ae674 : BIOS.obj (.text:ti_sysbios_knl_Semaphore_reset__E)
                  c0817780    00000020                   : BIOS.obj (.text:ti_sysbios_knl_Swi_disable__E)
                  c08177a0    00000020     gooao_fr_c6748_pe674.oe674 (.text:ti_sysbios_knl_Task_Object__first__S)
                  c08177c0    00000020     gooao_fr_c6748_pe674.oe674 (.text:ti_sysbios_knl_Task_Object__next__S)
                  c08177e0    00000020     gooao_fr_c6748_pe674.oe674 (.text:ti_sysbios_knl_Task_Params__init__S)
                  c0817800    00000020     gooao_fr_c6748_pe674.oe674 (.text:ti_sysbios_knl_Task_SupportProxy_Module__startupDone__S)
                  c0817820    00000020     sysbios.ae674 : BIOS.obj (.text:ti_sysbios_knl_Task_disable__E)
                  c0817840    00000020                   : BIOS.obj (.text:ti_sysbios_knl_Task_getHookContext__E)
                  c0817860    00000020                   : BIOS.obj (.text:ti_sysbios_knl_Task_self__E)
                  c0817880    00000020                   : BIOS.obj (.text:ti_sysbios_knl_Task_setHookContext__E)
                  c08178a0    00000020                   : BIOS.obj (.text:ti_sysbios_knl_Task_startup__E)
                  c08178c0    00000020                   : BIOS.obj (.text:ti_sysbios_timers_timer64_Timer_setNextTick__E)
                  c08178e0    00000020                   : BIOS.obj (.text:ti_sysbios_xdcruntime_SemThreadSupport_Instance_finalize__F)
                  c0817900    00000020     gooao_fr_c6748_pe674.oe674 (.text:ti_sysbios_xdcruntime_SemThreadSupport_Params__init__S)
                  c0817920    00000020     ti.targets.rts6000.ae674 : Error.oe674 (.text:xdc_runtime_Error_getMsg__F)
                  c0817940    00000020                              : Gate.oe674 (.text:xdc_runtime_Gate_enterSystem__F)
                  c0817960    00000020                              : Gate.oe674 (.text:xdc_runtime_Gate_leaveSystem__F)
                  c0817980    00000020     gooao_fr_c6748_pe674.oe674 (.text:xdc_runtime_IHeap_alloc)
                  c08179a0    00000020     gooao_fr_c6748_pe674.oe674 (.text:xdc_runtime_IHeap_free)
                  c08179c0    00000020     gooao_fr_c6748_pe674.oe674 (.text:xdc_runtime_LoggerBuf_Object__get__S)
                  c08179e0    00000020     gooao_fr_c6748_pe674.oe674 (.text:xdc_runtime_Memory_HeapProxy_alloc__E)
                  c0817a00    00000020     gooao_fr_c6748_pe674.oe674 (.text:xdc_runtime_Memory_HeapProxy_free__E)
                  c0817a20    00000020     gooao_fr_c6748_pe674.oe674 (.text:xdc_runtime_Startup_exec__I)
                  c0817a40    00000020     gooao_fr_c6748_pe674.oe674 (.text:xdc_runtime_Startup_reset__I)
                  c0817a60    00000020     ti.targets.rts6000.ae674 : SysMin.oe674 (.text:xdc_runtime_SysMin_ready__F)
                  c0817a80    00000020     gooao_fr_c6748_pe674.oe674 (.text:xdc_runtime_System_Module_GateProxy_enter__E)
                  c0817aa0    00000020     gooao_fr_c6748_pe674.oe674 (.text:xdc_runtime_System_Module_GateProxy_leave__E)
                  c0817ac0    00000020     ti.targets.rts6000.ae674 : System.oe674 (.text:xdc_runtime_System_Module_startup__F)
                  c0817ae0    00000020                              : System.oe674 (.text:xdc_runtime_System_exit__F)
                  c0817b00    00000020                              : System.oe674 (.text:xdc_runtime_System_lastFxn__I)
                  c0817b20    00000020                              : System.oe674 (.text:xdc_runtime_System_vsprintf__F)
                  c0817b40    00000020     gooao_fr_c6748_pe674.oe674 (.text:xdc_runtime_Text_visitRope__I)
                  c0817b60    00000020     gooao_fr_c6748_pe674.oe674 (.text:xdc_runtime_knl_ISync_signal)
                  c0817b80    00000020     gooao_fr_c6748_pe674.oe674 (.text:xdc_runtime_knl_ISync_wait)
                  c0817ba0    00000020     gooao_fr_c6748_pe674.oe674 (.text:xdc_runtime_knl_SemThread_Params__init__S)
                  c0817bc0    00000020     gooao_fr_c6748_pe674.oe674 (.text:xdc_runtime_knl_SemThread_Proxy_Object__create__S)
                  c0817be0    00000020     gooao_fr_c6748_pe674.oe674 (.text:xdc_runtime_knl_SemThread_Proxy_Object__delete__S)
                  c0817c00    00000020     gooao_fr_c6748_pe674.oe674 (.text:xdc_runtime_knl_SemThread_Proxy_Params__init__S)
                  c0817c20    00000020     gooao_fr_c6748_pe674.oe674 (.text:xdc_runtime_knl_SemThread_Proxy_pend__E)
                  c0817c40    00000020     gooao_fr_c6748_pe674.oe674 (.text:xdc_runtime_knl_SemThread_Proxy_post__E)
                  c0817c60    00000020     ti.targets.rts6000.ae674 : SemThread.oe674 (.text:xdc_runtime_knl_SemThread_pend__F)
                  c0817c80    00000020                              : SemThread.oe674 (.text:xdc_runtime_knl_SemThread_post__F)
                  c0817ca0    00000020                              : SyncSemThread.oe674 (.text:xdc_runtime_knl_SyncSemThread_query__F)
                  c0817cc0    00000020                              : SyncSemThread.oe674 (.text:xdc_runtime_knl_SyncSemThread_signal__F)
                  c0817ce0    00000020     gooao_fr_c6748_pe674.oe674 (.text:xdc_runtime_knl_Sync_Proxy_signal__E)
                  c0817d00    00000020     gooao_fr_c6748_pe674.oe674 (.text:xdc_runtime_knl_Sync_Proxy_wait__E)

.const.2   0    c0817d20    000057fa     
                  c0817d20    0000150f     gooao_fr_c6748_pe674.oe674 (.const:xdc_runtime_Text_charTab__A)
                  c081922f    00000001     --HOLE-- [fill = 0]
                  c0819230    00001500     Upp.obj (.const:.string)
                  c081a730    00000500     sysbios.ae674 : BIOS.obj (.const:.string)
                  c081ac30    00000210     Upp_ioctl.obj (.const:.string)
                  c081ae40    00000194     nettool.ae674 : httpsend.oe674 (.const:.string)
                  c081afd4    0000014f     os.ae674 : mem.oe674 (.const:.string)
                  c081b123    00000001     --HOLE-- [fill = 0]
                  c081b124    00000130     ti.drv.omapl138.ae674 : ethdriver.oe674 (.const:.string)
                  c081b254    00000121     stk6_ppp_pppoe.ae674 : nimuppp.oe674 (.const:.string)
                  c081b375    0000010e                          : route6.oe674 (.const:.string)
                  c081b483    00000001     --HOLE-- [fill = 0]
                  c081b484    0000010c     networkmain.obj (.const:.string)
                  c081b590    00000109     os.ae674 : task.oe674 (.const:.string)
                  c081b699    00000006     stk6_ppp_pppoe.ae674 : auth.oe674 (.const:.string)
                  c081b69f    00000001     --HOLE-- [fill = 0]
                  c081b6a0    00000104     gooao_fr_c6748_pe674.oe674 (.const:xdc_runtime_Text_nodeTab__A)
                  c081b7a4    00000004     nettool.ae674 : telnetd.oe674 (.const:.string)
                  c081b7a8    00000101     rts6740_elf.lib : ctype.obj (.const:.string:_ctypes_)
                  c081b8a9    000000fa     stk6_ppp_pppoe.ae674 : bind6.oe674 (.const:.string)
                  c081b9a3    000000d9                          : vlan.oe674 (.const:.string)
                  c081ba7c    000000d8                          : node.oe674 (.const:.string)
                  c081bb54    000000d7     nettool.ae674 : httpstr.oe674 (.const:.string)
                  c081bc2b    00000001     --HOLE-- [fill = 0]
                  c081bc2c    000000d4     ti.drv.omapl138.ae674 : nimu_eth.oe674 (.const:.string)
                  c081bd00    000000d0     taskNet.obj (.const:.string)
                  c081bdd0    000000cf     stk6_ppp_pppoe.ae674 : rtc.oe674 (.const:.string)
                  c081be9f    00000001     --HOLE-- [fill = 0]
                  c081bea0    000000c0     emacHooks.obj (.const:.string)
                  c081bf60    000000bf     stk6_ppp_pppoe.ae674 : lliout.oe674 (.const:.string)
                  c081c01f    000000b7                          : icmpv6_ndisc.oe674 (.const:.string)
                  c081c0d6    00000002     --HOLE-- [fill = 0]
                  c081c0d8    000000b4     taskImageInput.obj (.const:.string)
                  c081c18c    000000b1     stk6_ppp_pppoe.ae674 : icmpv6out.oe674 (.const:.string)
                  c081c23d    000000a2                          : nimupppoe.oe674 (.const:.string)
                  c081c2df    00000099                          : lli6.oe674 (.const:.string)
                  c081c378    00000094                          : nimu.oe674 (.const:.string)
                  c081c40c    00000070     fr_main.obj (.const:.string)
                  c081c47c    00000060     stk6_ppp_pppoe.ae674 : sb.oe674 (.const:.string)
                  c081c4dc    0000005a                          : mld.oe674 (.const:.string)
                  c081c536    00000058                          : tcp6time.oe674 (.const:.string)
                  c081c58e    00000058                          : tcptime.oe674 (.const:.string)
                  c081c5e6    00000002     --HOLE-- [fill = 0]
                  c081c5e8    00000058     ti.targets.rts6000.ae674 : Error.oe674 (.const:.string)
                  c081c640    00000057     stk6_ppp_pppoe.ae674 : udp6.oe674 (.const:.string)
                  c081c697    00000001     --HOLE-- [fill = 0]
                  c081c698    00000054                          : sockprot.oe674 (.const:Code2Err)
                  c081c6ec    00000050                          : bind.oe674 (.const:.string)
                  c081c73c    0000004e                          : rtable.oe674 (.const:.string)
                  c081c78a    00000002     --HOLE-- [fill = 0]
                  c081c78c    00000048     Psc.obj (.const:.string)
                  c081c7d4    00000047     gooao_fr_c6748_pe674.oe674 (.const:.string)
                  c081c81b    00000041     nettool.ae674 : httpclie.oe674 (.const:.string)
                  c081c85c    00000041     stk6_ppp_pppoe.ae674 : sb6.oe674 (.const:.string)
                  c081c89d    00000003     rts6740_elf.lib : assert.obj (.const:.string)
                  c081c8a0    00000040     ti.targets.rts6000.ae674 : Text.oe674 (.const:.string)
                  c081c8e0    0000003e     stk6_ppp_pppoe.ae674 : ipv6.oe674 (.const:.string)
                  c081c91e    00000002     --HOLE-- [fill = 0]
                  c081c920    0000003c     gooao_fr_c6748_pe674.oe674 (.const:ti_sysbios_knl_Task_Object__PARAMS__C)
                  c081c95c    00000004     ti.targets.rts6000.ae674 : Assert.oe674 (.const:.string)
                  c081c960    0000003c     gooao_fr_c6748_pe674.oe674 (.const:xdc_runtime_Startup_sfxnTab__A)
                  c081c99c    0000003b     stk6_ppp_pppoe.ae674 : sock6pcb.oe674 (.const:.string)
                  c081c9d7    00000037     netctrl.ae674 : netctrl.oe674 (.const:.string)
                  c081ca0e    00000034     os.ae674 : intmgmt.oe674 (.const:.string)
                  c081ca42    00000031     nettool.ae674 : dhcpmain.oe674 (.const:.string)
                  c081ca73    00000031     stk6_ppp_pppoe.ae674 : pbm.oe674 (.const:.string)
                  c081caa4    00000030     gooao_fr_c6748_pe674.oe674 (.const:ti_sysbios_family_c64p_Hwi_Object__PARAMS__C)
                  c081cad4    00000004     gooao_fr_c6748_pe674.oe674 (.const:ti_sysbios_BIOS_Module__diagsEnabled__C)
                  c081cad8    00000030     gooao_fr_c6748_pe674.oe674 (.const:ti_sysbios_knl_Task_hooks__A)
                  c081cb08    0000002f     stk6_ppp_pppoe.ae674 : sock.oe674 (.const:.string)
                  c081cb37    00000001     --HOLE-- [fill = 0]
                  c081cb38    0000002c     ti.targets.rts6000.ae674 : Startup.oe674 (.const:.string)
                  c081cb64    0000002c     gooao_fr_c6748_pe674.oe674 (.const:ti_sysbios_hal_Hwi_Object__PARAMS__C)
                  c081cb90    0000002c     gooao_fr_c6748_pe674.oe674 (.const:ti_sysbios_io_GIO_Object__PARAMS__C)
                  c081cbbc    00000028     os.ae674 : semaphore.oe674 (.const:.string)
                  c081cbe4    00000028     stk6_ppp_pppoe.ae674 : icmpv6in.oe674 (.const:.string)
                  c081cc0c    00000028     gooao_fr_c6748_pe674.oe674 (.const:ti_sysbios_heaps_HeapMem_Module__FXNS__C)
                  c081cc34    00000027     stk6_ppp_pppoe.ae674 : ipv6_exthdrs.oe674 (.const:.string)
                  c081cc5b    00000001     --HOLE-- [fill = 0]
                  c081cc5c    00000024     gooao_fr_c6748_pe674.oe674 (.const:ti_sysbios_gates_GateHwi_Module__FXNS__C)
                  c081cc80    00000024     gooao_fr_c6748_pe674.oe674 (.const:ti_sysbios_gates_GateMutex_Module__FXNS__C)
                  c081cca4    00000024     gooao_fr_c6748_pe674.oe674 (.const:ti_sysbios_heaps_HeapMem_Object__PARAMS__C)
                  c081ccc8    00000024     gooao_fr_c6748_pe674.oe674 (.const:ti_sysbios_io_DEV_Object__PARAMS__C)
                  c081ccec    00000024     gooao_fr_c6748_pe674.oe674 (.const:ti_sysbios_knl_Clock_Object__PARAMS__C)
                  c081cd10    00000024     gooao_fr_c6748_pe674.oe674 (.const:ti_sysbios_knl_Semaphore_Object__PARAMS__C)
                  c081cd34    00000024     gooao_fr_c6748_pe674.oe674 (.const:xdc_runtime_knl_SyncSemThread_Module__FXNS__C)
                  c081cd58    00000023     rts6740_elf.lib : _printfi.obj (.const:.string)
                  c081cd7b    00000001     --HOLE-- [fill = 0]
                  c081cd7c    00000020     taskImageProcess.obj (.const:.string)
                  c081cd9c    00000020     ti.targets.rts6000.ae674 : Core-mem.oe674 (.const:.string)
                  c081cdbc    00000020     Upp.obj (.const)
                  c081cddc    00000020     gooao_fr_c6748_pe674.oe674 (.const:ti_sysbios_family_c64p_Hwi_Object__DESC__C)
                  c081cdfc    00000020     gooao_fr_c6748_pe674.oe674 (.const:ti_sysbios_gates_GateHwi_Object__DESC__C)
                  c081ce1c    00000020     gooao_fr_c6748_pe674.oe674 (.const:ti_sysbios_gates_GateMutex_Object__DESC__C)
                  c081ce3c    00000020     gooao_fr_c6748_pe674.oe674 (.const:ti_sysbios_hal_Hwi_Object__DESC__C)
                  c081ce5c    00000020     gooao_fr_c6748_pe674.oe674 (.const:ti_sysbios_heaps_HeapMem_Object__DESC__C)
                  c081ce7c    00000020     gooao_fr_c6748_pe674.oe674 (.const:ti_sysbios_io_DEV_Object__DESC__C)
                  c081ce9c    00000020     gooao_fr_c6748_pe674.oe674 (.const:ti_sysbios_io_GIO_Object__DESC__C)
                  c081cebc    00000020     gooao_fr_c6748_pe674.oe674 (.const:ti_sysbios_knl_Clock_Object__DESC__C)
                  c081cedc    00000020     gooao_fr_c6748_pe674.oe674 (.const:ti_sysbios_knl_Queue_Object__DESC__C)
                  c081cefc    00000020     gooao_fr_c6748_pe674.oe674 (.const:ti_sysbios_knl_Semaphore_Object__DESC__C)
                  c081cf1c    00000020     gooao_fr_c6748_pe674.oe674 (.const:ti_sysbios_knl_Task_Object__DESC__C)
                  c081cf3c    00000020     gooao_fr_c6748_pe674.oe674 (.const:ti_sysbios_xdcruntime_SemThreadSupport_Object__DESC__C)
                  c081cf5c    00000020     gooao_fr_c6748_pe674.oe674 (.const:xdc_runtime_knl_SemThread_Module__FXNS__C)
                  c081cf7c    00000020     gooao_fr_c6748_pe674.oe674 (.const:xdc_runtime_knl_SemThread_Object__DESC__C)
                  c081cf9c    00000020     gooao_fr_c6748_pe674.oe674 (.const:xdc_runtime_knl_SyncSemThread_Object__DESC__C)
                  c081cfbc    0000001e     nettool.ae674 : daemon.oe674 (.const:.string)
                  c081cfda    00000002     --HOLE-- [fill = 0]
                  c081cfdc    00000004     gooao_fr_c6748_pe674.oe674 (.const:ti_sysbios_BIOS_Module__diagsIncluded__C)
                  c081cfe0    0000001e     gooao_fr_c6748_pe674.oe674 (.const:xdc_runtime_Startup_sfxnRts__A)
                  c081cffe    0000001d     stk6_ppp_pppoe.ae674 : lli.oe674 (.const:.string)
                  c081d01b    00000001     --HOLE-- [fill = 0]
                  c081d01c    0000001c     gooao_fr_c6748_pe674.oe674 (.const:ti_sysbios_xdcruntime_SemThreadSupport_Object__PARAMS__C)
                  c081d038    0000001c     gooao_fr_c6748_pe674.oe674 (.const:xdc_runtime_knl_SemThread_Object__PARAMS__C)
                  c081d054    00000018     nettool.ae674 : config.oe674 (.const:.string)
                  c081d06c    00000018     stk6_ppp_pppoe.ae674 : exec.oe674 (.const:.string)
                  c081d084    00000018     gooao_fr_c6748_pe674.oe674 (.const:ti_sysbios_gates_GateHwi_Object__PARAMS__C)
                  c081d09c    00000018     gooao_fr_c6748_pe674.oe674 (.const:ti_sysbios_gates_GateMutex_Object__PARAMS__C)
                  c081d0b4    00000018     gooao_fr_c6748_pe674.oe674 (.const:ti_sysbios_knl_Queue_Object__PARAMS__C)
                  c081d0cc    00000018     gooao_fr_c6748_pe674.oe674 (.const:xdc_runtime_knl_SyncSemThread_Object__PARAMS__C)
                  c081d0e4    00000017     stk6_ppp_pppoe.ae674 : ipout.oe674 (.const:.string)
                  c081d0fb    00000016                          : ipv6out.oe674 (.const:.string)
                  c081d111    00000013                          : fileuser.oe674 (.const:.string)
                  c081d124    00000011                          : tcp6prot.oe674 (.const:.string)
                  c081d135    00000011                          : tcpprot.oe674 (.const:.string)
                  c081d146    00000002     --HOLE-- [fill = 0]
                  c081d148    00000011     ti.targets.rts6000.ae674 : System.oe674 (.const:digtohex)
                  c081d159    0000000e     stk6_ppp_pppoe.ae674 : timer.oe674 (.const:.string)
                  c081d167    0000000d     os.ae674 : ossys.oe674 (.const:.string)
                  c081d174    0000000c              : efs.oe674 (.const:.string)
                  c081d180    0000000c     gooao_fr_c6748_pe674.oe674 (.const:ti_sysbios_family_c64p_Cache_initSize__C)
                  c081d18c    0000000b     stk6_ppp_pppoe.ae674 : route.oe674 (.const:.string)
                  c081d197    00000001     --HOLE-- [fill = 0]
                  c081d198    00000008     ti.targets.rts6000.ae674 : System.oe674 (.const:.string)
                  c081d1a0    00000008     gooao_fr_c6748_pe674.oe674 (.const:ti_sysbios_knl_Idle_coreList__A)
                  c081d1a8    00000008     gooao_fr_c6748_pe674.oe674 (.const:ti_sysbios_knl_Idle_coreList__C)
                  c081d1b0    00000008     gooao_fr_c6748_pe674.oe674 (.const:ti_sysbios_knl_Idle_funcList__A)
                  c081d1b8    00000008     gooao_fr_c6748_pe674.oe674 (.const:ti_sysbios_knl_Idle_funcList__C)
                  c081d1c0    00000008     gooao_fr_c6748_pe674.oe674 (.const:ti_sysbios_knl_Task_hooks__C)
                  c081d1c8    00000008     gooao_fr_c6748_pe674.oe674 (.const:xdc_runtime_Startup_firstFxns__A)
                  c081d1d0    00000008     gooao_fr_c6748_pe674.oe674 (.const:xdc_runtime_Startup_firstFxns__C)
                  c081d1d8    00000008     gooao_fr_c6748_pe674.oe674 (.const:xdc_runtime_Startup_lastFxns__C)
                  c081d1e0    00000004     gooao_fr_c6748_pe674.oe674 (.const:ti_sysbios_BIOS_Module__diagsMask__C)
                  c081d1e4    00000004     gooao_fr_c6748_pe674.oe674 (.const:ti_sysbios_BIOS_installedErrorHook__C)
                  c081d1e8    00000004     gooao_fr_c6748_pe674.oe674 (.const:ti_sysbios_family_c62_TaskSupport_stackAlignment__C)
                  c081d1ec    00000004     gooao_fr_c6748_pe674.oe674 (.const:ti_sysbios_family_c64p_Cache_EMIFA_BASE__C)
                  c081d1f0    00000004     gooao_fr_c6748_pe674.oe674 (.const:ti_sysbios_family_c64p_Cache_EMIFA_CFG__C)
                  c081d1f4    00000004     gooao_fr_c6748_pe674.oe674 (.const:ti_sysbios_family_c64p_Cache_EMIFA_LENGTH__C)
                  c081d1f8    00000004     gooao_fr_c6748_pe674.oe674 (.const:ti_sysbios_family_c64p_Cache_EMIFB_BASE__C)
                  c081d1fc    00000004     gooao_fr_c6748_pe674.oe674 (.const:ti_sysbios_family_c64p_Cache_EMIFB_CFG__C)
                  c081d200    00000004     gooao_fr_c6748_pe674.oe674 (.const:ti_sysbios_family_c64p_Cache_EMIFB_LENGTH__C)
                  c081d204    00000004     gooao_fr_c6748_pe674.oe674 (.const:ti_sysbios_family_c64p_Cache_EMIFC_BASE__C)
                  c081d208    00000004     gooao_fr_c6748_pe674.oe674 (.const:ti_sysbios_family_c64p_Cache_EMIFC_CFG__C)
                  c081d20c    00000004     gooao_fr_c6748_pe674.oe674 (.const:ti_sysbios_family_c64p_Cache_EMIFC_LENGTH__C)
                  c081d210    00000004     gooao_fr_c6748_pe674.oe674 (.const:ti_sysbios_family_c64p_Cache_MAR0_31__C)
                  c081d214    00000004     gooao_fr_c6748_pe674.oe674 (.const:ti_sysbios_family_c64p_Cache_MAR128_159__C)
                  c081d218    00000004     gooao_fr_c6748_pe674.oe674 (.const:ti_sysbios_family_c64p_Cache_MAR160_191__C)
                  c081d21c    00000004     gooao_fr_c6748_pe674.oe674 (.const:ti_sysbios_family_c64p_Cache_MAR192_223__C)
                  c081d220    00000004     gooao_fr_c6748_pe674.oe674 (.const:ti_sysbios_family_c64p_Cache_MAR224_255__C)
                  c081d224    00000004     gooao_fr_c6748_pe674.oe674 (.const:ti_sysbios_family_c64p_Cache_MAR32_63__C)
                  c081d228    00000004     gooao_fr_c6748_pe674.oe674 (.const:ti_sysbios_family_c64p_Cache_MAR64_95__C)
                  c081d22c    00000004     gooao_fr_c6748_pe674.oe674 (.const:ti_sysbios_family_c64p_Cache_MAR96_127__C)
                  c081d230    00000004     gooao_fr_c6748_pe674.oe674 (.const:ti_sysbios_family_c64p_EventCombiner_E_unpluggedEvent__C)
                  c081d234    00000004     gooao_fr_c6748_pe674.oe674 (.const:ti_sysbios_family_c64p_Exception_E_exceptionMin__C)
                  c081d238    00000004     gooao_fr_c6748_pe674.oe674 (.const:ti_sysbios_family_c64p_Exception_exceptionHook__C)
                  c081d23c    00000004     gooao_fr_c6748_pe674.oe674 (.const:ti_sysbios_family_c64p_Exception_externalHook__C)
                  c081d240    00000004     gooao_fr_c6748_pe674.oe674 (.const:ti_sysbios_family_c64p_Exception_internalHook__C)
                  c081d244    00000004     gooao_fr_c6748_pe674.oe674 (.const:ti_sysbios_family_c64p_Exception_nmiHook__C)
                  c081d248    00000004     gooao_fr_c6748_pe674.oe674 (.const:ti_sysbios_family_c64p_Hwi_E_alreadyDefined__C)
                  c081d24c    00000004     gooao_fr_c6748_pe674.oe674 (.const:ti_sysbios_family_c64p_Hwi_E_handleNotFound__C)
                  c081d250    00000004     gooao_fr_c6748_pe674.oe674 (.const:ti_sysbios_family_c64p_Hwi_LD_end__C)
                  c081d254    00000004     gooao_fr_c6748_pe674.oe674 (.const:ti_sysbios_family_c64p_Hwi_LM_begin__C)
                  c081d258    00000004     gooao_fr_c6748_pe674.oe674 (.const:ti_sysbios_family_c64p_Hwi_Module__diagsEnabled__C)
                  c081d25c    00000004     gooao_fr_c6748_pe674.oe674 (.const:ti_sysbios_family_c64p_Hwi_Module__diagsIncluded__C)
                  c081d260    00000004     gooao_fr_c6748_pe674.oe674 (.const:ti_sysbios_family_c64p_Hwi_Module__diagsMask__C)
                  c081d264    00000004     gooao_fr_c6748_pe674.oe674 (.const:ti_sysbios_family_c64p_Hwi_Module__loggerFxn1__C)
                  c081d268    00000004     gooao_fr_c6748_pe674.oe674 (.const:ti_sysbios_family_c64p_Hwi_Module__loggerFxn8__C)
                  c081d26c    00000004     gooao_fr_c6748_pe674.oe674 (.const:ti_sysbios_family_c64p_Hwi_Module__loggerObj__C)
                  c081d270    00000004     gooao_fr_c6748_pe674.oe674 (.const:ti_sysbios_gates_GateMutex_A_badContext__C)
                  c081d274    00000004     gooao_fr_c6748_pe674.oe674 (.const:ti_sysbios_gates_GateMutex_Instance_State_sem__O)
                  c081d278    00000004     gooao_fr_c6748_pe674.oe674 (.const:ti_sysbios_gates_GateMutex_Module__diagsEnabled__C)
                  c081d27c    00000004     gooao_fr_c6748_pe674.oe674 (.const:ti_sysbios_gates_GateMutex_Module__diagsIncluded__C)
                  c081d280    00000004     gooao_fr_c6748_pe674.oe674 (.const:ti_sysbios_gates_GateMutex_Module__diagsMask__C)
                  c081d284    00000004     gooao_fr_c6748_pe674.oe674 (.const:ti_sysbios_hal_Hwi_E_stackOverflow__C)
                  c081d288    00000004     gooao_fr_c6748_pe674.oe674 (.const:ti_sysbios_heaps_HeapMem_A_align__C)
                  c081d28c    00000004     gooao_fr_c6748_pe674.oe674 (.const:ti_sysbios_heaps_HeapMem_A_heapSize__C)
                  c081d290    00000004     gooao_fr_c6748_pe674.oe674 (.const:ti_sysbios_heaps_HeapMem_A_invalidFree__C)
                  c081d294    00000004     gooao_fr_c6748_pe674.oe674 (.const:ti_sysbios_heaps_HeapMem_A_zeroBlock__C)
                  c081d298    00000004     gooao_fr_c6748_pe674.oe674 (.const:ti_sysbios_heaps_HeapMem_E_memory__C)
                  c081d29c    00000004     gooao_fr_c6748_pe674.oe674 (.const:ti_sysbios_heaps_HeapMem_Module__diagsEnabled__C)
                  c081d2a0    00000004     gooao_fr_c6748_pe674.oe674 (.const:ti_sysbios_heaps_HeapMem_Module__diagsIncluded__C)
                  c081d2a4    00000004     gooao_fr_c6748_pe674.oe674 (.const:ti_sysbios_heaps_HeapMem_Module__diagsMask__C)
                  c081d2a8    00000004     gooao_fr_c6748_pe674.oe674 (.const:ti_sysbios_heaps_HeapMem_Module__gateObj__C)
                  c081d2ac    00000004     gooao_fr_c6748_pe674.oe674 (.const:ti_sysbios_heaps_HeapMem_Object__count__C)
                  c081d2b0    00000004     gooao_fr_c6748_pe674.oe674 (.const:ti_sysbios_heaps_HeapMem_reqAlign__C)
                  c081d2b4    00000004     gooao_fr_c6748_pe674.oe674 (.const:ti_sysbios_io_DEV_Object__count__C)
                  c081d2b8    00000004     gooao_fr_c6748_pe674.oe674 (.const:ti_sysbios_io_DEV_tableSize__C)
                  c081d2bc    00000004     gooao_fr_c6748_pe674.oe674 (.const:ti_sysbios_io_GIO_A_badModel__C)
                  c081d2c0    00000004     gooao_fr_c6748_pe674.oe674 (.const:ti_sysbios_io_GIO_E_createFailed__C)
                  c081d2c4    00000004     gooao_fr_c6748_pe674.oe674 (.const:ti_sysbios_io_GIO_E_notFound__C)
                  c081d2c8    00000004     gooao_fr_c6748_pe674.oe674 (.const:ti_sysbios_io_GIO_Instance_State_doneList__O)
                  c081d2cc    00000004     gooao_fr_c6748_pe674.oe674 (.const:ti_sysbios_io_GIO_Instance_State_freeList__O)
                  c081d2d0    00000004     gooao_fr_c6748_pe674.oe674 (.const:ti_sysbios_io_GIO_Module__diagsEnabled__C)
                  c081d2d4    00000004     gooao_fr_c6748_pe674.oe674 (.const:ti_sysbios_io_GIO_Module__diagsIncluded__C)
                  c081d2d8    00000004     gooao_fr_c6748_pe674.oe674 (.const:ti_sysbios_io_GIO_Module__diagsMask__C)
                  c081d2dc    00000004     gooao_fr_c6748_pe674.oe674 (.const:ti_sysbios_knl_Clock_A_badThreadType__C)
                  c081d2e0    00000004     gooao_fr_c6748_pe674.oe674 (.const:ti_sysbios_knl_Clock_LM_begin__C)
                  c081d2e4    00000004     gooao_fr_c6748_pe674.oe674 (.const:ti_sysbios_knl_Clock_LM_tick__C)
                  c081d2e8    00000004     gooao_fr_c6748_pe674.oe674 (.const:ti_sysbios_knl_Clock_LW_delayed__C)
                  c081d2ec    00000004     gooao_fr_c6748_pe674.oe674 (.const:ti_sysbios_knl_Clock_Module_State_clockQ__O)
                  c081d2f0    00000004     gooao_fr_c6748_pe674.oe674 (.const:ti_sysbios_knl_Clock_Module__diagsEnabled__C)
                  c081d2f4    00000004     gooao_fr_c6748_pe674.oe674 (.const:ti_sysbios_knl_Clock_Module__diagsIncluded__C)
                  c081d2f8    00000004     gooao_fr_c6748_pe674.oe674 (.const:ti_sysbios_knl_Clock_Module__diagsMask__C)
                  c081d2fc    00000004     gooao_fr_c6748_pe674.oe674 (.const:ti_sysbios_knl_Clock_Module__loggerFxn1__C)
                  c081d300    00000004     gooao_fr_c6748_pe674.oe674 (.const:ti_sysbios_knl_Clock_Module__loggerFxn2__C)
                  c081d304    00000004     gooao_fr_c6748_pe674.oe674 (.const:ti_sysbios_knl_Clock_Module__loggerObj__C)
                  c081d308    00000004     gooao_fr_c6748_pe674.oe674 (.const:ti_sysbios_knl_Clock_tickMode__C)
                  c081d30c    00000004     gooao_fr_c6748_pe674.oe674 (.const:ti_sysbios_knl_Clock_tickPeriod__C)
                  c081d310    00000004     gooao_fr_c6748_pe674.oe674 (.const:ti_sysbios_knl_Clock_tickSource__C)
                  c081d314    00000004     gooao_fr_c6748_pe674.oe674 (.const:ti_sysbios_knl_Semaphore_A_badContext__C)
                  c081d318    00000004     gooao_fr_c6748_pe674.oe674 (.const:ti_sysbios_knl_Semaphore_A_noEvents__C)
                  c081d31c    00000004     gooao_fr_c6748_pe674.oe674 (.const:ti_sysbios_knl_Semaphore_A_overflow__C)
                  c081d320    00000004     gooao_fr_c6748_pe674.oe674 (.const:ti_sysbios_knl_Semaphore_Instance_State_pendQ__O)
                  c081d324    00000004     gooao_fr_c6748_pe674.oe674 (.const:ti_sysbios_knl_Semaphore_LM_pend__C)
                  c081d328    00000004     gooao_fr_c6748_pe674.oe674 (.const:ti_sysbios_knl_Semaphore_LM_post__C)
                  c081d32c    00000004     gooao_fr_c6748_pe674.oe674 (.const:ti_sysbios_knl_Semaphore_Module__diagsEnabled__C)
                  c081d330    00000004     gooao_fr_c6748_pe674.oe674 (.const:ti_sysbios_knl_Semaphore_Module__diagsIncluded__C)
                  c081d334    00000004     gooao_fr_c6748_pe674.oe674 (.const:ti_sysbios_knl_Semaphore_Module__diagsMask__C)
                  c081d338    00000004     gooao_fr_c6748_pe674.oe674 (.const:ti_sysbios_knl_Semaphore_Module__loggerFxn2__C)
                  c081d33c    00000004     gooao_fr_c6748_pe674.oe674 (.const:ti_sysbios_knl_Semaphore_Module__loggerFxn4__C)
                  c081d340    00000004     gooao_fr_c6748_pe674.oe674 (.const:ti_sysbios_knl_Semaphore_Module__loggerObj__C)
                  c081d344    00000004     gooao_fr_c6748_pe674.oe674 (.const:ti_sysbios_knl_Swi_LD_end__C)
                  c081d348    00000004     gooao_fr_c6748_pe674.oe674 (.const:ti_sysbios_knl_Swi_LM_begin__C)
                  c081d34c    00000004     gooao_fr_c6748_pe674.oe674 (.const:ti_sysbios_knl_Swi_LM_post__C)
                  c081d350    00000004     gooao_fr_c6748_pe674.oe674 (.const:ti_sysbios_knl_Swi_Module__diagsEnabled__C)
                  c081d354    00000004     gooao_fr_c6748_pe674.oe674 (.const:ti_sysbios_knl_Swi_Module__diagsIncluded__C)
                  c081d358    00000004     gooao_fr_c6748_pe674.oe674 (.const:ti_sysbios_knl_Swi_Module__diagsMask__C)
                  c081d35c    00000004     gooao_fr_c6748_pe674.oe674 (.const:ti_sysbios_knl_Swi_Module__loggerFxn1__C)
                  c081d360    00000004     gooao_fr_c6748_pe674.oe674 (.const:ti_sysbios_knl_Swi_Module__loggerFxn4__C)
                  c081d364    00000004     gooao_fr_c6748_pe674.oe674 (.const:ti_sysbios_knl_Swi_Module__loggerObj__C)
                  c081d368    00000004     gooao_fr_c6748_pe674.oe674 (.const:ti_sysbios_knl_Swi_Object__count__C)
                  c081d36c    00000004     gooao_fr_c6748_pe674.oe674 (.const:ti_sysbios_knl_Task_A_badPriority__C)
                  c081d370    00000004     gooao_fr_c6748_pe674.oe674 (.const:ti_sysbios_knl_Task_A_badTaskState__C)
                  c081d374    00000004     gooao_fr_c6748_pe674.oe674 (.const:ti_sysbios_knl_Task_A_badThreadType__C)
                  c081d378    00000004     gooao_fr_c6748_pe674.oe674 (.const:ti_sysbios_knl_Task_A_badTimeout__C)
                  c081d37c    00000004     gooao_fr_c6748_pe674.oe674 (.const:ti_sysbios_knl_Task_A_noPendElem__C)
                  c081d380    00000004     gooao_fr_c6748_pe674.oe674 (.const:ti_sysbios_knl_Task_E_deleteNotAllowed__C)
                  c081d384    00000004     gooao_fr_c6748_pe674.oe674 (.const:ti_sysbios_knl_Task_E_spOutOfBounds__C)
                  c081d388    00000004     gooao_fr_c6748_pe674.oe674 (.const:ti_sysbios_knl_Task_E_stackOverflow__C)
                  c081d38c    00000004     gooao_fr_c6748_pe674.oe674 (.const:ti_sysbios_knl_Task_LD_block__C)
                  c081d390    00000004     gooao_fr_c6748_pe674.oe674 (.const:ti_sysbios_knl_Task_LD_exit__C)
                  c081d394    00000004     gooao_fr_c6748_pe674.oe674 (.const:ti_sysbios_knl_Task_LD_ready__C)
                  c081d398    00000004     gooao_fr_c6748_pe674.oe674 (.const:ti_sysbios_knl_Task_LM_setPri__C)
                  c081d39c    00000004     gooao_fr_c6748_pe674.oe674 (.const:ti_sysbios_knl_Task_LM_sleep__C)
                  c081d3a0    00000004     gooao_fr_c6748_pe674.oe674 (.const:ti_sysbios_knl_Task_LM_switch__C)
                  c081d3a4    00000004     gooao_fr_c6748_pe674.oe674 (.const:ti_sysbios_knl_Task_Module_State_inactiveQ__O)
                  c081d3a8    00000004     gooao_fr_c6748_pe674.oe674 (.const:ti_sysbios_knl_Task_Module_State_terminatedQ__O)
                  c081d3ac    00000004     gooao_fr_c6748_pe674.oe674 (.const:ti_sysbios_knl_Task_Module__diagsEnabled__C)
                  c081d3b0    00000004     gooao_fr_c6748_pe674.oe674 (.const:ti_sysbios_knl_Task_Module__diagsIncluded__C)
                  c081d3b4    00000004     gooao_fr_c6748_pe674.oe674 (.const:ti_sysbios_knl_Task_Module__diagsMask__C)
                  c081d3b8    00000004     gooao_fr_c6748_pe674.oe674 (.const:ti_sysbios_knl_Task_Module__loggerFxn2__C)
                  c081d3bc    00000004     gooao_fr_c6748_pe674.oe674 (.const:ti_sysbios_knl_Task_Module__loggerFxn4__C)
                  c081d3c0    00000004     gooao_fr_c6748_pe674.oe674 (.const:ti_sysbios_knl_Task_Module__loggerObj__C)
                  c081d3c4    00000004     gooao_fr_c6748_pe674.oe674 (.const:ti_sysbios_knl_Task_Object__count__C)
                  c081d3c8    00000004     gooao_fr_c6748_pe674.oe674 (.const:ti_sysbios_knl_Task_Object__heap__C)
                  c081d3cc    00000004     gooao_fr_c6748_pe674.oe674 (.const:ti_sysbios_knl_Task_allBlockedFunc__C)
                  c081d3d0    00000004     gooao_fr_c6748_pe674.oe674 (.const:ti_sysbios_knl_Task_defaultStackHeap__C)
                  c081d3d4    00000004     gooao_fr_c6748_pe674.oe674 (.const:ti_sysbios_knl_Task_defaultStackSize__C)
                  c081d3d8    00000004     gooao_fr_c6748_pe674.oe674 (.const:ti_sysbios_knl_Task_numConstructedTasks__C)
                  c081d3dc    00000004     gooao_fr_c6748_pe674.oe674 (.const:ti_sysbios_knl_Task_numPriorities__C)
                  c081d3e0    00000004     gooao_fr_c6748_pe674.oe674 (.const:ti_sysbios_timers_timer64_Timer_A_notAvailable__C)
                  c081d3e4    00000004     gooao_fr_c6748_pe674.oe674 (.const:ti_sysbios_timers_timer64_Timer_E_cannotSupport__C)
                  c081d3e8    00000004     gooao_fr_c6748_pe674.oe674 (.const:ti_sysbios_timers_timer64_Timer_Module__diagsEnabled__C)
                  c081d3ec    00000004     gooao_fr_c6748_pe674.oe674 (.const:ti_sysbios_timers_timer64_Timer_Module__diagsIncluded__C)
                  c081d3f0    00000004     gooao_fr_c6748_pe674.oe674 (.const:ti_sysbios_timers_timer64_Timer_Module__diagsMask__C)
                  c081d3f4    00000004     gooao_fr_c6748_pe674.oe674 (.const:ti_sysbios_timers_timer64_Timer_anyMask__C)
                  c081d3f8    00000004     gooao_fr_c6748_pe674.oe674 (.const:ti_sysbios_timers_timer64_Timer_freqDivisor__C)
                  c081d3fc    00000004     gooao_fr_c6748_pe674.oe674 (.const:ti_sysbios_timers_timer64_Timer_numLocalTimers__C)
                  c081d400    00000004     gooao_fr_c6748_pe674.oe674 (.const:ti_sysbios_timers_timer64_Timer_numTimerDevices__C)
                  c081d404    00000004     gooao_fr_c6748_pe674.oe674 (.const:ti_sysbios_xdcruntime_SemThreadSupport_Instance_State_sem__O)
                  c081d408    00000004     gooao_fr_c6748_pe674.oe674 (.const:xdc_runtime_Assert_E_assertFailed__C)
                  c081d40c    00000004     gooao_fr_c6748_pe674.oe674 (.const:xdc_runtime_Core_A_initializedParams__C)
                  c081d410    00000004     gooao_fr_c6748_pe674.oe674 (.const:xdc_runtime_Core_Module__diagsEnabled__C)
                  c081d414    00000004     gooao_fr_c6748_pe674.oe674 (.const:xdc_runtime_Core_Module__diagsIncluded__C)
                  c081d418    00000004     gooao_fr_c6748_pe674.oe674 (.const:xdc_runtime_Core_Module__diagsMask__C)
                  c081d41c    00000004     gooao_fr_c6748_pe674.oe674 (.const:xdc_runtime_Error_E_generic__C)
                  c081d420    00000004     gooao_fr_c6748_pe674.oe674 (.const:xdc_runtime_Error_E_memory__C)
                  c081d424    00000004     gooao_fr_c6748_pe674.oe674 (.const:xdc_runtime_Error_Module__diagsEnabled__C)
                  c081d428    00000004     gooao_fr_c6748_pe674.oe674 (.const:xdc_runtime_Error_Module__diagsIncluded__C)
                  c081d42c    00000004     gooao_fr_c6748_pe674.oe674 (.const:xdc_runtime_Error_Module__diagsMask__C)
                  c081d430    00000004     gooao_fr_c6748_pe674.oe674 (.const:xdc_runtime_Error_Module__loggerFxn8__C)
                  c081d434    00000004     gooao_fr_c6748_pe674.oe674 (.const:xdc_runtime_Error_Module__loggerObj__C)
                  c081d438    00000004     gooao_fr_c6748_pe674.oe674 (.const:xdc_runtime_Error_policy__C)
                  c081d43c    00000004     gooao_fr_c6748_pe674.oe674 (.const:xdc_runtime_Error_raiseHook__C)
                  c081d440    00000004     gooao_fr_c6748_pe674.oe674 (.const:xdc_runtime_IGateProvider_Interface__BASE__C)
                  c081d444    00000004     gooao_fr_c6748_pe674.oe674 (.const:xdc_runtime_IHeap_Interface__BASE__C)
                  c081d448    00000004     gooao_fr_c6748_pe674.oe674 (.const:xdc_runtime_IModule_Interface__BASE__C)
                  c081d44c    00000004     gooao_fr_c6748_pe674.oe674 (.const:xdc_runtime_Log_L_error__C)
                  c081d450    00000004     gooao_fr_c6748_pe674.oe674 (.const:xdc_runtime_LoggerBuf_Object__count__C)
                  c081d454    00000004     gooao_fr_c6748_pe674.oe674 (.const:xdc_runtime_Memory_defaultHeapInstance__C)
                  c081d458    00000004     gooao_fr_c6748_pe674.oe674 (.const:xdc_runtime_Startup_execImpl__C)
                  c081d45c    00000004     gooao_fr_c6748_pe674.oe674 (.const:xdc_runtime_Startup_maxPasses__C)
                  c081d460    00000004     gooao_fr_c6748_pe674.oe674 (.const:xdc_runtime_Startup_lastFxns__A)
                  c081d464    00000004     gooao_fr_c6748_pe674.oe674 (.const:xdc_runtime_Startup_sfxnRts__C)
                  c081d468    00000004     gooao_fr_c6748_pe674.oe674 (.const:xdc_runtime_Startup_sfxnTab__C)
                  c081d46c    00000004     gooao_fr_c6748_pe674.oe674 (.const:xdc_runtime_SysMin_bufSize__C)
                  c081d470    00000004     gooao_fr_c6748_pe674.oe674 (.const:xdc_runtime_SysMin_outputFunc__C)
                  c081d474    00000004     gooao_fr_c6748_pe674.oe674 (.const:xdc_runtime_System_Module__gateObj__C)
                  c081d478    00000004     gooao_fr_c6748_pe674.oe674 (.const:xdc_runtime_System_extendFxn__C)
                  c081d47c    00000004     gooao_fr_c6748_pe674.oe674 (.const:xdc_runtime_System_maxAtexitHandlers__C)
                  c081d480    00000004     gooao_fr_c6748_pe674.oe674 (.const:xdc_runtime_Text_charTab__C)
                  c081d484    00000004     gooao_fr_c6748_pe674.oe674 (.const:xdc_runtime_Text_nameEmpty__C)
                  c081d488    00000004     gooao_fr_c6748_pe674.oe674 (.const:xdc_runtime_Text_nameStatic__C)
                  c081d48c    00000004     gooao_fr_c6748_pe674.oe674 (.const:xdc_runtime_Text_nameUnknown__C)
                  c081d490    00000004     gooao_fr_c6748_pe674.oe674 (.const:xdc_runtime_Text_nodeTab__C)
                  c081d494    00000004     gooao_fr_c6748_pe674.oe674 (.const:xdc_runtime_Text_visitRopeFxn__C)
                  c081d498    00000004     gooao_fr_c6748_pe674.oe674 (.const:xdc_runtime_knl_ISemaphore_Interface__BASE__C)
                  c081d49c    00000004     gooao_fr_c6748_pe674.oe674 (.const:xdc_runtime_knl_ISync_Interface__BASE__C)
                  c081d4a0    00000002     gooao_fr_c6748_pe674.oe674 (.const:ti_sysbios_BIOS_Module__id__C)
                  c081d4a2    00000002     --HOLE-- [fill = 0]
                  c081d4a4    00000002     gooao_fr_c6748_pe674.oe674 (.const:ti_sysbios_family_c64p_EventCombiner_Module__id__C)
                  c081d4a6    00000002     --HOLE-- [fill = 0]
                  c081d4a8    00000002     gooao_fr_c6748_pe674.oe674 (.const:ti_sysbios_family_c64p_Exception_Module__id__C)
                  c081d4aa    00000002     --HOLE-- [fill = 0]
                  c081d4ac    00000002     gooao_fr_c6748_pe674.oe674 (.const:ti_sysbios_family_c64p_Hwi_Module__id__C)
                  c081d4ae    00000002     --HOLE-- [fill = 0]
                  c081d4b0    00000002     gooao_fr_c6748_pe674.oe674 (.const:ti_sysbios_family_c64p_Hwi_Module__loggerDefined__C)
                  c081d4b2    00000002     --HOLE-- [fill = 0]
                  c081d4b4    00000002     gooao_fr_c6748_pe674.oe674 (.const:ti_sysbios_gates_GateMutex_Module__id__C)
                  c081d4b6    00000002     --HOLE-- [fill = 0]
                  c081d4b8    00000002     gooao_fr_c6748_pe674.oe674 (.const:ti_sysbios_hal_Hwi_Module__id__C)
                  c081d4ba    00000002     --HOLE-- [fill = 0]
                  c081d4bc    00000002     gooao_fr_c6748_pe674.oe674 (.const:ti_sysbios_heaps_HeapMem_Module__id__C)
                  c081d4be    00000002     --HOLE-- [fill = 0]
                  c081d4c0    00000002     gooao_fr_c6748_pe674.oe674 (.const:ti_sysbios_io_DEV_Module__id__C)
                  c081d4c2    00000002     --HOLE-- [fill = 0]
                  c081d4c4    00000002     gooao_fr_c6748_pe674.oe674 (.const:ti_sysbios_io_GIO_Module__id__C)
                  c081d4c6    00000002     --HOLE-- [fill = 0]
                  c081d4c8    00000002     gooao_fr_c6748_pe674.oe674 (.const:ti_sysbios_knl_Clock_Module__id__C)
                  c081d4ca    00000002     --HOLE-- [fill = 0]
                  c081d4cc    00000002     gooao_fr_c6748_pe674.oe674 (.const:ti_sysbios_knl_Clock_Module__loggerDefined__C)
                  c081d4ce    00000002     --HOLE-- [fill = 0]
                  c081d4d0    00000002     gooao_fr_c6748_pe674.oe674 (.const:ti_sysbios_knl_Semaphore_Module__id__C)
                  c081d4d2    00000002     --HOLE-- [fill = 0]
                  c081d4d4    00000002     gooao_fr_c6748_pe674.oe674 (.const:ti_sysbios_knl_Semaphore_Module__loggerDefined__C)
                  c081d4d6    00000002     --HOLE-- [fill = 0]
                  c081d4d8    00000002     gooao_fr_c6748_pe674.oe674 (.const:ti_sysbios_knl_Swi_Module__id__C)
                  c081d4da    00000002     --HOLE-- [fill = 0]
                  c081d4dc    00000002     gooao_fr_c6748_pe674.oe674 (.const:ti_sysbios_knl_Swi_Module__loggerDefined__C)
                  c081d4de    00000002     --HOLE-- [fill = 0]
                  c081d4e0    00000002     gooao_fr_c6748_pe674.oe674 (.const:ti_sysbios_knl_Task_Module__id__C)
                  c081d4e2    00000002     --HOLE-- [fill = 0]
                  c081d4e4    00000002     gooao_fr_c6748_pe674.oe674 (.const:ti_sysbios_knl_Task_Module__loggerDefined__C)
                  c081d4e6    00000002     --HOLE-- [fill = 0]
                  c081d4e8    00000002     gooao_fr_c6748_pe674.oe674 (.const:ti_sysbios_knl_Task_deleteTerminatedTasks__C)
                  c081d4ea    00000002     --HOLE-- [fill = 0]
                  c081d4ec    00000002     gooao_fr_c6748_pe674.oe674 (.const:ti_sysbios_knl_Task_initStackFlag__C)
                  c081d4ee    00000002     --HOLE-- [fill = 0]
                  c081d4f0    00000002     gooao_fr_c6748_pe674.oe674 (.const:ti_sysbios_timers_timer64_Timer_Module__id__C)
                  c081d4f2    00000002     --HOLE-- [fill = 0]
                  c081d4f4    00000002     gooao_fr_c6748_pe674.oe674 (.const:ti_sysbios_timers_timer64_Timer_startupNeeded__C)
                  c081d4f6    00000002     --HOLE-- [fill = 0]
                  c081d4f8    00000002     gooao_fr_c6748_pe674.oe674 (.const:xdc_runtime_Core_Module__id__C)
                  c081d4fa    00000002     --HOLE-- [fill = 0]
                  c081d4fc    00000002     gooao_fr_c6748_pe674.oe674 (.const:xdc_runtime_Error_Module__loggerDefined__C)
                  c081d4fe    00000002     --HOLE-- [fill = 0]
                  c081d500    00000002     gooao_fr_c6748_pe674.oe674 (.const:xdc_runtime_Error_maxDepth__C)
                  c081d502    00000002     --HOLE-- [fill = 0]
                  c081d504    00000002     gooao_fr_c6748_pe674.oe674 (.const:xdc_runtime_Memory_Module__id__C)
                  c081d506    00000002     --HOLE-- [fill = 0]
                  c081d508    00000002     gooao_fr_c6748_pe674.oe674 (.const:xdc_runtime_SysMin_flushAtExit__C)
                  c081d50a    00000002     --HOLE-- [fill = 0]
                  c081d50c    00000002     gooao_fr_c6748_pe674.oe674 (.const:xdc_runtime_Text_charCnt__C)
                  c081d50e    00000002     --HOLE-- [fill = 0]
                  c081d510    00000002     gooao_fr_c6748_pe674.oe674 (.const:xdc_runtime_Text_isLoaded__C)
                  c081d512    00000002     --HOLE-- [fill = 0]
                  c081d514    00000002     gooao_fr_c6748_pe674.oe674 (.const:xdc_runtime_Text_registryModsLastId__C)
                  c081d516    00000002     --HOLE-- [fill = 0]
                  c081d518    00000002     gooao_fr_c6748_pe674.oe674 (.const:xdc_runtime_Text_unnamedModsLastId__C)

.fardata   0    c081d520    000013c4     
                  c081d520    0000063c     gooao_fr_c6748_pe674.oe674 (.fardata)
                  c081db5c    00000004     rts6740_elf.lib : defs.obj (.fardata)
                  c081db60    000001e0                     : defs.obj (.fardata:_ftable)
                  c081dd40    0000017c     gooao_fr_c6748_pe674.oe674 (.fardata:ti_sysbios_knl_Task_Object__table__V)
                  c081debc    000000fc     taskImageInput.obj (.fardata)
                  c081dfb8    000000b4     stk6_ppp_pppoe.ae674 : exec.oe674 (.fardata)
                  c081e06c    00000004     rts6740_elf.lib : dtor_list.obj (.fardata)
                  c081e070    000000a0                     : lowlev.obj (.fardata:_stream)
                  c081e110    00000080     gooao_fr_c6748_pe674.oe674 (.fardata:ti_sysbios_knl_Swi_Module_State_0_readyQ__A)
                  c081e190    00000080     gooao_fr_c6748_pe674.oe674 (.fardata:ti_sysbios_knl_Task_Module_State_0_readyQ__A)
                  c081e210    00000078     rts6740_elf.lib : lowlev.obj (.fardata:_device)
                  c081e288    00000078     gooao_fr_c6748_pe674.oe674 (.fardata:ti_sysbios_family_c64p_Hwi_Object__table__V)
                  c081e300    00000060     gooao_fr_c6748_pe674.oe674 (.fardata:ti_sysbios_timers_timer64_Timer_Module_State_0_device__A)
                  c081e360    00000050     stk6_ppp_pppoe.ae674 : exec.oe674 (.fardata:tasks)
                  c081e3b0    0000004d     nettool.ae674 : dhcptags.oe674 (.fardata:DHCPTypeCode)
                  c081e3fd    00000003     --HOLE--
                  c081e400    0000004c     gooao_fr_c6748_pe674.oe674 (.fardata:ti_sysbios_timers_timer64_Timer_Object__table__V)
                  c081e44c    00000004     --HOLE--
                  c081e450    00000040     HT82V46A.obj (.fardata:ADCPAR_Reset)
                  c081e490    00000040     netctrl.ae674 : netsrv.oe674 (.fardata:CloseOrder)
                  c081e4d0    00000040                   : netsrv.oe674 (.fardata:OpenOrder)
                  c081e510    00000040     stk6_ppp_pppoe.ae674 : md5.oe674 (.fardata:PADDING)
                  c081e550    00000040     nettool.ae674 : httpsend.oe674 (.fardata:codestr)
                  c081e590    00000040     os.ae674 : intmgmt.oe674 (.fardata:hwiTable)
                  c081e5d0    00000040     gooao_fr_c6748_pe674.oe674 (.fardata:ti_sysbios_gates_GateMutex_Object__table__V)
                  c081e610    00000034     stk6_ppp_pppoe.ae674 : tcp6time.oe674 (.fardata:tcp_backoff)
                  c081e644    00000004     --HOLE--
                  c081e648    00000034                          : tcptime.oe674 (.fardata:tcp_backoff)
                  c081e67c    00000004     --HOLE--
                  c081e680    00000030     gooao_fr_c6748_pe674.oe674 (.fardata:ti_sysbios_knl_Swi_Object__table__V)
                  c081e6b0    00000024     os.ae674 : ossys.oe674 (.fardata)
                  c081e6d4    00000004     --HOLE--
                  c081e6d8    00000020     stk6_ppp_pppoe.ae674 : rtc.oe674 (.fardata:pstrMsgName)
                  c081e6f8    00000020     gooao_fr_c6748_pe674.oe674 (.fardata:ti_sysbios_io_DEV_Module_State_0_table__A)
                  c081e718    00000020     gooao_fr_c6748_pe674.oe674 (.fardata:ti_sysbios_timers_timer64_Timer_Module_State_0_gctrl__A)
                  c081e738    00000020     gooao_fr_c6748_pe674.oe674 (.fardata:ti_sysbios_timers_timer64_Timer_Module_State_0_handles__A)
                  c081e758    00000020     gooao_fr_c6748_pe674.oe674 (.fardata:ti_sysbios_timers_timer64_Timer_Module_State_0_intFreqs__A)
                  c081e778    00000020     gooao_fr_c6748_pe674.oe674 (.fardata:xdc_runtime_System_Module_State_0_atexitHandlers__A)
                  c081e798    0000001c     Upp.obj (.fardata)
                  c081e7b4    00000004     --HOLE--
                  c081e7b8    0000001c     os.ae674 : mem_data.oe674 (.fardata:ti_ndk_config_Global_Id2Size)
                  c081e7d4    00000004     --HOLE--
                  c081e7d8    00000018     ti.drv.omapl138.ae674 : csl_mdio.oe674 (.fardata:PhyStateTimeout)
                  c081e7f0    00000018     gooao_fr_c6748_pe674.oe674 (.fardata:ti_sysbios_heaps_HeapMem_Object__table__V)
                  c081e808    00000018     usbhostenum.obj (.fardata)
                  c081e820    00000014     emacHooks.obj (.fardata:LinkStr)
                  c081e834    00000004     --HOLE--
                  c081e838    00000014     stk6_ppp_pppoe.ae674 : sock6pcb.oe674 (.fardata:pSockList)
                  c081e84c    00000004     --HOLE--
                  c081e850    00000014                          : sockpcb.oe674 (.fardata:pSockList)
                  c081e864    0000000c     rts6740_elf.lib : exit.obj (.fardata)
                  c081e870    0000000b     stk6_ppp_pppoe.ae674 : tcp6out.oe674 (.fardata:tcp_outflags)
                  c081e87b    00000005     --HOLE--
                  c081e880    0000000b                          : tcpout.oe674 (.fardata:tcp_outflags)
                  c081e88b    00000005     --HOLE--
                  c081e890    00000008     ti.drv.omapl138.ae674 : nimu_eth.oe674 (.fardata:NIMUDeviceTable)
                  c081e898    00000008     emacHooks.obj (.fardata:bMacAddr)
                  c081e8a0    00000008     rts6740_elf.lib : _lock.obj (.fardata)
                  c081e8a8    00000008     gooao_fr_c6748_pe674.oe674 (.fardata:ti_sysbios_family_c64p_primus_TimerSupport_Module_State_0_suspSrc__A)
                  c081e8b0    00000008     gooao_fr_c6748_pe674.oe674 (.fardata:ti_sysbios_hal_Hwi_Object__table__V)
                  c081e8b8    00000008     gooao_fr_c6748_pe674.oe674 (.fardata:ti_sysbios_hal_Timer_Object__table__V)
                  c081e8c0    00000006     stk6_ppp_pppoe.ae674 : nimupppoe.oe674 (.fardata:MacBCast)
                  c081e8c6    00000002     --HOLE--
                  c081e8c8    00000006                          : lliout.oe674 (.fardata:bEtherBCast)
                  c081e8ce    00000002     --HOLE--
                  c081e8d0    00000006     ti.drv.omapl138.ae674 : ethdriver.oe674 (.fardata:bMacAddr)
                  c081e8d6    00000002     --HOLE--
                  c081e8d8    00000004     gooao_fr_c6748_pe674.oe674 (.fardata:ti_sysbios_gates_GateHwi_Object__table__V)
                  c081e8dc    00000004     --HOLE--
                  c081e8e0    00000004     gooao_fr_c6748_pe674.oe674 (.fardata:ti_sysbios_knl_Task_Module_State_0_idleTask__A)

.switch.1 
*          0    c081e8e4    00000318     
                  c081e8e4    00000060     nettool.ae674 : telnetd.oe674 (.switch:telnet_netdata)
                  c081e944    0000003c     stk6_ppp_pppoe.ae674 : sock.oe674 (.switch:SockSet)
                  c081e980    00000038                          : icmpin.oe674 (.switch:ICMPInput)
                  c081e9b8    00000038                          : icmpv6in.oe674 (.switch:ICMPv6RxPacket)
                  c081e9f0    00000034                          : rawethsock.oe674 (.switch:RawEthSockSet)
                  c081ea24    0000002c                          : sock6.oe674 (.switch:Sock6Set)
                  c081ea50    00000028     usbhostenum.obj (.switch:USBHCDMain)
                  c081ea78    00000028     stk6_ppp_pppoe.ae674 : lcp.oe674 (.switch:lcpInput)
                  c081eaa0    00000020                          : tcp6prot.oe674 (.switch:TCP6PrSetOption)
                  c081eac0    00000020                          : tcpprot.oe674 (.switch:TcpPrSetOption)
                  c081eae0    00000020                          : ipcp.oe674 (.switch:ipcpInput)
                  c081eb00    0000001c                          : sock6int.oe674 (.switch:Sock6Notify)
                  c081eb1c    0000001c                          : sockint.oe674 (.switch:SockNotify)
                  c081eb38    0000001c     usbhostenum.obj (.switch:USBHCDEnumHandler)
                  c081eb54    0000001c     nettool.ae674 : dhcpsm.oe674 (.switch:dhcpState)
                  c081eb70    00000018     stk6_ppp_pppoe.ae674 : nimuppp.oe674 (.switch:pppEvent)
                  c081eb88    00000014                          : icmpv6in.oe674 (.switch:ICMPv6RecvDstUnreachable)
                  c081eb9c    00000014                          : lli6.oe674 (.switch:LLI6TimerCheck)
                  c081ebb0    00000014     ti.drv.omapl138.ae674 : csl_mdio.oe674 (.switch:MDIO_timerTick)
                  c081ebc4    00000014     stk6_ppp_pppoe.ae674 : nimu.oe674 (.switch:NIMUIoctl)
                  c081ebd8    00000014                          : lcp.oe674 (.switch:lcpSendCfg)
                  c081ebec    00000010                          : ipv6_exthdrs.oe674 (.switch:IPv6ParseHopOptions)

.vecs      0    c081ec00    00000200     
                  c081ec00    00000200     gooao_fr_c6748_pe674.oe674 (.vecs)

.switch.2 
*          0    c081ee00    00000040     
                  c081ee00    00000010     stk6_ppp_pppoe.ae674 : auth.oe674 (.switch:chapInput)
                  c081ee10    00000010     nettool.ae674 : inetaddr.oe674 (.switch:inet_aton)
                  c081ee20    00000010     stk6_ppp_pppoe.ae674 : ipcp.oe674 (.switch:ipcpSendCfg)
                  c081ee30    00000010                          : nimupppoe.oe674 (.switch:pppoeCtrlMsg)

.bss       0    c081ee40    000000c0     UNINITIALIZED
                  c081ee40    00000044     fr_main.obj (.bss)
                  c081ee84    00000018     hal_timer_bios.ae674 : lltimer.oe674 (.bss)
                  c081ee9c    00000014     stk6_ppp_pppoe.ae674 : igmp.oe674 (.bss)
                  c081eeb0    00000010     taskImageInput.obj (.bss)
                  c081eec0    00000008     netctrl.ae674 : netctrl.oe674 (.bss)
                  c081eec8    00000008     nettool.ae674 : daemon.oe674 (.bss)
                  c081eed0    00000008     stk6_ppp_pppoe.ae674 : ip.oe674 (.bss)
                  c081eed8    00000008                          : nimupppoe.oe674 (.bss)
                  c081eee0    00000008     usbhostenum.obj (.bss)
                  c081eee8    00000004     nettool.ae674 : ipaddr.oe674 (.bss)
                  c081eeec    00000004     scom.obj (.bss)
                  c081eef0    00000004     stk6_ppp_pppoe.ae674 : ipv6_frag.oe674 (.bss)
                  c081eef4    00000004                          : lli6.oe674 (.bss)
                  c081eef8    00000004                          : rtable.oe674 (.bss)
                  c081eefc    00000004     ti.drv.omapl138.ae674 : ethdriver.oe674 (.bss)

.neardata 
*          0    c081ef00    00000240     
                  c081ef00    00000044     nettool.ae674 : httpstr.oe674 (.neardata)
                  c081ef44    0000002c     fr_uart.obj (.neardata)
                  c081ef70    00000028     networkmain.obj (.neardata)
                  c081ef98    00000024     os.ae674 : mem.oe674 (.neardata)
                  c081efbc    00000020     ti.drv.omapl138.ae674 : ethdriver.oe674 (.neardata)
                  c081efdc    0000001c     usbhostenum.obj (.neardata)
                  c081eff8    00000018     netctrl.ae674 : netctrl.oe674 (.neardata)
                  c081f010    00000018     os.ae674 : task.oe674 (.neardata)
                  c081f028    00000014     stk6_ppp_pppoe.ae674 : rtable.oe674 (.neardata)
                  c081f03c    00000010     nettool.ae674 : daemon.oe674 (.neardata)
                  c081f04c    00000010     stk6_ppp_pppoe.ae674 : bind6.oe674 (.neardata)
                  c081f05c    00000010                          : igmp.oe674 (.neardata)
                  c081f06c    00000010     ti.drv.omapl138.ae674 : csl_emac.oe674 (.neardata)
                  c081f07c    0000000d     cppi41dma.obj (.neardata)
                  c081f089    00000003     --HOLE-- [fill = 0]
                  c081f08c    0000000c     stk6_ppp_pppoe.ae674 : route6.oe674 (.neardata)
                  c081f098    0000000c     usbtick.obj (.neardata)
                  c081f0a4    00000008     stk6_ppp_pppoe.ae674 : exec.oe674 (.neardata)
                  c081f0ac    00000008                          : icmp.oe674 (.neardata)
                  c081f0b4    00000008                          : ip.oe674 (.neardata)
                  c081f0bc    00000008                          : ipin.oe674 (.neardata)
                  c081f0c4    00000008                          : ipv6_frag.oe674 (.neardata)
                  c081f0cc    00000008                          : lli.oe674 (.neardata)
                  c081f0d4    00000008                          : nimupppoe.oe674 (.neardata)
                  c081f0dc    00000008                          : rtc.oe674 (.neardata)
                  c081f0e4    00000008                          : tcp.oe674 (.neardata)
                  c081f0ec    00000008                          : tcp6.oe674 (.neardata)
                  c081f0f4    00000008                          : timer.oe674 (.neardata)
                  c081f0fc    00000008     taskImageInput.obj (.neardata)
                  c081f104    00000004     HT82V46A.obj (.neardata)
                  c081f108    00000004     hal_timer_bios.ae674 : lltimer.oe674 (.neardata)
                  c081f10c    00000004     netctrl.ae674 : netsrv.oe674 (.neardata)
                  c081f110    00000004     nettool.ae674 : config.oe674 (.neardata)
                  c081f114    00000004                   : httpsend.oe674 (.neardata)
                  c081f118    00000004     os.ae674 : efs.oe674 (.neardata)
                  c081f11c    00000004     stk6_ppp_pppoe.ae674 : bind.oe674 (.neardata)
                  c081f120    00000004                          : ipfrag.oe674 (.neardata)
                  c081f124    00000004                          : lli6.oe674 (.neardata)
                  c081f128    00000004                          : mld.oe674 (.neardata)
                  c081f12c    00000004                          : node.oe674 (.neardata)
                  c081f130    00000004                          : pbm.oe674 (.neardata)
                  c081f134    00000004                          : sock6pcb.oe674 (.neardata)
                  c081f138    00000004                          : sockpcb.oe674 (.neardata)
                  c081f13c    00000004     ti.drv.omapl138.ae674 : csl_mdio.oe674 (.neardata)

.rodata    0    c081f140    0000003c     
                  c081f140    00000024     stk6_ppp_pppoe.ae674 : ipv6.oe674 (.rodata)
                  c081f164    00000010     os.ae674 : mem_data.oe674 (.rodata)
                  c081f174    00000008     stk6_ppp_pppoe.ae674 : pbm_data.oe674 (.rodata)

.cio       0    c081f17c    00000120     UNINITIALIZED
                  c081f17c    00000120     rts6740_elf.lib : trgmsg.obj (.cio)

.cinit     0    c081f29c    00000dec     
                  c081f29c    00000caf     (.cinit..fardata.load) [load image, compression = rle]
                  c081ff4b    00000001     --HOLE-- [fill = 0]
                  c081ff4c    000000b8     (.cinit..neardata.load) [load image, compression = rle]
                  c0820004    00000040     (.cinit..rodata.load) [load image, compression = rle]
                  c0820044    0000000c     (__TI_handler_table)
                  c0820050    00000008     (.cinit..bss.load) [load image, compression = zero_init]
                  c0820058    00000008     (.cinit..far.load) [load image, compression = zero_init]
                  c0820060    00000028     (__TI_cinit_table)

my_boot_sect 
*          0    c3000000    00000040     
                  c3000000    00000020     myboot.obj (my_boot_sect)
                  c3000020    00000020     boot.ae674 : boot.oe674 ($Tramp$S$$_c_int00)


LINKER GENERATED COPY TABLES

__TI_cinit_table @ c0820060 records: 5, size/record: 8, table size: 40
	.fardata: load addr=c081f29c, load size=00000caf bytes, run addr=c081d520, run size=000013c4 bytes, compression=rle
	.neardata: load addr=c081ff4c, load size=000000b8 bytes, run addr=c081ef00, run size=00000240 bytes, compression=rle
	.rodata: load addr=c0820004, load size=00000040 bytes, run addr=c081f140, run size=0000003c bytes, compression=rle
	.bss: load addr=c0820050, load size=00000008 bytes, run addr=c081ee40, run size=000000c0 bytes, compression=zero_init
	.far: load addr=c0820058, load size=00000008 bytes, run addr=c0200000, run size=005bb230 bytes, compression=zero_init


LINKER GENERATED HANDLER TABLE

__TI_handler_table @ c0820044 records: 3, size/record: 4, table size: 12
	index: 0, handler: __TI_zero_init
	index: 1, handler: __TI_decompress_rle24
	index: 2, handler: __TI_decompress_none


FAR CALL TRAMPOLINES

callee name               trampoline name
   callee addr  tramp addr   call addr  call info
--------------  -----------  ---------  ----------------
$.text:_c_int00:boot.ae674<boot.oe674>$0x0  $Tramp$S$$_c_int00
   c080ec20     c3000020     c3000000   myboot.obj (my_boot_sect)

[1 trampolines]
[1 trampoline calls]


GLOBAL SYMBOLS: SORTED ALPHABETICALLY BY Name 

address    name
--------   ----
c081e450   ADCPAR_Reset
c0801c00   Bind6DADCheck
c0815020   Bind6FindByHost
c08126e0   Bind6FindByIF
c0815060   Bind6FindByNet
c07fef00   Bind6Free
c07fad60   Bind6GetGlobalAddress
c08165e0   Bind6GetInterfaceHandle
c0816600   Bind6GetLifetime
c0807520   Bind6GetLinkLocalAddress
c0812740   Bind6IF2IPHost
c07f8e80   Bind6Msg
c07db0e0   Bind6New
c0816620   Bind6SetLifetime
c08127a0   BindFindByHost
c0812800   BindFindByIF
c0812860   BindFindByNet
c0801e40   BindFree
c0816640   BindGetFirst
c0816660   BindGetIF
c08128c0   BindGetIFByDBCast
c08150a0   BindGetIP
c0816680   BindGetNext
c0812920   BindIF2IPHost
c08166a0   BindIFNet2IPHost
c08166c0   BindIPHost2IF
c07e9200   BindNew
c07baf70   BlockCount
c07baf50   BlockMax
c0817000   C$$EXIT
c0814bf8   C$$IO$$
c081ef30   CONTENT_LENGTH
c081ef2c   CONTENT_TYPE
c081ef00   CONTENT_TYPE_APPLET
c081ef04   CONTENT_TYPE_AU
c081ef08   CONTENT_TYPE_CSS
c081ef0c   CONTENT_TYPE_DOC
c081ef10   CONTENT_TYPE_GIF
c081ef14   CONTENT_TYPE_HTML
c081ef18   CONTENT_TYPE_JPG
c081ef1c   CONTENT_TYPE_MPEG
c081ef20   CONTENT_TYPE_PDF
c081ef24   CONTENT_TYPE_WAV
c081ef28   CONTENT_TYPE_ZIP
c081ef34   CRLF
c07e5060   CfgAddEntry
c080d320   CfgEntryDeRef
c080d3c0   CfgEntryGetData
c0812980   CfgEntryInfo
c07f77c0   CfgExecute
c0801f60   CfgFree
c07fc9e0   CfgGetEntry
c0805320   CfgGetEntryCnt
c080d460   CfgGetImmediate
c07fcb40   CfgGetNextEntry
c07fcca0   CfgLoad
c0805420   CfgNew
c07f9020   CfgRemoveEntry
c07ec220   CfgSave
c08166e0   CfgSetDefault
c0805520   CfgSetExecuteOrder
c08129e0   CfgSetService
c081c698   Code2Err
c07c0660   Cppi41DmaInit
c07c1a84   CppiDmaGetINTD0Status
c07c1a58   CppiDmaGetPendStatus
c081ef38   DEFAULT_NAME
c080ab60   DHCPClose
c07ea540   DHCPOpen
c0802080   DaemonFree
c07f0d80   DaemonNew
c0805620   DbgPrintf
c081ef8c   DomainName
c07faee0   EMAC_RxServiceCheck
c07fce00   EMAC_TxServiceCheck
c07df040   EMAC_close
c07f69a8   EMAC_getConfig
c07f6920   EMAC_initialize
c07f6a58   EMAC_linkStatus
c07c9280   EMAC_open
c07f7980   EMAC_sendPacket
c07f57e0   EMAC_setReceiveFilter
c0815a60   EVM_Init
c07f59c0   EmacInit
c08150e0   ExecClose
c0816720   ExecHRef
c0816740   ExecLowResource
c07ff040   ExecOpen
c0815120   ExecTimer
c080d640   FdSignalEvent
c08021a0   FdWaitEvent
c081ef80   GatewayIP
c080d6e0   HOSTclose
c0805720   HOSTlseek
c0807600   HOSTopen
c080ac20   HOSTread
c07fb060   HOSTrename
c080ace0   HOSTunlink
c080ada0   HOSTwrite
c07bb098   HT82V46APar
c07d1fc0   HT82V46A_ADC_Init
c081ef3c   HTTP_VER
c081ef88   HostName
c080d780   HwPktClose
c0816760   HwPktInit
c07e7820   HwPktOpen
c07fcf60   HwPktSetRx
c0816780   HwPktShutdown
c07fd0c0   HwPktTxNext
c08102e0   HwRxInt
c0810360   HwTxInt
c081ee78   HwiUart1
c081ee7c   HwiUart2
c081ee80   HwiUsb2
c08103e0   ICMPChecksum
c07ec4a0   ICMPGenPacket
c07d6a40   ICMPInput
c07ff180   ICMPSendRtAdv
c07f1200   ICMPv6RecvNA
c07e7b00   ICMPv6RecvNS
c07d2da0   ICMPv6RecvRA
c08104e0   ICMPv6RecvRS
c07e5380   ICMPv6RecvRedirect
c07e2420   ICMPv6RxPacket
c07e6320   ICMPv6SendDstUnreachable
c07f1440   ICMPv6SendNA
c07ee7a0   ICMPv6SendNS
c07e46a0   ICMPv6SendParameterProblem
c07e6620   ICMPv6SendTimeExceeded
c07e27a0   IGMPInput
c07ff2c0   IGMPJoin
c08076e0   IGMPLeave
c08022c0   IGMPLeaveHostGroup
c07fb1e0   IGMPMsg
c0812c20   IGMPTestGroup
c081f160   INFINITE_LT
c0812c80   IPChecksum
c07f7b40   IPGetRoute
c08023e0   IPMsg
c07d5900   IPReasm
c080d8c0   IPReasmFree
c080d960   IPReasmTimeout
c08167a0   IPRtChange
c07caae0   IPRxPacket
c07ccc00   IPTxPacket
c07bacb8   IPV6_ALL_NODES_ADDRESS
c07bacc8   IPV6_ALL_ROUTER_ADDRESS
c081f14c   IPV6_DELAY_FIRST_PROBE_TIME
c07baca8   IPV6_HOST_MASK
c07bac68   IPV6_LINKLOCALMASK
c07bac98   IPV6_LOOPBACK_ADDRESS
c081f140   IPV6_MAX_MULTICAST_SOLICIT
c081f15c   IPV6_MAX_RTR_SOLICITATIONS
c081f154   IPV6_MAX_RTR_SOLICITATION_DELAY
c081f144   IPV6_MAX_UNICAST_SOLICIT
c07bac78   IPV6_MULTICASTMASK
c081f150   IPV6_REACHABLE_TIME
c081f148   IPV6_RETRANS_TIME
c081f158   IPV6_RTR_SOLICITATION_INTERVAL
c07bac88   IPV6_UNSPECIFIED_ADDRESS
c080da00   IPv6CompareAddress
c07ff400   IPv6DisplayIPAddress
c07f9360   IPv6FragMsg
c08105e0   IPv6GetRoute
c0805920   IPv6GetSubnetMaskFromBits
c07d7b00   IPv6IPAddressToString
c0802740   IPv6Init
c08151a0   IPv6IsLinkLocal
c08151e0   IPv6IsMulticast
c080af20   IPv6Layer4ComputeChecksum
c07ea7e0   IPv6ParseExtnHeaders
c07f3fe0   IPv6ParseFragHdr
c07f2aa0   IPv6RxPacket
c07dec60   IPv6TxFragPacket
c07df400   IPv6TxPacket
c07bfd70   InternalUSBHCDSendEvent
c0805028   InternalUSBRegisterTickHandler
c0805060   InternalUSBStartOfFrameTick
c0804fc0   InternalUSBTickInit
c07eea00   Interrupt_add
c0815220   Interrupt_delete
c0802860   IsICMPv6ErrorPkt
c08167c0   LED_TOGGLE
c0810660   LLI6Free
c08167e0   LLI6GetNetDevice
c0816800   LLI6IncRefCount
c0816820   LLI6IsDead
c0816840   LLI6IsRouter
c08152a0   LLI6IsValid
c0807980   LLI6Msg
c07f41e0   LLI6New
c0816860   LLI6SetIncomplete
c07eec60   LLI6TxIPPacket
c0807a60   LLI6Update
c0812ce0   LLIFree
c07f7ec0   LLIGenArpPacket
c080afe0   LLIGetValidTime
c080b0a0   LLIMsg
c07ff680   LLINew
c07d8aa0   LLIRxPacket
c07e3c80   LLITxIpPacket
c080daa0   LLIValidateRoute
c081ef78   LocalIPAddr
c081ef7c   LocalIPMask
c080db40   MD5Final
c08152e0   MD5Init
c0802980   MD5Update
c0810760   MDIO_close
c0816880   MDIO_getStatus
c080b160   MDIO_initPHY
c0812d40   MDIO_open
c07d1860   MDIO_timerTick
c0802aa0   MLDJoinGroup
c080b2e0   MLDLeaveGroup
c0815320   MLDTestGroup
c07ba4c0   MainConfig
c081ef70   MainConfigSize
c081ef74   MainConfigValid
c0815360   NC_BootComplete
c08168a0   NC_IPUpdate
c07f96a0   NC_NetStart
c08168c0   NC_NetStop
c0812da0   NC_SystemClose
c0802bc0   NC_SystemOpen
c08153a0   NDK_hookCreate
c08168e0   NDK_hookInit
c08153e0   NDK_sprintf
c0817b20   NDK_vsprintf
c0802ce0   NIMUAddEthernetHeader
c0812e00   NIMUAddHeader
c0812e60   NIMUCreatePacket
c081e890   NIMUDeviceTable
c0812ec0   NIMUFindByIndex
c080b3a0   NIMUFindByName
c0816900   NIMUGetRsvdSizeInfo
c08107e0   NIMUInit
c07e1200   NIMUIoctl
c0812f20   NIMUPacketService
c0812f80   NIMUPacketServiceCheck
c07eeec0   NIMUReceivePacket
c07fb360   NIMURegister
c0812fe0   NIMUSendPacket
c0816920   NIMUSetRsvdSizeInfo
c080dbe0   NIMUShutdown
c080dc80   NIMUUnregister
c080b460   NS_BootTask
c0813040   NS_PreBoot
c0816940   NatMsg
c07e06c0   NetworkMain
c07eaa80   NodeAdd
c0807de0   NodeDeRef
c07ff7c0   NodeFind
c08130a0   NodeGetRt
c0816960   NodeSetRt
c07f9840   NodeTreeFree
c0807fa0   NodeTreeNew
c07ff900   NodeWalk
c0816980   NotifyLowResource
c081f080   NowTime
c080dd20   NtAddNetwork
c080b5e0   NtIfIdx2Ip
c0815420   NtRemoveNetwork
c08169a0   OEMCacheClean
c08169c0   OEMSysCritOff
c08169e0   OEMSysCritOn
c0810860   PBMQ_deq
c0808080   PBMQ_enq
c07bb21c   PBMQ_free
c07ffa40   PBM_alloc
c0816a00   PBM_close
c0808160   PBM_copy
c07ffb80   PBM_free
c080ddc0   PBM_open
c081ef98   PITCount
c081efa0   PITHigh
c081ef9c   PITUsed
c07bafb0   PageCount
c07baf90   PageMax
c080de60   PipeCheck
c0810960   PipeClose
c07f1680   PipeRecv
c07fd4e0   PipeSend
c081f07c   PreTime
c07e2b20   Psc_ModuleClkCtrl
c07e2e28   Psc_getDependencyCount
c07e2e70   Psc_init
c0813100   RTCAddHook
c0805b20   RTCMsg
c0813160   RTCRemoveHook
c07f43e0   RTCReport
c07f99e0   Raw6Input
c07f45e0   Raw6Output
c0802e00   RawEthRxPacket
c0805c20   RawEthSockCheck
c08109e0   RawEthSockClose
c07f2cc0   RawEthSockNew
c0808240   RawEthSockNotify
c0808320   RawEthSockPcbAttach
c08131c0   RawEthSockPcbCleanup
c0810a60   RawEthSockPcbDetach
c0813220   RawEthSockPcbFind
c0816a20   RawEthSockPcbInit
c0816a40   RawEthSockPrAttach
c0816a60   RawEthSockPrDetach
c0802f20   RawEthSockRecvNC
c0808400   RawEthSockSend
c07ef120   RawEthSockSet
c0803040   RawEthTxPacket
c07f18c0   RawInput
c07fd640   RawOutput
c08084e0   Route6Msg
c080df00   RouteMsg
c07d4100   Rt6Create
c07e7de0   Rt6Find
c080b6a0   Rt6FindDefaultRouter
c07ecc20   Rt6Free
c0816a80   Rt6GetIF
c0816aa0   Rt6GetLLI
c0816ac0   Rt6GetMTU
c0813280   Rt6GetNetworkAddr
c0816ae0   Rt6IncRefCount
c0815560   Rt6IsDefaultRoute
c0816b00   Rt6IsLocalRoute
c07f5d80   Rt6Modify
c0810ae0   Rt6Update
c07e15a0   RtCreate
c080b760   RtDeRef
c07e9780   RtFind
c0805d20   RtRedirect
c08085c0   RtRemove
c0810b60   RtSetFailure
c0810be0   RtSetTimeout
c080b820   RtWalkBegin
c08132e0   RtWalkEnd
c07fd900   RtWalkNext
c081f074   RxChanEnable_all
c080b8e0   SB6Flush
c080e040   SB6Free
c07ffe00   SB6New
c07e9a40   SB6Read
c080b9a0   SB6SetMax
c07ef380   SB6Write
c080ba60   SBFlush
c080e0e0   SBFree
c0803280   SBNew
c07e1940   SBRead
c08086a0   SBReadNC
c0808780   SBSetMax
c07ef5e0   SBWrite
c07f6ee8   SCOM_create
c07f6fb4   SCOM_delete
c07f6ed8   SCOM_exit
c07f7004   SCOM_getMsg
c07f6ec8   SCOM_init
c07f6f4c   SCOM_open
c07f6fd4   SCOM_putMsg
c081ef40   SPACE
c080e180   SemCreate
c0816b20   SemDelete
c07e89b0   SemInit
c0816b40   SemPend
c0816b60   SemPost
c0816b80   SemReset
c07d200c   SendHT82V46AData
c07d2154   SendHT82V46BData
c081ef84   ServerIPAddr
c07d2248   SetHT82V46APar
c0800080   Sock6Accept
c0810c60   Sock6Bind
c07fdbc0   Sock6Check
c080e220   Sock6CleanPcb
c07ef840   Sock6Close
c07d9e20   Sock6Connect
c07fdd20   Sock6CreatePacket
c0805e20   Sock6Disconnect
c080e2c0   Sock6GetName
c0808860   Sock6IntAbort
c08001c0   Sock6Listen
c07dc700   Sock6New
c07e3fe0   Sock6Notify
c08155a0   Sock6PcbAttach
c07e6c20   Sock6PcbBind
c0810ce0   Sock6PcbCleanup
c07fde80   Sock6PcbConnect
c08133a0   Sock6PcbDetach
c07e9d00   Sock6PcbResolve
c080bb20   Sock6PcbResolveChain
c080bbe0   Sock6PcbRtChange
c0816ba0   Sock6PrAttach
c0813400   Sock6PrCtlError
c0813460   Sock6PrDetach
c07da7a0   Sock6Recv
c07de460   Sock6Send
c07da2e0   Sock6Set
c0816bc0   Sock6SetOOBData
c08155e0   Sock6SetOOBMark
c08035e0   Sock6Shutdown
c0808940   Sock6SpawnAbort
c0808a20   Sock6ValidateRoute
c0800300   SockAccept
c080e360   SockBind
c07fdfe0   SockCheck
c080e400   SockCleanPcb
c07eafc0   SockClose
c07e2ea0   SockConnect
c07f9d20   SockCreatePacket
c0808b00   SockDisconnect
c0810d60   SockGetName
c080bca0   SockIntAbort
c0800440   SockListen
c07d8060   SockNew
c07e4340   SockNotify
c0815620   SockPcbAttach
c07efaa0   SockPcbBind
c0810de0   SockPcbCleanup
c07fe140   SockPcbConnect
c0800580   SockPcbCtlError
c0810e60   SockPcbDetach
c07ecea0   SockPcbResolve
c0810ee0   SockPcbResolveChain
c080bd60   SockPcbRtChange
c0816be0   SockPrAttach
c08134c0   SockPrCtlError
c0813520   SockPrDetach
c07dac40   SockRecv
c07ed120   SockRecvNC
c07dfb80   SockSend
c07cf9e0   SockSet
c0816c00   SockSetOOBData
c0815660   SockSetOOBMark
c0803820   SockShutdown
c0808be0   SockSpawnAbort
c0805f20   SockValidateRoute
c080be20   TCP6Close
c080e4a0   TCP6Drop
c07ed3a0   TCP6GenPacket
c07c3c20   TCP6Input
c07c8100   TCP6Output
c0803940   TCP6PrAttach
c0813580   TCP6PrConnect
c080e540   TCP6PrCtlError
c0808cc0   TCP6PrDetach
c0808da0   TCP6PrDisconnect
c0806120   TCP6PrInherit
c0810f60   TCP6PrListen
c0816c60   TCP6PrRecv
c080e5e0   TCP6PrSend
c080e680   TCP6PrSendOOB
c07eb260   TCP6PrSetOption
c08135e0   TCP6SetPersist
c0816c80   TCP6TimeoutAdd
c07dff40   TCP6TimeoutCheck
c07fe400   TCP6TimeoutKeep
c0813640   TCP6TimeoutPersist
c08156a0   TCP6TimeoutRemove
c07fa060   TCP6TimeoutRexmt
c0808e80   TCP6TimeoutSackRexmt
c08156e0   TCP6TimeoutWait2
c0808f60   TCP6ValidateMetrics
c0806220   TCP6XmitTimer
c081de70   TSK_idle
c0816ca0   TaskBlock
c080e720   TaskCreate
c0815720   TaskDestroy
c07ea280   TaskExit
c080bee0   TaskGetEnv
c0816cc0   TaskSelf
c0810fe0   TaskSetEnv
c0816ce0   TaskSetPri
c07ebf80   TaskSleep
c080bfa0   TcpChecksum
c080c060   TcpClose
c080e7c0   TcpDrop
c07f6140   TcpGenPacket
c07c2220   TcpInput
c07c6ec0   TcpOutput
c0803a60   TcpPrAttach
c08136a0   TcpPrConnect
c080e860   TcpPrCtlError
c0809040   TcpPrDetach
c0809120   TcpPrDisconnect
c0806320   TcpPrInherit
c0811060   TcpPrListen
c0816d00   TcpPrRecv
c080e900   TcpPrSend
c080e9a0   TcpPrSendOOB
c07eb500   TcpPrSetOption
c0813700   TcpSetPersist
c0816d20   TcpTimeoutAdd
c07e0300   TcpTimeoutCheck
c07fe560   TcpTimeoutKeep
c0813760   TcpTimeoutPersist
c0815760   TcpTimeoutRemove
c07f6320   TcpTimeoutRexmt
c0809200   TcpTimeoutSackRexmt
c08157a0   TcpTimeoutWait2
c08092e0   TcpValidateMetrics
c0806420   TcpXmitTimer
c0802080   TelnetClose
c0803b80   TelnetOpen
c081f084   TimeOutCNT
c0816d40   TimerFree
c08110e0   TimerHSTick
c080ea40   TimerNew
c081f070   TxChanEnable_all
c081ef58   UART1_CmdCount
c081ef54   UART1_CmdReady_Flag
c081ef6c   UART1_CmdReady_Flag_tim
c081ef50   UART1_CmdStartChar_flag
c0811760   UART1_isr
c081ef68   UART2_CmdCount
c081ef64   UART2_CmdReady_Flag
c081ef60   UART2_CmdStartChar_flag
c0811770   UART2_isr
c07d0604   UARTBreakCtl
c07d04f4   UARTCharGet
c07d04c8   UARTCharGetNonBlocking
c07d0530   UARTCharPut
c07d0488   UARTCharPutNonBlocking
c07d0438   UARTCharsAvail
c07d0234   UARTConfigGetExpClk
c07d01a0   UARTConfigSetExpClk
c07d030c   UARTDMADisable
c07d02ec   UARTDMAEnable
c07d03b4   UARTDisable
c07d0398   UARTEnable
c07d03f4   UARTFIFODisable
c07d03e0   UARTFIFOEnable
c07d02c8   UARTFIFOLevelSet
c07d05b0   UARTIntDisable
c07d0588   UARTIntEnable
c07d05d8   UARTIntStatus
c07d0690   UARTModemControlClear
c07d06c4   UARTModemControlGet
c07d0638   UARTModemControlSet
c07d06e4   UARTModemStatusGet
c07d0374   UARTParityModeGet
c07d032c   UARTParityModeSet
c07d0468   UARTRxErrorGet
c07d040c   UARTSpaceAvail
c07d0704   UART_init
c07d0810   UART_txArray
c07d07f0   UART_txByte
c07d0874   UART_txString
c07d08b4   UART_txUint8
c07d3c2c   UPPDEV_init
c07bfc14   USB0HostIntHandler
c07c6e74   USBClearInt
c07c6e48   USBClearOtgIntr
c07e6088   USBDescGet
c07e6298   USBDescGetInterface
c07e62d8   USBDescGetInterfaceEndpoint
c07e6000   USBDescGetNum
c07e6124   USBDescGetNumAlternateInterfaces
c07c6000   USBDevAddrGet
c07c5fe0   USBDevAddrSet
c07c5fa8   USBDevConnect
c07c5fc4   USBDevDisconnect
c07c63d4   USBDevEndpointConfigGet
c07c6270   USBDevEndpointConfigSet
c07c67f8   USBDevEndpointDataAck
c07c5e78   USBDevEndpointStall
c07c5eec   USBDevEndpointStallClear
c07c5c58   USBDevEndpointStatusClear
c07c6e54   USBEnableInt
c07c6dd0   USBEnableOtgIntr
c07c6d48   USBEndpointDMAChannel
c07c66a0   USBEndpointDMADisable
c07c664c   USBEndpointDMAEnable
c07c66f0   USBEndpointDataAvail
c07c6740   USBEndpointDataGet
c07c6890   USBEndpointDataPut
c07c6928   USBEndpointDataSend
c07c5e28   USBEndpointDataToggleClear
c07c5b98   USBEndpointStatus
c07c6d08   USBFIFOAddrGet
c07c65b8   USBFIFOConfigGet
c07c6534   USBFIFOConfigSet
c07c698c   USBFIFOFlush
c07c6ca4   USBFrameNumberGet
c07c01f8   USBHCDControlTransfer
c07bee6c   USBHCDInit
c07bff08   USBHCDMain
c07be324   USBHCDPipeAlloc
c07be0ac   USBHCDPipeAllocSize
c07be344   USBHCDPipeConfig
c07be9d8   USBHCDPipeFree
c07be814   USBHCDPipeRead
c07be7ac   USBHCDPipeReadNonBlocking
c07be708   USBHCDPipeSchedule
c07be514   USBHCDPipeStatus
c07be528   USBHCDPipeWrite
c07bee44   USBHCDPowerAutomatic
c07beda8   USBHCDPowerConfigGet
c07bed90   USBHCDPowerConfigInit
c07bedc0   USBHCDPowerConfigSet
c07bef48   USBHCDRegisterDrivers
c07bf054   USBHCDReset
c07bf0a8   USBHCDResume
c07bf2f8   USBHCDSetAddress
c07bf450   USBHCDSetConfig
c07bf4b4   USBHCDSetInterface
c07bf090   USBHCDSuspend
c07bef70   USBHCDTerm
c07c6ae8   USBHostAddrGet
c07c6a90   USBHostAddrSet
c07bf524   USBHostCheckPipes
c07c6014   USBHostEndpointConfig
c07c684c   USBHostEndpointDataAck
c07c5d34   USBHostEndpointDataToggle
c07c5bd8   USBHostEndpointStatusClear
c07c6b88   USBHostHubAddrGet
c07c6b30   USBHostHubAddrSet
c07bf648   USBHostIntHandlerInternal
c07c6dac   USBHostMode
c07c6bd0   USBHostPwrConfig
c07c6c80   USBHostPwrDisable
c07c6c58   USBHostPwrEnable
c07c6c38   USBHostPwrFaultDisable
c07c6c1c   USBHostPwrFaultEnable
c07c6a48   USBHostRequestIN
c07c6a74   USBHostRequestStatus
c07c56a8   USBHostReset
c07c56e4   USBHostResume
c07c5720   USBHostSpeedGet
c07c5688   USBHostSuspend
c07c5808   USBIntDisable
c07c5990   USBIntDisableControl
c07c5ad4   USBIntDisableEndpoint
c07c58cc   USBIntEnable
c07c59f4   USBIntEnableControl
c07c5b20   USBIntEnableEndpoint
c07c5760   USBIntStatus
c07c5a58   USBIntStatusControl
c07c5b68   USBIntStatusEndpoint
c07c6d28   USBModeGet
c07c6ea4   USBModuleClkDisable
c07c6e90   USBModuleClkEnable
c07c6cb8   USBOTGSessionRequest
c081f088   USBOTGTimeOutFlage
c07c6df8   USBReset
c07e6f20   Udp6Input
c07e9fc0   Udp6Output
c08094a0   UdpChecksum
c07d8f80   UdpInput
c07e83a0   UdpOutput
c081e79c   Upp_IOMFXNS
c081cdbc   Upp_PARAMS
c07bb278   Upp_init
c07cbf60   Upp_localAbortChan
c07bc708   Upp_localConfigureChanA
c07bca48   Upp_localConfigureChanB
c07bcd48   Upp_localDisableInterrupts
c07bcdf0   Upp_localEnableInterrupts
c07bdc64   Upp_localLoadPendedIops
c07bdc04   Upp_localLpscOff
c07bdba0   Upp_localLpscOn
c07cb670   Upp_localSubmitIoctl
c07bc288   Upp_localValidateChanParams
c080d200   UsbPhyOff
c080d1a0   UsbPhyOn
c0809580   VLANDeinit
c0813880   VLANInit
c0809660   VLANReceivePacket
c07fe6c0   _HwPktPoll
c07baeb0   _ICMPIn
c081f0ac   _ICMPInErrors
c07baf00   _ICMPOut
c081f0b0   _ICMPOutErrors
c081f064   _IGMPForceVersion1
c081ee9c   _IGMPInDiscard
c081eea0   _IGMPInQuery
c081eea4   _IGMPInQueryGroup
c081eea8   _IGMPInResponse
c081eeac   _IGMPOutResponse
c081f0b4   _IPExecuting
c081f120   _IPReasmPtr
c0809820   _LLIExpListInsert
c08112e0   _LLIExpListRemove
c07f8240   _LLITimeoutCheck
c080eae0   _LLITimeoutFlush
c0809900   _RtExpListInsert
c08113e0   _RtExpListRemove
c0803ca0   _RtNodeInsert
c08099e0   _RtNodeRemove
c0816d60   _TaskInit
c0816d80   _TaskShutdown
c0200000   __ASM__
c081f17c   __CIOBUF_
c0200098   __ISA__
c02000b0   __PLAT__
c02000c8   __TARG__
c0820060   __TI_CINIT_Base
c0820088   __TI_CINIT_Limit
c0820044   __TI_Handler_Table_Base
c0820050   __TI_Handler_Table_Limit
UNDEFED    __TI_INITARRAY_Base
UNDEFED    __TI_INITARRAY_Limit
80001000   __TI_STACK_END
00001000   __TI_STACK_SIZE
c081ee40   __TI_STATIC_BASE
00000001   __TI_args_main
c0817040   __TI_decompress_none
c0817060   __TI_decompress_rle24
c081e86c   __TI_enable_exit_profile_output
ffffffff   __TI_pprof_out_hndl
ffffffff   __TI_prof_data_size
ffffffff   __TI_prof_data_start
c0809c80   __TI_zero_init
c02000f0   __TRDR__
ffffffff   __binit__
c0813940   __c6xabi_abort_msg
c07d6fe0   __c6xabi_divd
c080c420   __c6xabi_divu
c07fa200   __c6xabi_divul
c07efd00   __c6xabi_divull
c08157e0   __c6xabi_frcmpyd_div
c0815820   __c6xabi_isinf
c0811460   __c6xabi_llshl
c08158a0   __c6xabi_llshru
c0816da0   __c6xabi_negll
c080c4e0   __c6xabi_remi
c080eb80   __c6xabi_remu
c08158e0   __c6xabi_strasgi_64plus
ffffffff   __c_args__
c0816dc0   __cxa_atexit
c080c360   __cxa_finalize
c0816de0   __cxa_ia64_exit
c080c420   __divu
c080c4e0   __remi
c080eb80   __remu
c08158e0   __strasgi_64plus
c0816e00   __xdc__init
c081db58   __xdc__init__addr
c0815920   _args_main
00000000   _argsize
c08006c0   _auto_init_elf
c080ec20   _c_int00
c080ecc0   _cleanup
c081e864   _cleanup_ptr
c0803dc0   _closefile
c081b7a8   _ctypes_
c080c660   _doflush
c081e868   _dtors_ptr
c081db5c   _ft_end
c081db60   _ftable
c081dfb8   _ipcfg
c0816e20   _llSerialInit
c0816e40   _llSerialServiceCheck
c0816e60   _llSerialShutdown
c0815960   _llTimerInit
c0816e80   _llTimerShutdown
c0816ea0   _llUserLedInit
c0816ec0   _llUserLedShutdown
c081e8a0   _lock
c0804000   _mmInit
c0816ee0   _nop
c081e6b0   _oscfg
c07db9e0   _printfi
c0816f80   _register_lock
c0816fa0   _register_unlock
80000000   _stack
c08139a0   _subcull
c07ba840   _tmpnams
c081e8a4   _unlock
c0806520   _wrt_ok
c0817000   abort
c07f4be0   accept
c0817020   atexit
c0809ac0   atoi
c07fe820   authInit
c080efe0   authStart
c07fbc60   bind
ffffffff   binit
c06fdc00   buf
c081ef4c   c018_flag
c07ddc20   chapInput
c0809ba0   close
c07d4700   configureGuaoC6748
c07fbde0   connect
c081f078   corenum
c07c1f20   cppiDmaAllocBuffer
c07c202c   cppiDmaAllocnBuffer
c07c1fb0   cppiDmaFreeBuffer
c07c2130   cppiDmaFreenBuffer
c07c2208   cppiDmaHandleError
c0765880   cppiInfo
c07659a0   dBuffer
c080f080   dhcpBuildDecline
c0813a00   dhcpBuildDiscover
c07fa3a0   dhcpBuildOptions
c07fbf60   dhcpBuildRequest
c0800a80   dhcpDecodeType
c080c720   dhcpOptionsClear
c07e3220   dhcpPacketProcess
c0813a60   dhcpPacketReceive
c0813ac0   dhcpPacketSend
c0813b20   dhcpSocketClose
c07f66e0   dhcpSocketOpen
c07f1f80   dhcpState
c07f21c0   dhcpVerifyMessage
c07c0f90   disableCoreRxDMA
c07c1058   disableCoreTxDMA
c07859a0   dmaBuffer
c07c19c4   dmaRxCompletion
c07c18a0   dmaTxCompletion
c07c1808   doDmaRxTransfer
c07c14cc   doDmaTxTransfer
c0811560   efs_fclose
c07de860   efs_filecheck
c08115e0   efs_filesend
c080c7e0   efs_fopen
c0817080   efs_getfilesize
c0815a20   efs_loadfunction
c07c0ed0   enableCoreRxDMA
c07c0dec   enableCoreTxDMA
c080c960   exit
c081f0fc   extio_ptr
c07f8940   fdClose
c080f1c0   fdCloseSession
c0815aa0   fdError
c0804240   fdOpenSession
c07d0940   fdPoll
c07dcb40   fdSelect
c0815ae0   fdSelectAbort
c0813be0   fdint_clearevent
c0815b20   fdint_freefdt
c0813c40   fdint_getfdt
c0809d60   fdint_lockfd
c0813ca0   fdint_setevent
c08170a0   fdint_signaltimeout
c0809e40   fdint_unlockfd
c08116e0   fdint_waitevent
c0813d00   fdsetTestEntry
c0809f20   fflush
c0806720   fprintf
c07f3320   fputc
c07e1ce0   fputs
c07e8bc4   fr_IntrInit
c07e8ad4   fr_ScomSetup
c0815b60   free
c0804360   fseek
c081f0c4   gFragQList
c081f128   gMLDNodeList
c081f098   g_bUSBTimerInitialized
c07bb1a0   g_pfTickHandlers
c07bb1b0   g_pvTickInstance
c081f09c   g_ulCurrentUSBTick
c081efe0   g_ulDMAPending
c081eee4   g_ulUSBHIntEvents
c081f0a0   g_ulUSBSOFCount
c07c13ac   getFreeBd
c07fa540   getpeername
c081f104   gpioRegs
c0800f80   httpAuthenticationReq
c07c9ee0   httpClientProcess
c0802080   httpClose
c081f114   httpErrorResponseHook
c0804480   httpOpen
c07f01c0   httpParseRecv
c0813d60   httpSendClientStr
c08117e0   httpSendEntityLength
c0811860   httpSendErrorResponse
c080ca20   httpSendFullResponse
c07d8580   httpSendStatusLine
c07bb1bc   icmp6stats
c0815ba0   inet_addr
c07e7220   inet_aton
c0813dc0   ipcpInit
c07cf200   ipcpInput
c0813e20   ipcpStart
c07bafcc   ips
c07bacd8   ipv6mcb
c0813e80   lcpClose
c080f300   lcpInit
c07cd5c0   lcpInput
c0806920   lcpOpen
c08045a0   lcpReject
c0815be0   list_add
c0813ee0   list_cat
c08170c0   list_get_head
c08170e0   list_get_next
c0815c20   list_remove
c0813f40   list_remove_node
c0806a20   listen
c07fc0e0   llEnter
c080a0e0   llExit
c0817100   llSerialService
c0817120   llTimerGetStartTime
c08118e0   llTimerGetTime
c080f440   llTimerTick
c080f4e0   lseek
c080a1c0   ltoa
c07e8bf0   main
c080f580   malloc
c0813fa0   memccpy
c080f620   memcpy
c081efd8   memory_squeeze_error
c080a2a0   memset
c07e49e0   mmAlloc
c080a380   mmBulkAlloc
c080f6c0   mmBulkFree
c08010c0   mmCopy
c0806b20   mmFree
c080cae0   mmZeroInit
c3000000   my_boot
c07bb034   nimu_mcb
c07e2080   papInput
c07f68c0   pinmuxConfig
c081f100   pktCount
c07d7580   pppEvent
c080a460   pppFree
c07e8c40   pppInput
c07dc2a0   pppNew
c0814060   pppoeInput
c07e4d20   pppoeSI
c080a540   printf
c081e6d8   pstrMsgName
c081f0ec   pt6TimeFirst
c081f0e8   ptTimeFirst
c07c1458   pushToSubmitQ
c07c1404   putFreeBd
c07bb1fc   raw6_stats
c07ba07c   raweth_pcb
c07bb20c   raweths
c07bb1ec   raws
c0811960   readmsg
c0801340   recv
c07f6c80   recvnc
c08140c0   recvncfree
c0751780   region0DescriptorSpace
c0812260   remove
c081eee0   rxBuffer
c081ee40   semIn2P
c081ee4c   semNet2P
c081ee74   semNet2UD
c081ee6c   semNet2UM
c081ee44   semP2In
c081ee48   semP2Net
c081ee64   semP2UD
c081ee5c   semP2UM
c081ee50   semP2Usb
c081ee70   semUD2Net
c081ee60   semUD2P
c081ee68   semUM2Net
c081ee58   semUM2P
c081ee54   semUsb2P
c0801480   send
c07f7040   sendto
c07feae0   setsockopt
c07f51e0   setvbuf
c08047e0   socket
c06fdc70   stkEvent
c0815d20   strcmp
c0814120   strcpy
c080f800   stricmp
c0815d60   strlen
c080f8a0   strstr
c081eeb4   tCount
c081f0f0   tcp6_iss
c07badf4   tcp6_stats
c081f0e4   tcp_iss
c07bad30   tcps
c07fec40   telnetClientProcess
c081e7b8   ti_ndk_config_Global_Id2Size
c081f170   ti_ndk_config_Global_largest
c081f174   ti_ndk_config_Global_numFrameBuf
c06fdc80   ti_ndk_config_Global_pBufMem
c074bc80   ti_ndk_config_Global_pHdrMem
c07a65c8   ti_ndk_config_Global_pit
c07a6788   ti_ndk_config_Global_pitBuffer
c081f168   ti_ndk_config_Global_rawPageCount
c081f164   ti_ndk_config_Global_rawPageSize
c081f178   ti_ndk_config_Global_sizeFrameBuf
c081f16c   ti_ndk_config_Global_smallest
c0814180   ti_ndk_config_Global_stackThread
c081cad4   ti_sysbios_BIOS_Module__diagsEnabled__C
c081cfdc   ti_sysbios_BIOS_Module__diagsIncluded__C
c081d1e0   ti_sysbios_BIOS_Module__diagsMask__C
c081d4a0   ti_sysbios_BIOS_Module__id__C
c081d520   ti_sysbios_BIOS_Module__state__V
c0817160   ti_sysbios_BIOS_RtsGateProxy_enter__E
c0817180   ti_sysbios_BIOS_RtsGateProxy_leave__E
c08173e0   ti_sysbios_BIOS_RtsGateProxy_query__E
c080cc60   ti_sysbios_BIOS_errorRaiseHook__I
c0811a60   ti_sysbios_BIOS_exitFunc__I
c081d1e4   ti_sysbios_BIOS_installedErrorHook__C
c08141e0   ti_sysbios_BIOS_registerRTSLock__I
c08171a0   ti_sysbios_BIOS_setThreadType__E
c0815da0   ti_sysbios_BIOS_startFunc__I
c08171c0   ti_sysbios_BIOS_start__E
c08171e0   ti_sysbios_family_c62_TaskSupport_Module__startupDone__S
c08159a0   ti_sysbios_family_c62_TaskSupport_buildTaskStack
c0817200   ti_sysbios_family_c62_TaskSupport_checkStack__E
c0817220   ti_sysbios_family_c62_TaskSupport_getStackAlignment__E
c0816fc0   ti_sysbios_family_c62_TaskSupport_glue
c081d1e8   ti_sysbios_family_c62_TaskSupport_stackAlignment__C
c0811ae0   ti_sysbios_family_c62_TaskSupport_start__E
c08114e0   ti_sysbios_family_c62_TaskSupport_swap__E
c081d1ec   ti_sysbios_family_c64p_Cache_EMIFA_BASE__C
c081d1f0   ti_sysbios_family_c64p_Cache_EMIFA_CFG__C
c081d1f4   ti_sysbios_family_c64p_Cache_EMIFA_LENGTH__C
c081d1f8   ti_sysbios_family_c64p_Cache_EMIFB_BASE__C
c081d1fc   ti_sysbios_family_c64p_Cache_EMIFB_CFG__C
c081d200   ti_sysbios_family_c64p_Cache_EMIFB_LENGTH__C
c081d204   ti_sysbios_family_c64p_Cache_EMIFC_BASE__C
c081d208   ti_sysbios_family_c64p_Cache_EMIFC_CFG__C
c081d20c   ti_sysbios_family_c64p_Cache_EMIFC_LENGTH__C
c081d210   ti_sysbios_family_c64p_Cache_MAR0_31__C
c081d214   ti_sysbios_family_c64p_Cache_MAR128_159__C
c081d218   ti_sysbios_family_c64p_Cache_MAR160_191__C
c081d21c   ti_sysbios_family_c64p_Cache_MAR192_223__C
c081d220   ti_sysbios_family_c64p_Cache_MAR224_255__C
c081d224   ti_sysbios_family_c64p_Cache_MAR32_63__C
c081d228   ti_sysbios_family_c64p_Cache_MAR64_95__C
c081d22c   ti_sysbios_family_c64p_Cache_MAR96_127__C
c081d540   ti_sysbios_family_c64p_Cache_Module__state__V
c07edb20   ti_sysbios_family_c64p_Cache_Module_startup__E
c07edb20   ti_sysbios_family_c64p_Cache_Module_startup__F
c081d180   ti_sysbios_family_c64p_Cache_initSize__C
c0811b60   ti_sysbios_family_c64p_Cache_invL1pAll__E
c0817240   ti_sysbios_family_c64p_Cache_inv__E
c0814240   ti_sysbios_family_c64p_Cache_setMar__E
c08142a0   ti_sysbios_family_c64p_Cache_setSize__E
c0817260   ti_sysbios_family_c64p_Cache_wbInv__E
c0817280   ti_sysbios_family_c64p_Cache_wb__E
c07bb230   ti_sysbios_family_c64p_EventCombiner_EVTMASK__C
c081d230   ti_sysbios_family_c64p_EventCombiner_E_unpluggedEvent__C
c081d4a4   ti_sysbios_family_c64p_EventCombiner_Module__id__C
c081d544   ti_sysbios_family_c64p_EventCombiner_Module__state__V
c0814300   ti_sysbios_family_c64p_EventCombiner_Module_startup__E
c0814300   ti_sysbios_family_c64p_EventCombiner_Module_startup__F
c0815de0   ti_sysbios_family_c64p_EventCombiner_disableEvent__E
c0815de0   ti_sysbios_family_c64p_EventCombiner_disableEvent__F
c0814360   ti_sysbios_family_c64p_EventCombiner_dispatchPlug__E
c0814360   ti_sysbios_family_c64p_EventCombiner_dispatchPlug__F
c0806c20   ti_sysbios_family_c64p_EventCombiner_dispatch__E
c0806c20   ti_sysbios_family_c64p_EventCombiner_dispatch__F
c0815e20   ti_sysbios_family_c64p_EventCombiner_enableEvent__E
c0815e20   ti_sysbios_family_c64p_EventCombiner_enableEvent__F
c0815e60   ti_sysbios_family_c64p_EventCombiner_unused__E
c0815e60   ti_sysbios_family_c64p_EventCombiner_unused__F
c081d234   ti_sysbios_family_c64p_Exception_E_exceptionMin__C
c081d4a8   ti_sysbios_family_c64p_Exception_Module__id__C
c081d944   ti_sysbios_family_c64p_Exception_Module__state__V
c08143c0   ti_sysbios_family_c64p_Exception_Module_startup__E
c08143c0   ti_sysbios_family_c64p_Exception_Module_startup__F
c07fc3e0   ti_sysbios_family_c64p_Exception_dispatch__E
c081d238   ti_sysbios_family_c64p_Exception_exceptionHook__C
c081d23c   ti_sysbios_family_c64p_Exception_externalHook__C
c07d10e0   ti_sysbios_family_c64p_Exception_handler__I
c07f2400   ti_sysbios_family_c64p_Exception_internalHandler__I
c081d240   ti_sysbios_family_c64p_Exception_internalHook__C
c081d244   ti_sysbios_family_c64p_Exception_nmiHook__C
c081ec00   ti_sysbios_family_c64p_Hwi0
c081d248   ti_sysbios_family_c64p_Hwi_E_alreadyDefined__C
c081d24c   ti_sysbios_family_c64p_Hwi_E_handleNotFound__C
c080a620   ti_sysbios_family_c64p_Hwi_Instance_finalize__F
c080a700   ti_sysbios_family_c64p_Hwi_Instance_init__F
c081d250   ti_sysbios_family_c64p_Hwi_LD_end__C
c081d254   ti_sysbios_family_c64p_Hwi_LM_begin__C
c081d258   ti_sysbios_family_c64p_Hwi_Module__diagsEnabled__C
c081d25c   ti_sysbios_family_c64p_Hwi_Module__diagsIncluded__C
c081d260   ti_sysbios_family_c64p_Hwi_Module__diagsMask__C
c081d4ac   ti_sysbios_family_c64p_Hwi_Module__id__C
c081d4b0   ti_sysbios_family_c64p_Hwi_Module__loggerDefined__C
c081d264   ti_sysbios_family_c64p_Hwi_Module__loggerFxn1__C
c081d268   ti_sysbios_family_c64p_Hwi_Module__loggerFxn8__C
c081d26c   ti_sysbios_family_c64p_Hwi_Module__loggerObj__C
c081d970   ti_sysbios_family_c64p_Hwi_Module__root__V
c0815ea0   ti_sysbios_family_c64p_Hwi_Module__startupDone__F
c0815ea0   ti_sysbios_family_c64p_Hwi_Module__startupDone__S
c081d978   ti_sysbios_family_c64p_Hwi_Module__state__V
c08015c0   ti_sysbios_family_c64p_Hwi_Module_startup__E
c08015c0   ti_sysbios_family_c64p_Hwi_Module_startup__F
c081cddc   ti_sysbios_family_c64p_Hwi_Object__DESC__C
c081caa4   ti_sysbios_family_c64p_Hwi_Object__PARAMS__C
c0804900   ti_sysbios_family_c64p_Hwi_Object__create__S
c0814420   ti_sysbios_family_c64p_Hwi_Object__delete__S
c081e288   ti_sysbios_family_c64p_Hwi_Object__table__V
c08172a0   ti_sysbios_family_c64p_Hwi_clearInterrupt__E
c0815ee0   ti_sysbios_family_c64p_Hwi_disableInterrupt__E
c07f49e0   ti_sysbios_family_c64p_Hwi_dispatchAlways
c07e7520   ti_sysbios_family_c64p_Hwi_dispatchC__I
c0815f20   ti_sysbios_family_c64p_Hwi_enableIER__E
c0815f60   ti_sysbios_family_c64p_Hwi_enableInterrupt__E
c0811be0   ti_sysbios_family_c64p_Hwi_eventMap__E
c081ec00   ti_sysbios_family_c64p_Hwi_int0
c081ec20   ti_sysbios_family_c64p_Hwi_int1
c081ed40   ti_sysbios_family_c64p_Hwi_int10
c081ed60   ti_sysbios_family_c64p_Hwi_int11
c081ed80   ti_sysbios_family_c64p_Hwi_int12
c081eda0   ti_sysbios_family_c64p_Hwi_int13
c081edc0   ti_sysbios_family_c64p_Hwi_int14
c081ede0   ti_sysbios_family_c64p_Hwi_int15
c081ec40   ti_sysbios_family_c64p_Hwi_int2
c081ec60   ti_sysbios_family_c64p_Hwi_int3
c081ec80   ti_sysbios_family_c64p_Hwi_int4
c081eca0   ti_sysbios_family_c64p_Hwi_int5
c081ecc0   ti_sysbios_family_c64p_Hwi_int6
c081ece0   ti_sysbios_family_c64p_Hwi_int7
c081ed00   ti_sysbios_family_c64p_Hwi_int8
c081ed20   ti_sysbios_family_c64p_Hwi_int9
c080ef40   ti_sysbios_family_c64p_Hwi_plug__E
c07f53e0   ti_sysbios_family_c64p_Hwi_reconfig__E
c08172c0   ti_sysbios_family_c64p_Hwi_startup__E
c08172e0   ti_sysbios_family_c64p_Hwi_switchFromBootStack__E
c0817300   ti_sysbios_family_c64p_Hwi_unPluggedInterrupt__I
c0817320   ti_sysbios_family_c64p_TimestampProvider_Module_startup__E
c0817320   ti_sysbios_family_c64p_TimestampProvider_Module_startup__F
c081e8a8   ti_sysbios_family_c64p_primus_TimerSupport_Module_State_0_suspSrc__A
c081d9e0   ti_sysbios_family_c64p_primus_TimerSupport_Module__state__V
c0814480   ti_sysbios_family_c64p_primus_TimerSupport_enable__E
c08159e0   ti_sysbios_family_xxx_Hwi_switchToIsrStack
c0816fe0   ti_sysbios_family_xxx_Hwi_switchToTaskStack
c08144e0   ti_sysbios_gates_GateHwi_Handle__label__S
c0817340   ti_sysbios_gates_GateHwi_Instance_init__F
c081cc5c   ti_sysbios_gates_GateHwi_Module__FXNS__C
c081d9e4   ti_sysbios_gates_GateHwi_Module__root__V
c081cdfc   ti_sysbios_gates_GateHwi_Object__DESC__C
c081d084   ti_sysbios_gates_GateHwi_Object__PARAMS__C
c0811c60   ti_sysbios_gates_GateHwi_Object__create__S
c0814540   ti_sysbios_gates_GateHwi_Object__delete__S
c081e8d8   ti_sysbios_gates_GateHwi_Object__table__V
c0817360   ti_sysbios_gates_GateHwi_enter__E
c0817380   ti_sysbios_gates_GateHwi_leave__E
c08173a0   ti_sysbios_gates_GateHwi_query__E
c08173a0   ti_sysbios_gates_GateHwi_query__F
c081d270   ti_sysbios_gates_GateMutex_A_badContext__C
c08145a0   ti_sysbios_gates_GateMutex_Handle__label__S
c081d274   ti_sysbios_gates_GateMutex_Instance_State_sem__O
c08173c0   ti_sysbios_gates_GateMutex_Instance_finalize__F
c0814600   ti_sysbios_gates_GateMutex_Instance_init__F
c081cc80   ti_sysbios_gates_GateMutex_Module__FXNS__C
c081d278   ti_sysbios_gates_GateMutex_Module__diagsEnabled__C
c081d27c   ti_sysbios_gates_GateMutex_Module__diagsIncluded__C
c081d280   ti_sysbios_gates_GateMutex_Module__diagsMask__C
c081d4b4   ti_sysbios_gates_GateMutex_Module__id__C
c081d9ec   ti_sysbios_gates_GateMutex_Module__root__V
c081ce1c   ti_sysbios_gates_GateMutex_Object__DESC__C
c081d09c   ti_sysbios_gates_GateMutex_Object__PARAMS__C
c0811ce0   ti_sysbios_gates_GateMutex_Object__create__S
c0814660   ti_sysbios_gates_GateMutex_Object__delete__S
c081e5d0   ti_sysbios_gates_GateMutex_Object__table__V
c07fa880   ti_sysbios_gates_GateMutex_enter__E
c0815fa0   ti_sysbios_gates_GateMutex_leave__E
c08173e0   ti_sysbios_gates_GateMutex_query__E
c08173e0   ti_sysbios_gates_GateMutex_query__F
c0817240   ti_sysbios_hal_Cache_CacheProxy_inv__E
c0817260   ti_sysbios_hal_Cache_CacheProxy_wbInv__E
c0817280   ti_sysbios_hal_Cache_CacheProxy_wb__E
c0817240   ti_sysbios_hal_Cache_inv__E
c0817260   ti_sysbios_hal_Cache_wbInv__E
c0817280   ti_sysbios_hal_Cache_wb__E
c081d284   ti_sysbios_hal_Hwi_E_stackOverflow__C
c0817400   ti_sysbios_hal_Hwi_HwiProxy_Module__startupDone__S
c0817420   ti_sysbios_hal_Hwi_HwiProxy_Object__create__S
c0817440   ti_sysbios_hal_Hwi_HwiProxy_Object__delete__S
c08172a0   ti_sysbios_hal_Hwi_HwiProxy_clearInterrupt__E
c0815ee0   ti_sysbios_hal_Hwi_HwiProxy_disableInterrupt__E
c0815f60   ti_sysbios_hal_Hwi_HwiProxy_enableInterrupt__E
c08172c0   ti_sysbios_hal_Hwi_HwiProxy_startup__E
c08172e0   ti_sysbios_hal_Hwi_HwiProxy_switchFromBootStack__E
c0815fe0   ti_sysbios_hal_Hwi_Instance_finalize__F
c08146c0   ti_sysbios_hal_Hwi_Instance_init__F
c081d4b8   ti_sysbios_hal_Hwi_Module__id__C
c081d9f4   ti_sysbios_hal_Hwi_Module__root__V
c0817460   ti_sysbios_hal_Hwi_Module_startup__E
c0817460   ti_sysbios_hal_Hwi_Module_startup__F
c081ce3c   ti_sysbios_hal_Hwi_Object__DESC__C
c081cb64   ti_sysbios_hal_Hwi_Object__PARAMS__C
c0804a20   ti_sysbios_hal_Hwi_Object__create__S
c0814720   ti_sysbios_hal_Hwi_Object__delete__S
c081e8b0   ti_sysbios_hal_Hwi_Object__table__V
c0817480   ti_sysbios_hal_Hwi_Params__init__S
c0814780   ti_sysbios_hal_Hwi_checkStack
c08172a0   ti_sysbios_hal_Hwi_clearInterrupt__E
c0815ee0   ti_sysbios_hal_Hwi_disableInterrupt__E
c0815f60   ti_sysbios_hal_Hwi_enableInterrupt__E
c08147e0   ti_sysbios_hal_Hwi_initStack
c08172c0   ti_sysbios_hal_Hwi_startup__E
c08172e0   ti_sysbios_hal_Hwi_switchFromBootStack__E
c081d9fc   ti_sysbios_hal_Timer_Module__root__V
c0816020   ti_sysbios_hal_Timer_Module__startupDone__F
c0816020   ti_sysbios_hal_Timer_Module__startupDone__S
c08174a0   ti_sysbios_hal_Timer_Module_startup__E
c08174a0   ti_sysbios_hal_Timer_Module_startup__F
c081e8b8   ti_sysbios_hal_Timer_Object__table__V
c08174c0   ti_sysbios_hal_Timer_TimerProxy_Module__startupDone__S
c08174e0   ti_sysbios_hal_Timer_TimerProxy_getExpiredCounts__E
c0817500   ti_sysbios_hal_Timer_TimerProxy_getPeriod__E
c0817520   ti_sysbios_hal_Timer_TimerProxy_setNextTick__E
c080a8c0   ti_sysbios_hal_Timer_TimerProxy_startup__E
c080a8c0   ti_sysbios_hal_Timer_startup__E
c081d288   ti_sysbios_heaps_HeapMem_A_align__C
c081d28c   ti_sysbios_heaps_HeapMem_A_heapSize__C
c081d290   ti_sysbios_heaps_HeapMem_A_invalidFree__C
c081d294   ti_sysbios_heaps_HeapMem_A_zeroBlock__C
c081d298   ti_sysbios_heaps_HeapMem_E_memory__C
c0814840   ti_sysbios_heaps_HeapMem_Handle__label__S
c07861a0   ti_sysbios_heaps_HeapMem_Instance_State_0_buf__A
c07e8f20   ti_sysbios_heaps_HeapMem_Instance_init__F
c0817540   ti_sysbios_heaps_HeapMem_Module_GateProxy_enter__E
c0817560   ti_sysbios_heaps_HeapMem_Module_GateProxy_leave__E
c08173e0   ti_sysbios_heaps_HeapMem_Module_GateProxy_query__E
c081cc0c   ti_sysbios_heaps_HeapMem_Module__FXNS__C
c081d29c   ti_sysbios_heaps_HeapMem_Module__diagsEnabled__C
c081d2a0   ti_sysbios_heaps_HeapMem_Module__diagsIncluded__C
c081d2a4   ti_sysbios_heaps_HeapMem_Module__diagsMask__C
c081d2a8   ti_sysbios_heaps_HeapMem_Module__gateObj__C
c081d4bc   ti_sysbios_heaps_HeapMem_Module__id__C
c081da04   ti_sysbios_heaps_HeapMem_Module__root__V
c081ce5c   ti_sysbios_heaps_HeapMem_Object__DESC__C
c081cca4   ti_sysbios_heaps_HeapMem_Object__PARAMS__C
c081d2ac   ti_sysbios_heaps_HeapMem_Object__count__C
c0811d60   ti_sysbios_heaps_HeapMem_Object__create__S
c08148a0   ti_sysbios_heaps_HeapMem_Object__delete__S
c0816060   ti_sysbios_heaps_HeapMem_Object__get__S
c081e7f0   ti_sysbios_heaps_HeapMem_Object__table__V
c07d4d00   ti_sysbios_heaps_HeapMem_alloc__E
c07d5300   ti_sysbios_heaps_HeapMem_free__E
c080cd20   ti_sysbios_heaps_HeapMem_getStats__E
c080f9e0   ti_sysbios_heaps_HeapMem_init__I
c0817580   ti_sysbios_heaps_HeapMem_isBlocking__E
c081d2b0   ti_sysbios_heaps_HeapMem_reqAlign__C
c080cde0   ti_sysbios_io_DEV_Instance_finalize__F
c08160a0   ti_sysbios_io_DEV_Instance_init__F
c081e6f8   ti_sysbios_io_DEV_Module_State_0_table__A
c081d4c0   ti_sysbios_io_DEV_Module__id__C
c081da0c   ti_sysbios_io_DEV_Module__root__V
c081da14   ti_sysbios_io_DEV_Module__state__V
c07f55e0   ti_sysbios_io_DEV_Module_startup__E
c07f55e0   ti_sysbios_io_DEV_Module_startup__F
c081ce7c   ti_sysbios_io_DEV_Object__DESC__C
c081ccc8   ti_sysbios_io_DEV_Object__PARAMS__C
c081d2b4   ti_sysbios_io_DEV_Object__count__C
c0804b40   ti_sysbios_io_DEV_Object__create__S
c08175a0   ti_sysbios_io_DEV_Object__get__S
c08175c0   ti_sysbios_io_DEV_Params__init__S
c07faa20   ti_sysbios_io_DEV_postInit__I
c081d2b8   ti_sysbios_io_DEV_tableSize__C
c081d2bc   ti_sysbios_io_GIO_A_badModel__C
c081d2c0   ti_sysbios_io_GIO_E_createFailed__C
c081d2c4   ti_sysbios_io_GIO_E_notFound__C
c081d2c8   ti_sysbios_io_GIO_Instance_State_doneList__O
c081d2cc   ti_sysbios_io_GIO_Instance_State_freeList__O
c0804c60   ti_sysbios_io_GIO_Instance_finalize__F
c07e35a0   ti_sysbios_io_GIO_Instance_init__F
c081d2d0   ti_sysbios_io_GIO_Module__diagsEnabled__C
c081d2d4   ti_sysbios_io_GIO_Module__diagsIncluded__C
c081d2d8   ti_sysbios_io_GIO_Module__diagsMask__C
c081d4c4   ti_sysbios_io_GIO_Module__id__C
c081da18   ti_sysbios_io_GIO_Module__root__V
c081ce9c   ti_sysbios_io_GIO_Object__DESC__C
c081cb90   ti_sysbios_io_GIO_Object__PARAMS__C
c0804d80   ti_sysbios_io_GIO_Object__create__S
c08175e0   ti_sysbios_io_GIO_Params__init__S
c07f3760   ti_sysbios_io_GIO_issue__E
c07feda0   ti_sysbios_io_GIO_reclaim__E
c07f7220   ti_sysbios_io_GIO_submit__E
c081d2dc   ti_sysbios_knl_Clock_A_badThreadType__C
c0801700   ti_sysbios_knl_Clock_Instance_finalize__F
c07edda0   ti_sysbios_knl_Clock_Instance_init__F
c081d2e0   ti_sysbios_knl_Clock_LM_begin__C
c081d2e4   ti_sysbios_knl_Clock_LM_tick__C
c081d2e8   ti_sysbios_knl_Clock_LW_delayed__C
c081d2ec   ti_sysbios_knl_Clock_Module_State_clockQ__O
c081d2f0   ti_sysbios_knl_Clock_Module__diagsEnabled__C
c081d2f4   ti_sysbios_knl_Clock_Module__diagsIncluded__C
c081d2f8   ti_sysbios_knl_Clock_Module__diagsMask__C
c081d4c8   ti_sysbios_knl_Clock_Module__id__C
c081d4cc   ti_sysbios_knl_Clock_Module__loggerDefined__C
c081d2fc   ti_sysbios_knl_Clock_Module__loggerFxn1__C
c081d300   ti_sysbios_knl_Clock_Module__loggerFxn2__C
c081d304   ti_sysbios_knl_Clock_Module__loggerObj__C
c081da20   ti_sysbios_knl_Clock_Module__root__V
c081da28   ti_sysbios_knl_Clock_Module__state__V
c0811de0   ti_sysbios_knl_Clock_Module_startup__E
c0811de0   ti_sysbios_knl_Clock_Module_startup__F
c081cebc   ti_sysbios_knl_Clock_Object__DESC__C
c081ccec   ti_sysbios_knl_Clock_Object__PARAMS__C
c080fa80   ti_sysbios_knl_Clock_Object__create__S
c08160e0   ti_sysbios_knl_Clock_Object__destruct__S
c0817600   ti_sysbios_knl_Clock_Params__init__S
c0811e60   ti_sysbios_knl_Clock_doTick__I
c0811ee0   ti_sysbios_knl_Clock_getTicks__E
c080cea0   ti_sysbios_knl_Clock_logTick__E
c0806d20   ti_sysbios_knl_Clock_startI__E
c080a7e0   ti_sysbios_knl_Clock_start__E
c081d308   ti_sysbios_knl_Clock_tickMode__C
c081d30c   ti_sysbios_knl_Clock_tickPeriod__C
c081d310   ti_sysbios_knl_Clock_tickSource__C
c07ebce0   ti_sysbios_knl_Clock_workFunc__E
c081d1a0   ti_sysbios_knl_Idle_coreList__A
c081d1a8   ti_sysbios_knl_Idle_coreList__C
c081d1b0   ti_sysbios_knl_Idle_funcList__A
c081d1b8   ti_sysbios_knl_Idle_funcList__C
c0817620   ti_sysbios_knl_Idle_loop__E
c080fb20   ti_sysbios_knl_Idle_run__E
c0817640   ti_sysbios_knl_Queue_Instance_init__F
c081da50   ti_sysbios_knl_Queue_Module__root__V
c081cedc   ti_sysbios_knl_Queue_Object__DESC__C
c081d0b4   ti_sysbios_knl_Queue_Object__PARAMS__C
c0811f60   ti_sysbios_knl_Queue_Object__create__S
c0814900   ti_sysbios_knl_Queue_Object__delete__S
c0817660   ti_sysbios_knl_Queue_Object__destruct__S
c0817680   ti_sysbios_knl_Queue_Object__get__S
c08176a0   ti_sysbios_knl_Queue_empty__E
c0816120   ti_sysbios_knl_Queue_get__E
c08176c0   ti_sysbios_knl_Queue_head__E
c08176e0   ti_sysbios_knl_Queue_next__E
c0816160   ti_sysbios_knl_Queue_put__E
c0817700   ti_sysbios_knl_Queue_remove__E
c081d314   ti_sysbios_knl_Semaphore_A_badContext__C
c081d318   ti_sysbios_knl_Semaphore_A_noEvents__C
c081d31c   ti_sysbios_knl_Semaphore_A_overflow__C
c081d320   ti_sysbios_knl_Semaphore_Instance_State_pendQ__O
c0817720   ti_sysbios_knl_Semaphore_Instance_finalize__F
c0801840   ti_sysbios_knl_Semaphore_Instance_init__F
c081d324   ti_sysbios_knl_Semaphore_LM_pend__C
c081d328   ti_sysbios_knl_Semaphore_LM_post__C
c081d32c   ti_sysbios_knl_Semaphore_Module__diagsEnabled__C
c081d330   ti_sysbios_knl_Semaphore_Module__diagsIncluded__C
c081d334   ti_sysbios_knl_Semaphore_Module__diagsMask__C
c081d4d0   ti_sysbios_knl_Semaphore_Module__id__C
c081d4d4   ti_sysbios_knl_Semaphore_Module__loggerDefined__C
c081d338   ti_sysbios_knl_Semaphore_Module__loggerFxn2__C
c081d33c   ti_sysbios_knl_Semaphore_Module__loggerFxn4__C
c081d340   ti_sysbios_knl_Semaphore_Module__loggerObj__C
c081da58   ti_sysbios_knl_Semaphore_Module__root__V
c081cefc   ti_sysbios_knl_Semaphore_Object__DESC__C
c081cd10   ti_sysbios_knl_Semaphore_Object__PARAMS__C
c080fbc0   ti_sysbios_knl_Semaphore_Object__create__S
c0814960   ti_sysbios_knl_Semaphore_Object__delete__S
c08161a0   ti_sysbios_knl_Semaphore_Object__destruct__S
c0817740   ti_sysbios_knl_Semaphore_Params__init__S
c08149c0   ti_sysbios_knl_Semaphore_pendTimeout__I
c07d9940   ti_sysbios_knl_Semaphore_pend__E
c07f2640   ti_sysbios_knl_Semaphore_post__E
c0817760   ti_sysbios_knl_Semaphore_reset__E
c081d344   ti_sysbios_knl_Swi_LD_end__C
c081d348   ti_sysbios_knl_Swi_LM_begin__C
c081d34c   ti_sysbios_knl_Swi_LM_post__C
c081e110   ti_sysbios_knl_Swi_Module_State_0_readyQ__A
c081d350   ti_sysbios_knl_Swi_Module__diagsEnabled__C
c081d354   ti_sysbios_knl_Swi_Module__diagsIncluded__C
c081d358   ti_sysbios_knl_Swi_Module__diagsMask__C
c081d4d8   ti_sysbios_knl_Swi_Module__id__C
c081d4dc   ti_sysbios_knl_Swi_Module__loggerDefined__C
c081d35c   ti_sysbios_knl_Swi_Module__loggerFxn1__C
c081d360   ti_sysbios_knl_Swi_Module__loggerFxn4__C
c081d364   ti_sysbios_knl_Swi_Module__loggerObj__C
c081da60   ti_sysbios_knl_Swi_Module__root__V
c081da68   ti_sysbios_knl_Swi_Module__state__V
c0814a20   ti_sysbios_knl_Swi_Module_startup__E
c0814a20   ti_sysbios_knl_Swi_Module_startup__F
c081d368   ti_sysbios_knl_Swi_Object__count__C
c08161e0   ti_sysbios_knl_Swi_Object__get__S
c081e680   ti_sysbios_knl_Swi_Object__table__V
c0817780   ti_sysbios_knl_Swi_disable__E
c0801980   ti_sysbios_knl_Swi_post__E
c0806e20   ti_sysbios_knl_Swi_restoreHwi__E
c07f3980   ti_sysbios_knl_Swi_run__I
c07fc560   ti_sysbios_knl_Swi_schedule__I
c0811fe0   ti_sysbios_knl_Swi_startup__E
c081d36c   ti_sysbios_knl_Task_A_badPriority__C
c081d370   ti_sysbios_knl_Task_A_badTaskState__C
c081d374   ti_sysbios_knl_Task_A_badThreadType__C
c081d378   ti_sysbios_knl_Task_A_badTimeout__C
c081d37c   ti_sysbios_knl_Task_A_noPendElem__C
c081d380   ti_sysbios_knl_Task_E_deleteNotAllowed__C
c081d384   ti_sysbios_knl_Task_E_spOutOfBounds__C
c081d388   ti_sysbios_knl_Task_E_stackOverflow__C
c07a61a0   ti_sysbios_knl_Task_Instance_State_0_hookEnv__A
c07b2788   ti_sysbios_knl_Task_Instance_State_0_stack__A
c07a61a8   ti_sysbios_knl_Task_Instance_State_1_hookEnv__A
c07b4788   ti_sysbios_knl_Task_Instance_State_1_stack__A
c07a61b0   ti_sysbios_knl_Task_Instance_State_2_hookEnv__A
c07b4f88   ti_sysbios_knl_Task_Instance_State_2_stack__A
c07a61b8   ti_sysbios_knl_Task_Instance_State_3_hookEnv__A
c07b5788   ti_sysbios_knl_Task_Instance_State_3_stack__A
c07a61c0   ti_sysbios_knl_Task_Instance_State_4_hookEnv__A
c07b7788   ti_sysbios_knl_Task_Instance_State_4_stack__A
c07d3420   ti_sysbios_knl_Task_Instance_finalize__F
c07e0a80   ti_sysbios_knl_Task_Instance_init__F
c081d38c   ti_sysbios_knl_Task_LD_block__C
c081d390   ti_sysbios_knl_Task_LD_exit__C
c081d394   ti_sysbios_knl_Task_LD_ready__C
c081d398   ti_sysbios_knl_Task_LM_setPri__C
c081d39c   ti_sysbios_knl_Task_LM_sleep__C
c081d3a0   ti_sysbios_knl_Task_LM_switch__C
c081e8e0   ti_sysbios_knl_Task_Module_State_0_idleTask__A
c081e190   ti_sysbios_knl_Task_Module_State_0_readyQ__A
c081d3a4   ti_sysbios_knl_Task_Module_State_inactiveQ__O
c081d3a8   ti_sysbios_knl_Task_Module_State_terminatedQ__O
c081d3ac   ti_sysbios_knl_Task_Module__diagsEnabled__C
c081d3b0   ti_sysbios_knl_Task_Module__diagsIncluded__C
c081d3b4   ti_sysbios_knl_Task_Module__diagsMask__C
c081d4e0   ti_sysbios_knl_Task_Module__id__C
c081d4e4   ti_sysbios_knl_Task_Module__loggerDefined__C
c081d3b8   ti_sysbios_knl_Task_Module__loggerFxn2__C
c081d3bc   ti_sysbios_knl_Task_Module__loggerFxn4__C
c081d3c0   ti_sysbios_knl_Task_Module__loggerObj__C
c081da84   ti_sysbios_knl_Task_Module__root__V
c081da8c   ti_sysbios_knl_Task_Module__state__V
c07db560   ti_sysbios_knl_Task_Module_startup__E
c07db560   ti_sysbios_knl_Task_Module_startup__F
c081cf1c   ti_sysbios_knl_Task_Object__DESC__C
c081c920   ti_sysbios_knl_Task_Object__PARAMS__C
c081d3c4   ti_sysbios_knl_Task_Object__count__C
c0804ea0   ti_sysbios_knl_Task_Object__create__S
c0814a80   ti_sysbios_knl_Task_Object__delete__S
c08177a0   ti_sysbios_knl_Task_Object__first__S
c0816220   ti_sysbios_knl_Task_Object__get__S
c081d3c8   ti_sysbios_knl_Task_Object__heap__C
c08177c0   ti_sysbios_knl_Task_Object__next__S
c081dd40   ti_sysbios_knl_Task_Object__table__V
c08177e0   ti_sysbios_knl_Task_Params__init__S
c0817800   ti_sysbios_knl_Task_SupportProxy_Module__startupDone__S
c0817200   ti_sysbios_knl_Task_SupportProxy_checkStack__E
c0817220   ti_sysbios_knl_Task_SupportProxy_getStackAlignment__E
c0811ae0   ti_sysbios_knl_Task_SupportProxy_start__E
c08114e0   ti_sysbios_knl_Task_SupportProxy_swap__E
c081d3cc   ti_sysbios_knl_Task_allBlockedFunc__C
c080cf60   ti_sysbios_knl_Task_allBlockedFunction__I
c0801ac0   ti_sysbios_knl_Task_blockI__E
c07f8b00   ti_sysbios_knl_Task_checkStacks__E
c081d3d0   ti_sysbios_knl_Task_defaultStackHeap__C
c081d3d4   ti_sysbios_knl_Task_defaultStackSize__C
c080fc60   ti_sysbios_knl_Task_deleteTerminatedTasksFunc__I
c081d4e8   ti_sysbios_knl_Task_deleteTerminatedTasks__C
c0817820   ti_sysbios_knl_Task_disable__E
c0814ae0   ti_sysbios_knl_Task_enter__I
c07ea280   ti_sysbios_knl_Task_exit__E
c0817840   ti_sysbios_knl_Task_getHookContext__E
c081cad8   ti_sysbios_knl_Task_hooks__A
c081d1c0   ti_sysbios_knl_Task_hooks__C
c081d4ec   ti_sysbios_knl_Task_initStackFlag__C
c081d3d8   ti_sysbios_knl_Task_numConstructedTasks__C
c081d3dc   ti_sysbios_knl_Task_numPriorities__C
c07f7400   ti_sysbios_knl_Task_postInit__I
c0812060   ti_sysbios_knl_Task_restore__E
c07f3ba0   ti_sysbios_knl_Task_schedule__I
c0817860   ti_sysbios_knl_Task_self__E
c0817880   ti_sysbios_knl_Task_setHookContext__E
c07e0e40   ti_sysbios_knl_Task_setPri__E
c0816260   ti_sysbios_knl_Task_sleepTimeout__I
c07ebf80   ti_sysbios_knl_Task_sleep__E
c07f3dc0   ti_sysbios_knl_Task_startCore__E
c08178a0   ti_sysbios_knl_Task_startup__E
c07fc6e0   ti_sysbios_knl_Task_unblockI__E
c081d3e0   ti_sysbios_timers_timer64_Timer_A_notAvailable__C
c081d3e4   ti_sysbios_timers_timer64_Timer_E_cannotSupport__C
c081e300   ti_sysbios_timers_timer64_Timer_Module_State_0_device__A
c081e718   ti_sysbios_timers_timer64_Timer_Module_State_0_gctrl__A
c081e738   ti_sysbios_timers_timer64_Timer_Module_State_0_handles__A
c081e758   ti_sysbios_timers_timer64_Timer_Module_State_0_intFreqs__A
c081d3e8   ti_sysbios_timers_timer64_Timer_Module__diagsEnabled__C
c081d3ec   ti_sysbios_timers_timer64_Timer_Module__diagsIncluded__C
c081d3f0   ti_sysbios_timers_timer64_Timer_Module__diagsMask__C
c081d4f0   ti_sysbios_timers_timer64_Timer_Module__id__C
c081dad4   ti_sysbios_timers_timer64_Timer_Module__root__V
c08162a0   ti_sysbios_timers_timer64_Timer_Module__startupDone__F
c08162a0   ti_sysbios_timers_timer64_Timer_Module__startupDone__S
c081dadc   ti_sysbios_timers_timer64_Timer_Module__state__V
c07d6480   ti_sysbios_timers_timer64_Timer_Module_startup__E
c07d6480   ti_sysbios_timers_timer64_Timer_Module_startup__F
c081e400   ti_sysbios_timers_timer64_Timer_Object__table__V
c0814480   ti_sysbios_timers_timer64_Timer_TimerSupportProxy_enable__E
c081d3f4   ti_sysbios_timers_timer64_Timer_anyMask__C
c081d3f8   ti_sysbios_timers_timer64_Timer_freqDivisor__C
c08120e0   ti_sysbios_timers_timer64_Timer_getCount__E
c08120e0   ti_sysbios_timers_timer64_Timer_getExpiredCounts__E
c07f75e0   ti_sysbios_timers_timer64_Timer_getFreq__E
c0812160   ti_sysbios_timers_timer64_Timer_getPeriod__E
c081d3fc   ti_sysbios_timers_timer64_Timer_numLocalTimers__C
c081d400   ti_sysbios_timers_timer64_Timer_numTimerDevices__C
c08178c0   ti_sysbios_timers_timer64_Timer_setNextTick__E
c07f8cc0   ti_sysbios_timers_timer64_Timer_setPeriodMicroSecs__E
c07fabc0   ti_sysbios_timers_timer64_Timer_start__E
c081d4f4   ti_sysbios_timers_timer64_Timer_startupNeeded__C
c080a8c0   ti_sysbios_timers_timer64_Timer_startup__E
c080d020   ti_sysbios_timers_timer64_Timer_stop__E
c081d404   ti_sysbios_xdcruntime_SemThreadSupport_Instance_State_sem__O
c08178e0   ti_sysbios_xdcruntime_SemThreadSupport_Instance_finalize__F
c08121e0   ti_sysbios_xdcruntime_SemThreadSupport_Instance_init__F
c081daf0   ti_sysbios_xdcruntime_SemThreadSupport_Module__root__V
c081cf3c   ti_sysbios_xdcruntime_SemThreadSupport_Object__DESC__C
c081d01c   ti_sysbios_xdcruntime_SemThreadSupport_Object__PARAMS__C
c080fd00   ti_sysbios_xdcruntime_SemThreadSupport_Object__create__S
c0814b40   ti_sysbios_xdcruntime_SemThreadSupport_Object__delete__S
c0817900   ti_sysbios_xdcruntime_SemThreadSupport_Params__init__S
c080d0e0   ti_sysbios_xdcruntime_SemThreadSupport_pend__E
c080d0e0   ti_sysbios_xdcruntime_SemThreadSupport_pend__F
c08162e0   ti_sysbios_xdcruntime_SemThreadSupport_post__E
c08162e0   ti_sysbios_xdcruntime_SemThreadSupport_post__F
c07bade8   tpseudo
c06fdc10   transParam
c07d3ca0   tskImageInput
c080f940   tskImageProcess
c07dd62c   tskTcpClient
c07dd3c0   tskTcpServer
c081ef5c   tuichao1
c081ef5d   tuichao2
c081ef44   uartRegs1
c081ef48   uartRegs2
c07bb178   udp6_stats
c06fdc40   udps
c0812260   unlink
c081df10   uppChanparamA
c081debc   uppChanparamARcv
c081df64   uppChanparamB
c081eeb0   uppDevHandle
c081eeb8   uppInHandle
c07bcf6c   uppIsr
c081eebc   uppOutHandle
c0200000   uppParams
c06fdc64   upseudo
c07d3b54   user_upp_init
c07d3bc4   user_upp_init1
c07bb150   vlan_mcb
c080fda0   write
c0814ba0   writemsg
c081d408   xdc_runtime_Assert_E_assertFailed__C
c080fe40   xdc_runtime_Assert_raise__I
c081d40c   xdc_runtime_Core_A_initializedParams__C
c081d410   xdc_runtime_Core_Module__diagsEnabled__C
c081d414   xdc_runtime_Core_Module__diagsIncluded__C
c081d418   xdc_runtime_Core_Module__diagsMask__C
c081d4f8   xdc_runtime_Core_Module__id__C
c08122e0   xdc_runtime_Core_assignLabel__I
c0812360   xdc_runtime_Core_assignParams__I
c07ee020   xdc_runtime_Core_createObject__I
c0807020   xdc_runtime_Core_deleteObject__I
c081d41c   xdc_runtime_Error_E_generic__C
c081d420   xdc_runtime_Error_E_memory__C
c081d424   xdc_runtime_Error_Module__diagsEnabled__C
c081d428   xdc_runtime_Error_Module__diagsIncluded__C
c081d42c   xdc_runtime_Error_Module__diagsMask__C
c081d4fc   xdc_runtime_Error_Module__loggerDefined__C
c081d430   xdc_runtime_Error_Module__loggerFxn8__C
c081d434   xdc_runtime_Error_Module__loggerObj__C
c081daf8   xdc_runtime_Error_Module__state__V
c0816320   xdc_runtime_Error_check__E
c0816320   xdc_runtime_Error_check__F
c0817920   xdc_runtime_Error_getMsg__E
c0817920   xdc_runtime_Error_getMsg__F
c0816360   xdc_runtime_Error_init__E
c0816360   xdc_runtime_Error_init__F
c081d500   xdc_runtime_Error_maxDepth__C
c081d438   xdc_runtime_Error_policy__C
c080a9a0   xdc_runtime_Error_print__E
c080a9a0   xdc_runtime_Error_print__F
c081d43c   xdc_runtime_Error_raiseHook__C
c07ee2a0   xdc_runtime_Error_raiseX__E
c07ee2a0   xdc_runtime_Error_raiseX__F
c0817940   xdc_runtime_Gate_enterSystem__E
c0817940   xdc_runtime_Gate_enterSystem__F
c0817960   xdc_runtime_Gate_leaveSystem__E
c0817960   xdc_runtime_Gate_leaveSystem__F
c081d440   xdc_runtime_IGateProvider_Interface__BASE__C
c081d444   xdc_runtime_IHeap_Interface__BASE__C
c081d448   xdc_runtime_IModule_Interface__BASE__C
c081d44c   xdc_runtime_Log_L_error__C
c08173a0   xdc_runtime_LoggerBuf_Module_GateProxy_query__E
c081dafc   xdc_runtime_LoggerBuf_Module__root__V
c081db04   xdc_runtime_LoggerBuf_Module__state__V
c080fee0   xdc_runtime_LoggerBuf_Module_startup__E
c080fee0   xdc_runtime_LoggerBuf_Module_startup__F
c081d450   xdc_runtime_LoggerBuf_Object__count__C
c08179c0   xdc_runtime_LoggerBuf_Object__get__S
c08173a0   xdc_runtime_Main_Module_GateProxy_query__E
c08179e0   xdc_runtime_Memory_HeapProxy_alloc__E
c0817a00   xdc_runtime_Memory_HeapProxy_free__E
c081d504   xdc_runtime_Memory_Module__id__C
c081db0c   xdc_runtime_Memory_Module__state__V
c080aa80   xdc_runtime_Memory_alloc__E
c080aa80   xdc_runtime_Memory_alloc__F
c0814c00   xdc_runtime_Memory_calloc__E
c0814c00   xdc_runtime_Memory_calloc__F
c081d454   xdc_runtime_Memory_defaultHeapInstance__C
c08163a0   xdc_runtime_Memory_free__E
c08163a0   xdc_runtime_Memory_free__F
c081db10   xdc_runtime_Registry_Module__state__V
c08163e0   xdc_runtime_Registry_findById__E
c08163e0   xdc_runtime_Registry_findById__F
c081db18   xdc_runtime_Startup_Module__state__V
00000001   xdc_runtime_Startup__EXECFXN__C
00000001   xdc_runtime_Startup__RESETFXN__C
c081d458   xdc_runtime_Startup_execImpl__C
c0807120   xdc_runtime_Startup_exec__E
c0807120   xdc_runtime_Startup_exec__F
c0817a20   xdc_runtime_Startup_exec__I
c081d1c8   xdc_runtime_Startup_firstFxns__A
c081d1d0   xdc_runtime_Startup_firstFxns__C
c081d460   xdc_runtime_Startup_lastFxns__A
c081d1d8   xdc_runtime_Startup_lastFxns__C
c081d45c   xdc_runtime_Startup_maxPasses__C
c0817a40   xdc_runtime_Startup_reset__I
c081cfe0   xdc_runtime_Startup_sfxnRts__A
c081d464   xdc_runtime_Startup_sfxnRts__C
c081c960   xdc_runtime_Startup_sfxnTab__A
c081d468   xdc_runtime_Startup_sfxnTab__C
c07f08e0   xdc_runtime_Startup_startMods__I
c07a61c8   xdc_runtime_SysMin_Module_State_0_outbuf__A
c081db20   xdc_runtime_SysMin_Module__state__V
c0814c60   xdc_runtime_SysMin_Module_startup__E
c0814c60   xdc_runtime_SysMin_Module_startup__F
c080ff80   xdc_runtime_SysMin_abort__E
c080ff80   xdc_runtime_SysMin_abort__F
c081d46c   xdc_runtime_SysMin_bufSize__C
c0814cc0   xdc_runtime_SysMin_exit__E
c0814cc0   xdc_runtime_SysMin_exit__F
c081d508   xdc_runtime_SysMin_flushAtExit__C
c0810020   xdc_runtime_SysMin_flush__E
c0810020   xdc_runtime_SysMin_flush__F
c081d470   xdc_runtime_SysMin_outputFunc__C
c08123e0   xdc_runtime_SysMin_output__I
c08100c0   xdc_runtime_SysMin_putch__E
c08100c0   xdc_runtime_SysMin_putch__F
c0817a60   xdc_runtime_SysMin_ready__E
c0817a60   xdc_runtime_SysMin_ready__F
c0817a80   xdc_runtime_System_Module_GateProxy_enter__E
c0817aa0   xdc_runtime_System_Module_GateProxy_leave__E
c08173a0   xdc_runtime_System_Module_GateProxy_query__E
c081e778   xdc_runtime_System_Module_State_0_atexitHandlers__A
c081d474   xdc_runtime_System_Module__gateObj__C
c081db2c   xdc_runtime_System_Module__state__V
c0817ac0   xdc_runtime_System_Module_startup__E
c0817ac0   xdc_runtime_System_Module_startup__F
c080ff80   xdc_runtime_System_SupportProxy_abort__E
c0814cc0   xdc_runtime_System_SupportProxy_exit__E
c0810020   xdc_runtime_System_SupportProxy_flush__E
c08100c0   xdc_runtime_System_SupportProxy_putch__E
c0817a60   xdc_runtime_System_SupportProxy_ready__E
c0816420   xdc_runtime_System_abort__E
c0816420   xdc_runtime_System_abort__F
c0816460   xdc_runtime_System_aprintf__E
c0814d20   xdc_runtime_System_aprintf_va__E
c0814d20   xdc_runtime_System_aprintf_va__F
c0812460   xdc_runtime_System_atexit__E
c0812460   xdc_runtime_System_atexit__F
c0814d20   xdc_runtime_System_avprintf__E
c0814d20   xdc_runtime_System_avprintf__F
c07cdf60   xdc_runtime_System_doPrint__I
c0817ae0   xdc_runtime_System_exit__E
c0817ae0   xdc_runtime_System_exit__F
c081d478   xdc_runtime_System_extendFxn__C
c0810020   xdc_runtime_System_flush__E
c0810020   xdc_runtime_System_flush__F
c080d260   xdc_runtime_System_formatNum__I
c0817b00   xdc_runtime_System_lastFxn__I
c081d47c   xdc_runtime_System_maxAtexitHandlers__C
c07ee520   xdc_runtime_System_printfExtend__I
c08164a0   xdc_runtime_System_printf__E
c0814d80   xdc_runtime_System_printf_va__E
c0814d80   xdc_runtime_System_printf_va__F
c08124e0   xdc_runtime_System_rtsExit__I
c0817b20   xdc_runtime_System_sprintf_va__E
c0817b20   xdc_runtime_System_sprintf_va__F
c0814d80   xdc_runtime_System_vprintf__E
c0814d80   xdc_runtime_System_vprintf__F
c0817b20   xdc_runtime_System_vsprintf__E
c0817b20   xdc_runtime_System_vsprintf__F
c081db38   xdc_runtime_Text_Module__state__V
c081d50c   xdc_runtime_Text_charCnt__C
c0817d20   xdc_runtime_Text_charTab__A
c081d480   xdc_runtime_Text_charTab__C
c0814de0   xdc_runtime_Text_cordText__E
c0814de0   xdc_runtime_Text_cordText__F
c081d510   xdc_runtime_Text_isLoaded__C
c081d484   xdc_runtime_Text_nameEmpty__C
c081d488   xdc_runtime_Text_nameStatic__C
c081d48c   xdc_runtime_Text_nameUnknown__C
c081b6a0   xdc_runtime_Text_nodeTab__A
c081d490   xdc_runtime_Text_nodeTab__C
c0812560   xdc_runtime_Text_printVisFxn__I
c08050e0   xdc_runtime_Text_putLab__E
c08050e0   xdc_runtime_Text_putLab__F
c0807220   xdc_runtime_Text_putMod__E
c0807220   xdc_runtime_Text_putMod__F
c07fc860   xdc_runtime_Text_putSite__E
c07fc860   xdc_runtime_Text_putSite__F
c081d514   xdc_runtime_Text_registryModsLastId__C
c08164e0   xdc_runtime_Text_ropeText__E
c08164e0   xdc_runtime_Text_ropeText__F
c081d518   xdc_runtime_Text_unnamedModsLastId__C
c0807320   xdc_runtime_Text_visitRope2__I
c081d494   xdc_runtime_Text_visitRopeFxn__C
c0817b40   xdc_runtime_Text_visitRope__I
c08125e0   xdc_runtime_Text_xprintf__I
c081d498   xdc_runtime_knl_ISemaphore_Interface__BASE__C
c081d49c   xdc_runtime_knl_ISync_Interface__BASE__C
c0814e40   xdc_runtime_knl_SemThread_Handle__label__S
c0816520   xdc_runtime_knl_SemThread_Instance_finalize__F
c0812660   xdc_runtime_knl_SemThread_Instance_init__F
c081cf5c   xdc_runtime_knl_SemThread_Module__FXNS__C
c081db40   xdc_runtime_knl_SemThread_Module__root__V
c081cf7c   xdc_runtime_knl_SemThread_Object__DESC__C
c081d038   xdc_runtime_knl_SemThread_Object__PARAMS__C
c0805200   xdc_runtime_knl_SemThread_Object__create__S
c0814ea0   xdc_runtime_knl_SemThread_Object__delete__S
c0817ba0   xdc_runtime_knl_SemThread_Params__init__S
c0817bc0   xdc_runtime_knl_SemThread_Proxy_Object__create__S
c0817be0   xdc_runtime_knl_SemThread_Proxy_Object__delete__S
c0817c00   xdc_runtime_knl_SemThread_Proxy_Params__init__S
c0817c20   xdc_runtime_knl_SemThread_Proxy_pend__E
c0817c40   xdc_runtime_knl_SemThread_Proxy_post__E
c0817c60   xdc_runtime_knl_SemThread_pend__E
c0817c60   xdc_runtime_knl_SemThread_pend__F
c0817c80   xdc_runtime_knl_SemThread_post__E
c0817c80   xdc_runtime_knl_SemThread_post__F
c081db48   xdc_runtime_knl_SyncNull_Module__root__V
c0814f00   xdc_runtime_knl_SyncSemThread_Handle__label__S
c0816560   xdc_runtime_knl_SyncSemThread_Instance_finalize__F
c0814f60   xdc_runtime_knl_SyncSemThread_Instance_init__F
c081cd34   xdc_runtime_knl_SyncSemThread_Module__FXNS__C
c081db50   xdc_runtime_knl_SyncSemThread_Module__root__V
c081cf9c   xdc_runtime_knl_SyncSemThread_Object__DESC__C
c081d0cc   xdc_runtime_knl_SyncSemThread_Object__PARAMS__C
c0807420   xdc_runtime_knl_SyncSemThread_Object__create__S
c0814fc0   xdc_runtime_knl_SyncSemThread_Object__delete__S
c0817ca0   xdc_runtime_knl_SyncSemThread_query__E
c0817ca0   xdc_runtime_knl_SyncSemThread_query__F
c0817cc0   xdc_runtime_knl_SyncSemThread_signal__E
c0817cc0   xdc_runtime_knl_SyncSemThread_signal__F
c08165a0   xdc_runtime_knl_SyncSemThread_wait__E
c08165a0   xdc_runtime_knl_SyncSemThread_wait__F
c0817ce0   xdc_runtime_knl_Sync_Proxy_signal__E
c0817d00   xdc_runtime_knl_Sync_Proxy_wait__E
c0817ce0   xdc_runtime_knl_Sync_signal__E
c0817ce0   xdc_runtime_knl_Sync_signal__F
c0817d00   xdc_runtime_knl_Sync_wait__E
c0817d00   xdc_runtime_knl_Sync_wait__F


GLOBAL SYMBOLS: SORTED BY Symbol Address 

address    name
--------   ----
00000000   _argsize
00000001   __TI_args_main
00000001   xdc_runtime_Startup__EXECFXN__C
00000001   xdc_runtime_Startup__RESETFXN__C
00001000   __TI_STACK_SIZE
80000000   _stack
80001000   __TI_STACK_END
c0200000   __ASM__
c0200000   uppParams
c0200098   __ISA__
c02000b0   __PLAT__
c02000c8   __TARG__
c02000f0   __TRDR__
c06fdc00   buf
c06fdc10   transParam
c06fdc40   udps
c06fdc64   upseudo
c06fdc70   stkEvent
c06fdc80   ti_ndk_config_Global_pBufMem
c074bc80   ti_ndk_config_Global_pHdrMem
c0751780   region0DescriptorSpace
c0765880   cppiInfo
c07659a0   dBuffer
c07859a0   dmaBuffer
c07861a0   ti_sysbios_heaps_HeapMem_Instance_State_0_buf__A
c07a61a0   ti_sysbios_knl_Task_Instance_State_0_hookEnv__A
c07a61a8   ti_sysbios_knl_Task_Instance_State_1_hookEnv__A
c07a61b0   ti_sysbios_knl_Task_Instance_State_2_hookEnv__A
c07a61b8   ti_sysbios_knl_Task_Instance_State_3_hookEnv__A
c07a61c0   ti_sysbios_knl_Task_Instance_State_4_hookEnv__A
c07a61c8   xdc_runtime_SysMin_Module_State_0_outbuf__A
c07a65c8   ti_ndk_config_Global_pit
c07a6788   ti_ndk_config_Global_pitBuffer
c07b2788   ti_sysbios_knl_Task_Instance_State_0_stack__A
c07b4788   ti_sysbios_knl_Task_Instance_State_1_stack__A
c07b4f88   ti_sysbios_knl_Task_Instance_State_2_stack__A
c07b5788   ti_sysbios_knl_Task_Instance_State_3_stack__A
c07b7788   ti_sysbios_knl_Task_Instance_State_4_stack__A
c07ba07c   raweth_pcb
c07ba4c0   MainConfig
c07ba840   _tmpnams
c07bac68   IPV6_LINKLOCALMASK
c07bac78   IPV6_MULTICASTMASK
c07bac88   IPV6_UNSPECIFIED_ADDRESS
c07bac98   IPV6_LOOPBACK_ADDRESS
c07baca8   IPV6_HOST_MASK
c07bacb8   IPV6_ALL_NODES_ADDRESS
c07bacc8   IPV6_ALL_ROUTER_ADDRESS
c07bacd8   ipv6mcb
c07bad30   tcps
c07bade8   tpseudo
c07badf4   tcp6_stats
c07baeb0   _ICMPIn
c07baf00   _ICMPOut
c07baf50   BlockMax
c07baf70   BlockCount
c07baf90   PageMax
c07bafb0   PageCount
c07bafcc   ips
c07bb034   nimu_mcb
c07bb098   HT82V46APar
c07bb150   vlan_mcb
c07bb178   udp6_stats
c07bb1a0   g_pfTickHandlers
c07bb1b0   g_pvTickInstance
c07bb1bc   icmp6stats
c07bb1ec   raws
c07bb1fc   raw6_stats
c07bb20c   raweths
c07bb21c   PBMQ_free
c07bb230   ti_sysbios_family_c64p_EventCombiner_EVTMASK__C
c07bb278   Upp_init
c07bc288   Upp_localValidateChanParams
c07bc708   Upp_localConfigureChanA
c07bca48   Upp_localConfigureChanB
c07bcd48   Upp_localDisableInterrupts
c07bcdf0   Upp_localEnableInterrupts
c07bcf6c   uppIsr
c07bdba0   Upp_localLpscOn
c07bdc04   Upp_localLpscOff
c07bdc64   Upp_localLoadPendedIops
c07be0ac   USBHCDPipeAllocSize
c07be324   USBHCDPipeAlloc
c07be344   USBHCDPipeConfig
c07be514   USBHCDPipeStatus
c07be528   USBHCDPipeWrite
c07be708   USBHCDPipeSchedule
c07be7ac   USBHCDPipeReadNonBlocking
c07be814   USBHCDPipeRead
c07be9d8   USBHCDPipeFree
c07bed90   USBHCDPowerConfigInit
c07beda8   USBHCDPowerConfigGet
c07bedc0   USBHCDPowerConfigSet
c07bee44   USBHCDPowerAutomatic
c07bee6c   USBHCDInit
c07bef48   USBHCDRegisterDrivers
c07bef70   USBHCDTerm
c07bf054   USBHCDReset
c07bf090   USBHCDSuspend
c07bf0a8   USBHCDResume
c07bf2f8   USBHCDSetAddress
c07bf450   USBHCDSetConfig
c07bf4b4   USBHCDSetInterface
c07bf524   USBHostCheckPipes
c07bf648   USBHostIntHandlerInternal
c07bfc14   USB0HostIntHandler
c07bfd70   InternalUSBHCDSendEvent
c07bff08   USBHCDMain
c07c01f8   USBHCDControlTransfer
c07c0660   Cppi41DmaInit
c07c0dec   enableCoreTxDMA
c07c0ed0   enableCoreRxDMA
c07c0f90   disableCoreRxDMA
c07c1058   disableCoreTxDMA
c07c13ac   getFreeBd
c07c1404   putFreeBd
c07c1458   pushToSubmitQ
c07c14cc   doDmaTxTransfer
c07c1808   doDmaRxTransfer
c07c18a0   dmaTxCompletion
c07c19c4   dmaRxCompletion
c07c1a58   CppiDmaGetPendStatus
c07c1a84   CppiDmaGetINTD0Status
c07c1f20   cppiDmaAllocBuffer
c07c1fb0   cppiDmaFreeBuffer
c07c202c   cppiDmaAllocnBuffer
c07c2130   cppiDmaFreenBuffer
c07c2208   cppiDmaHandleError
c07c2220   TcpInput
c07c3c20   TCP6Input
c07c5688   USBHostSuspend
c07c56a8   USBHostReset
c07c56e4   USBHostResume
c07c5720   USBHostSpeedGet
c07c5760   USBIntStatus
c07c5808   USBIntDisable
c07c58cc   USBIntEnable
c07c5990   USBIntDisableControl
c07c59f4   USBIntEnableControl
c07c5a58   USBIntStatusControl
c07c5ad4   USBIntDisableEndpoint
c07c5b20   USBIntEnableEndpoint
c07c5b68   USBIntStatusEndpoint
c07c5b98   USBEndpointStatus
c07c5bd8   USBHostEndpointStatusClear
c07c5c58   USBDevEndpointStatusClear
c07c5d34   USBHostEndpointDataToggle
c07c5e28   USBEndpointDataToggleClear
c07c5e78   USBDevEndpointStall
c07c5eec   USBDevEndpointStallClear
c07c5fa8   USBDevConnect
c07c5fc4   USBDevDisconnect
c07c5fe0   USBDevAddrSet
c07c6000   USBDevAddrGet
c07c6014   USBHostEndpointConfig
c07c6270   USBDevEndpointConfigSet
c07c63d4   USBDevEndpointConfigGet
c07c6534   USBFIFOConfigSet
c07c65b8   USBFIFOConfigGet
c07c664c   USBEndpointDMAEnable
c07c66a0   USBEndpointDMADisable
c07c66f0   USBEndpointDataAvail
c07c6740   USBEndpointDataGet
c07c67f8   USBDevEndpointDataAck
c07c684c   USBHostEndpointDataAck
c07c6890   USBEndpointDataPut
c07c6928   USBEndpointDataSend
c07c698c   USBFIFOFlush
c07c6a48   USBHostRequestIN
c07c6a74   USBHostRequestStatus
c07c6a90   USBHostAddrSet
c07c6ae8   USBHostAddrGet
c07c6b30   USBHostHubAddrSet
c07c6b88   USBHostHubAddrGet
c07c6bd0   USBHostPwrConfig
c07c6c1c   USBHostPwrFaultEnable
c07c6c38   USBHostPwrFaultDisable
c07c6c58   USBHostPwrEnable
c07c6c80   USBHostPwrDisable
c07c6ca4   USBFrameNumberGet
c07c6cb8   USBOTGSessionRequest
c07c6d08   USBFIFOAddrGet
c07c6d28   USBModeGet
c07c6d48   USBEndpointDMAChannel
c07c6dac   USBHostMode
c07c6dd0   USBEnableOtgIntr
c07c6df8   USBReset
c07c6e48   USBClearOtgIntr
c07c6e54   USBEnableInt
c07c6e74   USBClearInt
c07c6e90   USBModuleClkEnable
c07c6ea4   USBModuleClkDisable
c07c6ec0   TcpOutput
c07c8100   TCP6Output
c07c9280   EMAC_open
c07c9ee0   httpClientProcess
c07caae0   IPRxPacket
c07cb670   Upp_localSubmitIoctl
c07cbf60   Upp_localAbortChan
c07ccc00   IPTxPacket
c07cd5c0   lcpInput
c07cdf60   xdc_runtime_System_doPrint__I
c07cf200   ipcpInput
c07cf9e0   SockSet
c07d01a0   UARTConfigSetExpClk
c07d0234   UARTConfigGetExpClk
c07d02c8   UARTFIFOLevelSet
c07d02ec   UARTDMAEnable
c07d030c   UARTDMADisable
c07d032c   UARTParityModeSet
c07d0374   UARTParityModeGet
c07d0398   UARTEnable
c07d03b4   UARTDisable
c07d03e0   UARTFIFOEnable
c07d03f4   UARTFIFODisable
c07d040c   UARTSpaceAvail
c07d0438   UARTCharsAvail
c07d0468   UARTRxErrorGet
c07d0488   UARTCharPutNonBlocking
c07d04c8   UARTCharGetNonBlocking
c07d04f4   UARTCharGet
c07d0530   UARTCharPut
c07d0588   UARTIntEnable
c07d05b0   UARTIntDisable
c07d05d8   UARTIntStatus
c07d0604   UARTBreakCtl
c07d0638   UARTModemControlSet
c07d0690   UARTModemControlClear
c07d06c4   UARTModemControlGet
c07d06e4   UARTModemStatusGet
c07d0704   UART_init
c07d07f0   UART_txByte
c07d0810   UART_txArray
c07d0874   UART_txString
c07d08b4   UART_txUint8
c07d0940   fdPoll
c07d10e0   ti_sysbios_family_c64p_Exception_handler__I
c07d1860   MDIO_timerTick
c07d1fc0   HT82V46A_ADC_Init
c07d200c   SendHT82V46AData
c07d2154   SendHT82V46BData
c07d2248   SetHT82V46APar
c07d2da0   ICMPv6RecvRA
c07d3420   ti_sysbios_knl_Task_Instance_finalize__F
c07d3b54   user_upp_init
c07d3bc4   user_upp_init1
c07d3c2c   UPPDEV_init
c07d3ca0   tskImageInput
c07d4100   Rt6Create
c07d4700   configureGuaoC6748
c07d4d00   ti_sysbios_heaps_HeapMem_alloc__E
c07d5300   ti_sysbios_heaps_HeapMem_free__E
c07d5900   IPReasm
c07d6480   ti_sysbios_timers_timer64_Timer_Module_startup__E
c07d6480   ti_sysbios_timers_timer64_Timer_Module_startup__F
c07d6a40   ICMPInput
c07d6fe0   __c6xabi_divd
c07d7580   pppEvent
c07d7b00   IPv6IPAddressToString
c07d8060   SockNew
c07d8580   httpSendStatusLine
c07d8aa0   LLIRxPacket
c07d8f80   UdpInput
c07d9940   ti_sysbios_knl_Semaphore_pend__E
c07d9e20   Sock6Connect
c07da2e0   Sock6Set
c07da7a0   Sock6Recv
c07dac40   SockRecv
c07db0e0   Bind6New
c07db560   ti_sysbios_knl_Task_Module_startup__E
c07db560   ti_sysbios_knl_Task_Module_startup__F
c07db9e0   _printfi
c07dc2a0   pppNew
c07dc700   Sock6New
c07dcb40   fdSelect
c07dd3c0   tskTcpServer
c07dd62c   tskTcpClient
c07ddc20   chapInput
c07de460   Sock6Send
c07de860   efs_filecheck
c07dec60   IPv6TxFragPacket
c07df040   EMAC_close
c07df400   IPv6TxPacket
c07dfb80   SockSend
c07dff40   TCP6TimeoutCheck
c07e0300   TcpTimeoutCheck
c07e06c0   NetworkMain
c07e0a80   ti_sysbios_knl_Task_Instance_init__F
c07e0e40   ti_sysbios_knl_Task_setPri__E
c07e1200   NIMUIoctl
c07e15a0   RtCreate
c07e1940   SBRead
c07e1ce0   fputs
c07e2080   papInput
c07e2420   ICMPv6RxPacket
c07e27a0   IGMPInput
c07e2b20   Psc_ModuleClkCtrl
c07e2e28   Psc_getDependencyCount
c07e2e70   Psc_init
c07e2ea0   SockConnect
c07e3220   dhcpPacketProcess
c07e35a0   ti_sysbios_io_GIO_Instance_init__F
c07e3c80   LLITxIpPacket
c07e3fe0   Sock6Notify
c07e4340   SockNotify
c07e46a0   ICMPv6SendParameterProblem
c07e49e0   mmAlloc
c07e4d20   pppoeSI
c07e5060   CfgAddEntry
c07e5380   ICMPv6RecvRedirect
c07e6000   USBDescGetNum
c07e6088   USBDescGet
c07e6124   USBDescGetNumAlternateInterfaces
c07e6298   USBDescGetInterface
c07e62d8   USBDescGetInterfaceEndpoint
c07e6320   ICMPv6SendDstUnreachable
c07e6620   ICMPv6SendTimeExceeded
c07e6c20   Sock6PcbBind
c07e6f20   Udp6Input
c07e7220   inet_aton
c07e7520   ti_sysbios_family_c64p_Hwi_dispatchC__I
c07e7820   HwPktOpen
c07e7b00   ICMPv6RecvNS
c07e7de0   Rt6Find
c07e83a0   UdpOutput
c07e89b0   SemInit
c07e8ad4   fr_ScomSetup
c07e8bc4   fr_IntrInit
c07e8bf0   main
c07e8c40   pppInput
c07e8f20   ti_sysbios_heaps_HeapMem_Instance_init__F
c07e9200   BindNew
c07e9780   RtFind
c07e9a40   SB6Read
c07e9d00   Sock6PcbResolve
c07e9fc0   Udp6Output
c07ea280   TaskExit
c07ea280   ti_sysbios_knl_Task_exit__E
c07ea540   DHCPOpen
c07ea7e0   IPv6ParseExtnHeaders
c07eaa80   NodeAdd
c07eafc0   SockClose
c07eb260   TCP6PrSetOption
c07eb500   TcpPrSetOption
c07ebce0   ti_sysbios_knl_Clock_workFunc__E
c07ebf80   TaskSleep
c07ebf80   ti_sysbios_knl_Task_sleep__E
c07ec220   CfgSave
c07ec4a0   ICMPGenPacket
c07ecc20   Rt6Free
c07ecea0   SockPcbResolve
c07ed120   SockRecvNC
c07ed3a0   TCP6GenPacket
c07edb20   ti_sysbios_family_c64p_Cache_Module_startup__E
c07edb20   ti_sysbios_family_c64p_Cache_Module_startup__F
c07edda0   ti_sysbios_knl_Clock_Instance_init__F
c07ee020   xdc_runtime_Core_createObject__I
c07ee2a0   xdc_runtime_Error_raiseX__E
c07ee2a0   xdc_runtime_Error_raiseX__F
c07ee520   xdc_runtime_System_printfExtend__I
c07ee7a0   ICMPv6SendNS
c07eea00   Interrupt_add
c07eec60   LLI6TxIPPacket
c07eeec0   NIMUReceivePacket
c07ef120   RawEthSockSet
c07ef380   SB6Write
c07ef5e0   SBWrite
c07ef840   Sock6Close
c07efaa0   SockPcbBind
c07efd00   __c6xabi_divull
c07f01c0   httpParseRecv
c07f08e0   xdc_runtime_Startup_startMods__I
c07f0d80   DaemonNew
c07f1200   ICMPv6RecvNA
c07f1440   ICMPv6SendNA
c07f1680   PipeRecv
c07f18c0   RawInput
c07f1f80   dhcpState
c07f21c0   dhcpVerifyMessage
c07f2400   ti_sysbios_family_c64p_Exception_internalHandler__I
c07f2640   ti_sysbios_knl_Semaphore_post__E
c07f2aa0   IPv6RxPacket
c07f2cc0   RawEthSockNew
c07f3320   fputc
c07f3760   ti_sysbios_io_GIO_issue__E
c07f3980   ti_sysbios_knl_Swi_run__I
c07f3ba0   ti_sysbios_knl_Task_schedule__I
c07f3dc0   ti_sysbios_knl_Task_startCore__E
c07f3fe0   IPv6ParseFragHdr
c07f41e0   LLI6New
c07f43e0   RTCReport
c07f45e0   Raw6Output
c07f49e0   ti_sysbios_family_c64p_Hwi_dispatchAlways
c07f4be0   accept
c07f51e0   setvbuf
c07f53e0   ti_sysbios_family_c64p_Hwi_reconfig__E
c07f55e0   ti_sysbios_io_DEV_Module_startup__E
c07f55e0   ti_sysbios_io_DEV_Module_startup__F
c07f57e0   EMAC_setReceiveFilter
c07f59c0   EmacInit
c07f5d80   Rt6Modify
c07f6140   TcpGenPacket
c07f6320   TcpTimeoutRexmt
c07f66e0   dhcpSocketOpen
c07f68c0   pinmuxConfig
c07f6920   EMAC_initialize
c07f69a8   EMAC_getConfig
c07f6a58   EMAC_linkStatus
c07f6c80   recvnc
c07f6ec8   SCOM_init
c07f6ed8   SCOM_exit
c07f6ee8   SCOM_create
c07f6f4c   SCOM_open
c07f6fb4   SCOM_delete
c07f6fd4   SCOM_putMsg
c07f7004   SCOM_getMsg
c07f7040   sendto
c07f7220   ti_sysbios_io_GIO_submit__E
c07f7400   ti_sysbios_knl_Task_postInit__I
c07f75e0   ti_sysbios_timers_timer64_Timer_getFreq__E
c07f77c0   CfgExecute
c07f7980   EMAC_sendPacket
c07f7b40   IPGetRoute
c07f7ec0   LLIGenArpPacket
c07f8240   _LLITimeoutCheck
c07f8940   fdClose
c07f8b00   ti_sysbios_knl_Task_checkStacks__E
c07f8cc0   ti_sysbios_timers_timer64_Timer_setPeriodMicroSecs__E
c07f8e80   Bind6Msg
c07f9020   CfgRemoveEntry
c07f9360   IPv6FragMsg
c07f96a0   NC_NetStart
c07f9840   NodeTreeFree
c07f99e0   Raw6Input
c07f9d20   SockCreatePacket
c07fa060   TCP6TimeoutRexmt
c07fa200   __c6xabi_divul
c07fa3a0   dhcpBuildOptions
c07fa540   getpeername
c07fa880   ti_sysbios_gates_GateMutex_enter__E
c07faa20   ti_sysbios_io_DEV_postInit__I
c07fabc0   ti_sysbios_timers_timer64_Timer_start__E
c07fad60   Bind6GetGlobalAddress
c07faee0   EMAC_RxServiceCheck
c07fb060   HOSTrename
c07fb1e0   IGMPMsg
c07fb360   NIMURegister
c07fbc60   bind
c07fbde0   connect
c07fbf60   dhcpBuildRequest
c07fc0e0   llEnter
c07fc3e0   ti_sysbios_family_c64p_Exception_dispatch__E
c07fc560   ti_sysbios_knl_Swi_schedule__I
c07fc6e0   ti_sysbios_knl_Task_unblockI__E
c07fc860   xdc_runtime_Text_putSite__E
c07fc860   xdc_runtime_Text_putSite__F
c07fc9e0   CfgGetEntry
c07fcb40   CfgGetNextEntry
c07fcca0   CfgLoad
c07fce00   EMAC_TxServiceCheck
c07fcf60   HwPktSetRx
c07fd0c0   HwPktTxNext
c07fd4e0   PipeSend
c07fd640   RawOutput
c07fd900   RtWalkNext
c07fdbc0   Sock6Check
c07fdd20   Sock6CreatePacket
c07fde80   Sock6PcbConnect
c07fdfe0   SockCheck
c07fe140   SockPcbConnect
c07fe400   TCP6TimeoutKeep
c07fe560   TcpTimeoutKeep
c07fe6c0   _HwPktPoll
c07fe820   authInit
c07feae0   setsockopt
c07fec40   telnetClientProcess
c07feda0   ti_sysbios_io_GIO_reclaim__E
c07fef00   Bind6Free
c07ff040   ExecOpen
c07ff180   ICMPSendRtAdv
c07ff2c0   IGMPJoin
c07ff400   IPv6DisplayIPAddress
c07ff680   LLINew
c07ff7c0   NodeFind
c07ff900   NodeWalk
c07ffa40   PBM_alloc
c07ffb80   PBM_free
c07ffe00   SB6New
c0800080   Sock6Accept
c08001c0   Sock6Listen
c0800300   SockAccept
c0800440   SockListen
c0800580   SockPcbCtlError
c08006c0   _auto_init_elf
c0800a80   dhcpDecodeType
c0800f80   httpAuthenticationReq
c08010c0   mmCopy
c0801340   recv
c0801480   send
c08015c0   ti_sysbios_family_c64p_Hwi_Module_startup__E
c08015c0   ti_sysbios_family_c64p_Hwi_Module_startup__F
c0801700   ti_sysbios_knl_Clock_Instance_finalize__F
c0801840   ti_sysbios_knl_Semaphore_Instance_init__F
c0801980   ti_sysbios_knl_Swi_post__E
c0801ac0   ti_sysbios_knl_Task_blockI__E
c0801c00   Bind6DADCheck
c0801e40   BindFree
c0801f60   CfgFree
c0802080   DaemonFree
c0802080   TelnetClose
c0802080   httpClose
c08021a0   FdWaitEvent
c08022c0   IGMPLeaveHostGroup
c08023e0   IPMsg
c0802740   IPv6Init
c0802860   IsICMPv6ErrorPkt
c0802980   MD5Update
c0802aa0   MLDJoinGroup
c0802bc0   NC_SystemOpen
c0802ce0   NIMUAddEthernetHeader
c0802e00   RawEthRxPacket
c0802f20   RawEthSockRecvNC
c0803040   RawEthTxPacket
c0803280   SBNew
c08035e0   Sock6Shutdown
c0803820   SockShutdown
c0803940   TCP6PrAttach
c0803a60   TcpPrAttach
c0803b80   TelnetOpen
c0803ca0   _RtNodeInsert
c0803dc0   _closefile
c0804000   _mmInit
c0804240   fdOpenSession
c0804360   fseek
c0804480   httpOpen
c08045a0   lcpReject
c08047e0   socket
c0804900   ti_sysbios_family_c64p_Hwi_Object__create__S
c0804a20   ti_sysbios_hal_Hwi_Object__create__S
c0804b40   ti_sysbios_io_DEV_Object__create__S
c0804c60   ti_sysbios_io_GIO_Instance_finalize__F
c0804d80   ti_sysbios_io_GIO_Object__create__S
c0804ea0   ti_sysbios_knl_Task_Object__create__S
c0804fc0   InternalUSBTickInit
c0805028   InternalUSBRegisterTickHandler
c0805060   InternalUSBStartOfFrameTick
c08050e0   xdc_runtime_Text_putLab__E
c08050e0   xdc_runtime_Text_putLab__F
c0805200   xdc_runtime_knl_SemThread_Object__create__S
c0805320   CfgGetEntryCnt
c0805420   CfgNew
c0805520   CfgSetExecuteOrder
c0805620   DbgPrintf
c0805720   HOSTlseek
c0805920   IPv6GetSubnetMaskFromBits
c0805b20   RTCMsg
c0805c20   RawEthSockCheck
c0805d20   RtRedirect
c0805e20   Sock6Disconnect
c0805f20   SockValidateRoute
c0806120   TCP6PrInherit
c0806220   TCP6XmitTimer
c0806320   TcpPrInherit
c0806420   TcpXmitTimer
c0806520   _wrt_ok
c0806720   fprintf
c0806920   lcpOpen
c0806a20   listen
c0806b20   mmFree
c0806c20   ti_sysbios_family_c64p_EventCombiner_dispatch__E
c0806c20   ti_sysbios_family_c64p_EventCombiner_dispatch__F
c0806d20   ti_sysbios_knl_Clock_startI__E
c0806e20   ti_sysbios_knl_Swi_restoreHwi__E
c0807020   xdc_runtime_Core_deleteObject__I
c0807120   xdc_runtime_Startup_exec__E
c0807120   xdc_runtime_Startup_exec__F
c0807220   xdc_runtime_Text_putMod__E
c0807220   xdc_runtime_Text_putMod__F
c0807320   xdc_runtime_Text_visitRope2__I
c0807420   xdc_runtime_knl_SyncSemThread_Object__create__S
c0807520   Bind6GetLinkLocalAddress
c0807600   HOSTopen
c08076e0   IGMPLeave
c0807980   LLI6Msg
c0807a60   LLI6Update
c0807de0   NodeDeRef
c0807fa0   NodeTreeNew
c0808080   PBMQ_enq
c0808160   PBM_copy
c0808240   RawEthSockNotify
c0808320   RawEthSockPcbAttach
c0808400   RawEthSockSend
c08084e0   Route6Msg
c08085c0   RtRemove
c08086a0   SBReadNC
c0808780   SBSetMax
c0808860   Sock6IntAbort
c0808940   Sock6SpawnAbort
c0808a20   Sock6ValidateRoute
c0808b00   SockDisconnect
c0808be0   SockSpawnAbort
c0808cc0   TCP6PrDetach
c0808da0   TCP6PrDisconnect
c0808e80   TCP6TimeoutSackRexmt
c0808f60   TCP6ValidateMetrics
c0809040   TcpPrDetach
c0809120   TcpPrDisconnect
c0809200   TcpTimeoutSackRexmt
c08092e0   TcpValidateMetrics
c08094a0   UdpChecksum
c0809580   VLANDeinit
c0809660   VLANReceivePacket
c0809820   _LLIExpListInsert
c0809900   _RtExpListInsert
c08099e0   _RtNodeRemove
c0809ac0   atoi
c0809ba0   close
c0809c80   __TI_zero_init
c0809d60   fdint_lockfd
c0809e40   fdint_unlockfd
c0809f20   fflush
c080a0e0   llExit
c080a1c0   ltoa
c080a2a0   memset
c080a380   mmBulkAlloc
c080a460   pppFree
c080a540   printf
c080a620   ti_sysbios_family_c64p_Hwi_Instance_finalize__F
c080a700   ti_sysbios_family_c64p_Hwi_Instance_init__F
c080a7e0   ti_sysbios_knl_Clock_start__E
c080a8c0   ti_sysbios_hal_Timer_TimerProxy_startup__E
c080a8c0   ti_sysbios_hal_Timer_startup__E
c080a8c0   ti_sysbios_timers_timer64_Timer_startup__E
c080a9a0   xdc_runtime_Error_print__E
c080a9a0   xdc_runtime_Error_print__F
c080aa80   xdc_runtime_Memory_alloc__E
c080aa80   xdc_runtime_Memory_alloc__F
c080ab60   DHCPClose
c080ac20   HOSTread
c080ace0   HOSTunlink
c080ada0   HOSTwrite
c080af20   IPv6Layer4ComputeChecksum
c080afe0   LLIGetValidTime
c080b0a0   LLIMsg
c080b160   MDIO_initPHY
c080b2e0   MLDLeaveGroup
c080b3a0   NIMUFindByName
c080b460   NS_BootTask
c080b5e0   NtIfIdx2Ip
c080b6a0   Rt6FindDefaultRouter
c080b760   RtDeRef
c080b820   RtWalkBegin
c080b8e0   SB6Flush
c080b9a0   SB6SetMax
c080ba60   SBFlush
c080bb20   Sock6PcbResolveChain
c080bbe0   Sock6PcbRtChange
c080bca0   SockIntAbort
c080bd60   SockPcbRtChange
c080be20   TCP6Close
c080bee0   TaskGetEnv
c080bfa0   TcpChecksum
c080c060   TcpClose
c080c360   __cxa_finalize
c080c420   __c6xabi_divu
c080c420   __divu
c080c4e0   __c6xabi_remi
c080c4e0   __remi
c080c660   _doflush
c080c720   dhcpOptionsClear
c080c7e0   efs_fopen
c080c960   exit
c080ca20   httpSendFullResponse
c080cae0   mmZeroInit
c080cc60   ti_sysbios_BIOS_errorRaiseHook__I
c080cd20   ti_sysbios_heaps_HeapMem_getStats__E
c080cde0   ti_sysbios_io_DEV_Instance_finalize__F
c080cea0   ti_sysbios_knl_Clock_logTick__E
c080cf60   ti_sysbios_knl_Task_allBlockedFunction__I
c080d020   ti_sysbios_timers_timer64_Timer_stop__E
c080d0e0   ti_sysbios_xdcruntime_SemThreadSupport_pend__E
c080d0e0   ti_sysbios_xdcruntime_SemThreadSupport_pend__F
c080d1a0   UsbPhyOn
c080d200   UsbPhyOff
c080d260   xdc_runtime_System_formatNum__I
c080d320   CfgEntryDeRef
c080d3c0   CfgEntryGetData
c080d460   CfgGetImmediate
c080d640   FdSignalEvent
c080d6e0   HOSTclose
c080d780   HwPktClose
c080d8c0   IPReasmFree
c080d960   IPReasmTimeout
c080da00   IPv6CompareAddress
c080daa0   LLIValidateRoute
c080db40   MD5Final
c080dbe0   NIMUShutdown
c080dc80   NIMUUnregister
c080dd20   NtAddNetwork
c080ddc0   PBM_open
c080de60   PipeCheck
c080df00   RouteMsg
c080e040   SB6Free
c080e0e0   SBFree
c080e180   SemCreate
c080e220   Sock6CleanPcb
c080e2c0   Sock6GetName
c080e360   SockBind
c080e400   SockCleanPcb
c080e4a0   TCP6Drop
c080e540   TCP6PrCtlError
c080e5e0   TCP6PrSend
c080e680   TCP6PrSendOOB
c080e720   TaskCreate
c080e7c0   TcpDrop
c080e860   TcpPrCtlError
c080e900   TcpPrSend
c080e9a0   TcpPrSendOOB
c080ea40   TimerNew
c080eae0   _LLITimeoutFlush
c080eb80   __c6xabi_remu
c080eb80   __remu
c080ec20   _c_int00
c080ecc0   _cleanup
c080ef40   ti_sysbios_family_c64p_Hwi_plug__E
c080efe0   authStart
c080f080   dhcpBuildDecline
c080f1c0   fdCloseSession
c080f300   lcpInit
c080f440   llTimerTick
c080f4e0   lseek
c080f580   malloc
c080f620   memcpy
c080f6c0   mmBulkFree
c080f800   stricmp
c080f8a0   strstr
c080f940   tskImageProcess
c080f9e0   ti_sysbios_heaps_HeapMem_init__I
c080fa80   ti_sysbios_knl_Clock_Object__create__S
c080fb20   ti_sysbios_knl_Idle_run__E
c080fbc0   ti_sysbios_knl_Semaphore_Object__create__S
c080fc60   ti_sysbios_knl_Task_deleteTerminatedTasksFunc__I
c080fd00   ti_sysbios_xdcruntime_SemThreadSupport_Object__create__S
c080fda0   write
c080fe40   xdc_runtime_Assert_raise__I
c080fee0   xdc_runtime_LoggerBuf_Module_startup__E
c080fee0   xdc_runtime_LoggerBuf_Module_startup__F
c080ff80   xdc_runtime_SysMin_abort__E
c080ff80   xdc_runtime_SysMin_abort__F
c080ff80   xdc_runtime_System_SupportProxy_abort__E
c0810020   xdc_runtime_SysMin_flush__E
c0810020   xdc_runtime_SysMin_flush__F
c0810020   xdc_runtime_System_SupportProxy_flush__E
c0810020   xdc_runtime_System_flush__E
c0810020   xdc_runtime_System_flush__F
c08100c0   xdc_runtime_SysMin_putch__E
c08100c0   xdc_runtime_SysMin_putch__F
c08100c0   xdc_runtime_System_SupportProxy_putch__E
c08102e0   HwRxInt
c0810360   HwTxInt
c08103e0   ICMPChecksum
c08104e0   ICMPv6RecvRS
c08105e0   IPv6GetRoute
c0810660   LLI6Free
c0810760   MDIO_close
c08107e0   NIMUInit
c0810860   PBMQ_deq
c0810960   PipeClose
c08109e0   RawEthSockClose
c0810a60   RawEthSockPcbDetach
c0810ae0   Rt6Update
c0810b60   RtSetFailure
c0810be0   RtSetTimeout
c0810c60   Sock6Bind
c0810ce0   Sock6PcbCleanup
c0810d60   SockGetName
c0810de0   SockPcbCleanup
c0810e60   SockPcbDetach
c0810ee0   SockPcbResolveChain
c0810f60   TCP6PrListen
c0810fe0   TaskSetEnv
c0811060   TcpPrListen
c08110e0   TimerHSTick
c08112e0   _LLIExpListRemove
c08113e0   _RtExpListRemove
c0811460   __c6xabi_llshl
c08114e0   ti_sysbios_family_c62_TaskSupport_swap__E
c08114e0   ti_sysbios_knl_Task_SupportProxy_swap__E
c0811560   efs_fclose
c08115e0   efs_filesend
c08116e0   fdint_waitevent
c0811760   UART1_isr
c0811770   UART2_isr
c08117e0   httpSendEntityLength
c0811860   httpSendErrorResponse
c08118e0   llTimerGetTime
c0811960   readmsg
c0811a60   ti_sysbios_BIOS_exitFunc__I
c0811ae0   ti_sysbios_family_c62_TaskSupport_start__E
c0811ae0   ti_sysbios_knl_Task_SupportProxy_start__E
c0811b60   ti_sysbios_family_c64p_Cache_invL1pAll__E
c0811be0   ti_sysbios_family_c64p_Hwi_eventMap__E
c0811c60   ti_sysbios_gates_GateHwi_Object__create__S
c0811ce0   ti_sysbios_gates_GateMutex_Object__create__S
c0811d60   ti_sysbios_heaps_HeapMem_Object__create__S
c0811de0   ti_sysbios_knl_Clock_Module_startup__E
c0811de0   ti_sysbios_knl_Clock_Module_startup__F
c0811e60   ti_sysbios_knl_Clock_doTick__I
c0811ee0   ti_sysbios_knl_Clock_getTicks__E
c0811f60   ti_sysbios_knl_Queue_Object__create__S
c0811fe0   ti_sysbios_knl_Swi_startup__E
c0812060   ti_sysbios_knl_Task_restore__E
c08120e0   ti_sysbios_timers_timer64_Timer_getCount__E
c08120e0   ti_sysbios_timers_timer64_Timer_getExpiredCounts__E
c0812160   ti_sysbios_timers_timer64_Timer_getPeriod__E
c08121e0   ti_sysbios_xdcruntime_SemThreadSupport_Instance_init__F
c0812260   remove
c0812260   unlink
c08122e0   xdc_runtime_Core_assignLabel__I
c0812360   xdc_runtime_Core_assignParams__I
c08123e0   xdc_runtime_SysMin_output__I
c0812460   xdc_runtime_System_atexit__E
c0812460   xdc_runtime_System_atexit__F
c08124e0   xdc_runtime_System_rtsExit__I
c0812560   xdc_runtime_Text_printVisFxn__I
c08125e0   xdc_runtime_Text_xprintf__I
c0812660   xdc_runtime_knl_SemThread_Instance_init__F
c08126e0   Bind6FindByIF
c0812740   Bind6IF2IPHost
c08127a0   BindFindByHost
c0812800   BindFindByIF
c0812860   BindFindByNet
c08128c0   BindGetIFByDBCast
c0812920   BindIF2IPHost
c0812980   CfgEntryInfo
c08129e0   CfgSetService
c0812c20   IGMPTestGroup
c0812c80   IPChecksum
c0812ce0   LLIFree
c0812d40   MDIO_open
c0812da0   NC_SystemClose
c0812e00   NIMUAddHeader
c0812e60   NIMUCreatePacket
c0812ec0   NIMUFindByIndex
c0812f20   NIMUPacketService
c0812f80   NIMUPacketServiceCheck
c0812fe0   NIMUSendPacket
c0813040   NS_PreBoot
c08130a0   NodeGetRt
c0813100   RTCAddHook
c0813160   RTCRemoveHook
c08131c0   RawEthSockPcbCleanup
c0813220   RawEthSockPcbFind
c0813280   Rt6GetNetworkAddr
c08132e0   RtWalkEnd
c08133a0   Sock6PcbDetach
c0813400   Sock6PrCtlError
c0813460   Sock6PrDetach
c08134c0   SockPrCtlError
c0813520   SockPrDetach
c0813580   TCP6PrConnect
c08135e0   TCP6SetPersist
c0813640   TCP6TimeoutPersist
c08136a0   TcpPrConnect
c0813700   TcpSetPersist
c0813760   TcpTimeoutPersist
c0813880   VLANInit
c0813940   __c6xabi_abort_msg
c08139a0   _subcull
c0813a00   dhcpBuildDiscover
c0813a60   dhcpPacketReceive
c0813ac0   dhcpPacketSend
c0813b20   dhcpSocketClose
c0813be0   fdint_clearevent
c0813c40   fdint_getfdt
c0813ca0   fdint_setevent
c0813d00   fdsetTestEntry
c0813d60   httpSendClientStr
c0813dc0   ipcpInit
c0813e20   ipcpStart
c0813e80   lcpClose
c0813ee0   list_cat
c0813f40   list_remove_node
c0813fa0   memccpy
c0814060   pppoeInput
c08140c0   recvncfree
c0814120   strcpy
c0814180   ti_ndk_config_Global_stackThread
c08141e0   ti_sysbios_BIOS_registerRTSLock__I
c0814240   ti_sysbios_family_c64p_Cache_setMar__E
c08142a0   ti_sysbios_family_c64p_Cache_setSize__E
c0814300   ti_sysbios_family_c64p_EventCombiner_Module_startup__E
c0814300   ti_sysbios_family_c64p_EventCombiner_Module_startup__F
c0814360   ti_sysbios_family_c64p_EventCombiner_dispatchPlug__E
c0814360   ti_sysbios_family_c64p_EventCombiner_dispatchPlug__F
c08143c0   ti_sysbios_family_c64p_Exception_Module_startup__E
c08143c0   ti_sysbios_family_c64p_Exception_Module_startup__F
c0814420   ti_sysbios_family_c64p_Hwi_Object__delete__S
c0814480   ti_sysbios_family_c64p_primus_TimerSupport_enable__E
c0814480   ti_sysbios_timers_timer64_Timer_TimerSupportProxy_enable__E
c08144e0   ti_sysbios_gates_GateHwi_Handle__label__S
c0814540   ti_sysbios_gates_GateHwi_Object__delete__S
c08145a0   ti_sysbios_gates_GateMutex_Handle__label__S
c0814600   ti_sysbios_gates_GateMutex_Instance_init__F
c0814660   ti_sysbios_gates_GateMutex_Object__delete__S
c08146c0   ti_sysbios_hal_Hwi_Instance_init__F
c0814720   ti_sysbios_hal_Hwi_Object__delete__S
c0814780   ti_sysbios_hal_Hwi_checkStack
c08147e0   ti_sysbios_hal_Hwi_initStack
c0814840   ti_sysbios_heaps_HeapMem_Handle__label__S
c08148a0   ti_sysbios_heaps_HeapMem_Object__delete__S
c0814900   ti_sysbios_knl_Queue_Object__delete__S
c0814960   ti_sysbios_knl_Semaphore_Object__delete__S
c08149c0   ti_sysbios_knl_Semaphore_pendTimeout__I
c0814a20   ti_sysbios_knl_Swi_Module_startup__E
c0814a20   ti_sysbios_knl_Swi_Module_startup__F
c0814a80   ti_sysbios_knl_Task_Object__delete__S
c0814ae0   ti_sysbios_knl_Task_enter__I
c0814b40   ti_sysbios_xdcruntime_SemThreadSupport_Object__delete__S
c0814ba0   writemsg
c0814bf8   C$$IO$$
c0814c00   xdc_runtime_Memory_calloc__E
c0814c00   xdc_runtime_Memory_calloc__F
c0814c60   xdc_runtime_SysMin_Module_startup__E
c0814c60   xdc_runtime_SysMin_Module_startup__F
c0814cc0   xdc_runtime_SysMin_exit__E
c0814cc0   xdc_runtime_SysMin_exit__F
c0814cc0   xdc_runtime_System_SupportProxy_exit__E
c0814d20   xdc_runtime_System_aprintf_va__E
c0814d20   xdc_runtime_System_aprintf_va__F
c0814d20   xdc_runtime_System_avprintf__E
c0814d20   xdc_runtime_System_avprintf__F
c0814d80   xdc_runtime_System_printf_va__E
c0814d80   xdc_runtime_System_printf_va__F
c0814d80   xdc_runtime_System_vprintf__E
c0814d80   xdc_runtime_System_vprintf__F
c0814de0   xdc_runtime_Text_cordText__E
c0814de0   xdc_runtime_Text_cordText__F
c0814e40   xdc_runtime_knl_SemThread_Handle__label__S
c0814ea0   xdc_runtime_knl_SemThread_Object__delete__S
c0814f00   xdc_runtime_knl_SyncSemThread_Handle__label__S
c0814f60   xdc_runtime_knl_SyncSemThread_Instance_init__F
c0814fc0   xdc_runtime_knl_SyncSemThread_Object__delete__S
c0815020   Bind6FindByHost
c0815060   Bind6FindByNet
c08150a0   BindGetIP
c08150e0   ExecClose
c0815120   ExecTimer
c08151a0   IPv6IsLinkLocal
c08151e0   IPv6IsMulticast
c0815220   Interrupt_delete
c08152a0   LLI6IsValid
c08152e0   MD5Init
c0815320   MLDTestGroup
c0815360   NC_BootComplete
c08153a0   NDK_hookCreate
c08153e0   NDK_sprintf
c0815420   NtRemoveNetwork
c0815560   Rt6IsDefaultRoute
c08155a0   Sock6PcbAttach
c08155e0   Sock6SetOOBMark
c0815620   SockPcbAttach
c0815660   SockSetOOBMark
c08156a0   TCP6TimeoutRemove
c08156e0   TCP6TimeoutWait2
c0815720   TaskDestroy
c0815760   TcpTimeoutRemove
c08157a0   TcpTimeoutWait2
c08157e0   __c6xabi_frcmpyd_div
c0815820   __c6xabi_isinf
c08158a0   __c6xabi_llshru
c08158e0   __c6xabi_strasgi_64plus
c08158e0   __strasgi_64plus
c0815920   _args_main
c0815960   _llTimerInit
c08159a0   ti_sysbios_family_c62_TaskSupport_buildTaskStack
c08159e0   ti_sysbios_family_xxx_Hwi_switchToIsrStack
c0815a20   efs_loadfunction
c0815a60   EVM_Init
c0815aa0   fdError
c0815ae0   fdSelectAbort
c0815b20   fdint_freefdt
c0815b60   free
c0815ba0   inet_addr
c0815be0   list_add
c0815c20   list_remove
c0815d20   strcmp
c0815d60   strlen
c0815da0   ti_sysbios_BIOS_startFunc__I
c0815de0   ti_sysbios_family_c64p_EventCombiner_disableEvent__E
c0815de0   ti_sysbios_family_c64p_EventCombiner_disableEvent__F
c0815e20   ti_sysbios_family_c64p_EventCombiner_enableEvent__E
c0815e20   ti_sysbios_family_c64p_EventCombiner_enableEvent__F
c0815e60   ti_sysbios_family_c64p_EventCombiner_unused__E
c0815e60   ti_sysbios_family_c64p_EventCombiner_unused__F
c0815ea0   ti_sysbios_family_c64p_Hwi_Module__startupDone__F
c0815ea0   ti_sysbios_family_c64p_Hwi_Module__startupDone__S
c0815ee0   ti_sysbios_family_c64p_Hwi_disableInterrupt__E
c0815ee0   ti_sysbios_hal_Hwi_HwiProxy_disableInterrupt__E
c0815ee0   ti_sysbios_hal_Hwi_disableInterrupt__E
c0815f20   ti_sysbios_family_c64p_Hwi_enableIER__E
c0815f60   ti_sysbios_family_c64p_Hwi_enableInterrupt__E
c0815f60   ti_sysbios_hal_Hwi_HwiProxy_enableInterrupt__E
c0815f60   ti_sysbios_hal_Hwi_enableInterrupt__E
c0815fa0   ti_sysbios_gates_GateMutex_leave__E
c0815fe0   ti_sysbios_hal_Hwi_Instance_finalize__F
c0816020   ti_sysbios_hal_Timer_Module__startupDone__F
c0816020   ti_sysbios_hal_Timer_Module__startupDone__S
c0816060   ti_sysbios_heaps_HeapMem_Object__get__S
c08160a0   ti_sysbios_io_DEV_Instance_init__F
c08160e0   ti_sysbios_knl_Clock_Object__destruct__S
c0816120   ti_sysbios_knl_Queue_get__E
c0816160   ti_sysbios_knl_Queue_put__E
c08161a0   ti_sysbios_knl_Semaphore_Object__destruct__S
c08161e0   ti_sysbios_knl_Swi_Object__get__S
c0816220   ti_sysbios_knl_Task_Object__get__S
c0816260   ti_sysbios_knl_Task_sleepTimeout__I
c08162a0   ti_sysbios_timers_timer64_Timer_Module__startupDone__F
c08162a0   ti_sysbios_timers_timer64_Timer_Module__startupDone__S
c08162e0   ti_sysbios_xdcruntime_SemThreadSupport_post__E
c08162e0   ti_sysbios_xdcruntime_SemThreadSupport_post__F
c0816320   xdc_runtime_Error_check__E
c0816320   xdc_runtime_Error_check__F
c0816360   xdc_runtime_Error_init__E
c0816360   xdc_runtime_Error_init__F
c08163a0   xdc_runtime_Memory_free__E
c08163a0   xdc_runtime_Memory_free__F
c08163e0   xdc_runtime_Registry_findById__E
c08163e0   xdc_runtime_Registry_findById__F
c0816420   xdc_runtime_System_abort__E
c0816420   xdc_runtime_System_abort__F
c0816460   xdc_runtime_System_aprintf__E
c08164a0   xdc_runtime_System_printf__E
c08164e0   xdc_runtime_Text_ropeText__E
c08164e0   xdc_runtime_Text_ropeText__F
c0816520   xdc_runtime_knl_SemThread_Instance_finalize__F
c0816560   xdc_runtime_knl_SyncSemThread_Instance_finalize__F
c08165a0   xdc_runtime_knl_SyncSemThread_wait__E
c08165a0   xdc_runtime_knl_SyncSemThread_wait__F
c08165e0   Bind6GetInterfaceHandle
c0816600   Bind6GetLifetime
c0816620   Bind6SetLifetime
c0816640   BindGetFirst
c0816660   BindGetIF
c0816680   BindGetNext
c08166a0   BindIFNet2IPHost
c08166c0   BindIPHost2IF
c08166e0   CfgSetDefault
c0816720   ExecHRef
c0816740   ExecLowResource
c0816760   HwPktInit
c0816780   HwPktShutdown
c08167a0   IPRtChange
c08167c0   LED_TOGGLE
c08167e0   LLI6GetNetDevice
c0816800   LLI6IncRefCount
c0816820   LLI6IsDead
c0816840   LLI6IsRouter
c0816860   LLI6SetIncomplete
c0816880   MDIO_getStatus
c08168a0   NC_IPUpdate
c08168c0   NC_NetStop
c08168e0   NDK_hookInit
c0816900   NIMUGetRsvdSizeInfo
c0816920   NIMUSetRsvdSizeInfo
c0816940   NatMsg
c0816960   NodeSetRt
c0816980   NotifyLowResource
c08169a0   OEMCacheClean
c08169c0   OEMSysCritOff
c08169e0   OEMSysCritOn
c0816a00   PBM_close
c0816a20   RawEthSockPcbInit
c0816a40   RawEthSockPrAttach
c0816a60   RawEthSockPrDetach
c0816a80   Rt6GetIF
c0816aa0   Rt6GetLLI
c0816ac0   Rt6GetMTU
c0816ae0   Rt6IncRefCount
c0816b00   Rt6IsLocalRoute
c0816b20   SemDelete
c0816b40   SemPend
c0816b60   SemPost
c0816b80   SemReset
c0816ba0   Sock6PrAttach
c0816bc0   Sock6SetOOBData
c0816be0   SockPrAttach
c0816c00   SockSetOOBData
c0816c60   TCP6PrRecv
c0816c80   TCP6TimeoutAdd
c0816ca0   TaskBlock
c0816cc0   TaskSelf
c0816ce0   TaskSetPri
c0816d00   TcpPrRecv
c0816d20   TcpTimeoutAdd
c0816d40   TimerFree
c0816d60   _TaskInit
c0816d80   _TaskShutdown
c0816da0   __c6xabi_negll
c0816dc0   __cxa_atexit
c0816de0   __cxa_ia64_exit
c0816e00   __xdc__init
c0816e20   _llSerialInit
c0816e40   _llSerialServiceCheck
c0816e60   _llSerialShutdown
c0816e80   _llTimerShutdown
c0816ea0   _llUserLedInit
c0816ec0   _llUserLedShutdown
c0816ee0   _nop
c0816f80   _register_lock
c0816fa0   _register_unlock
c0816fc0   ti_sysbios_family_c62_TaskSupport_glue
c0816fe0   ti_sysbios_family_xxx_Hwi_switchToTaskStack
c0817000   C$$EXIT
c0817000   abort
c0817020   atexit
c0817040   __TI_decompress_none
c0817060   __TI_decompress_rle24
c0817080   efs_getfilesize
c08170a0   fdint_signaltimeout
c08170c0   list_get_head
c08170e0   list_get_next
c0817100   llSerialService
c0817120   llTimerGetStartTime
c0817160   ti_sysbios_BIOS_RtsGateProxy_enter__E
c0817180   ti_sysbios_BIOS_RtsGateProxy_leave__E
c08171a0   ti_sysbios_BIOS_setThreadType__E
c08171c0   ti_sysbios_BIOS_start__E
c08171e0   ti_sysbios_family_c62_TaskSupport_Module__startupDone__S
c0817200   ti_sysbios_family_c62_TaskSupport_checkStack__E
c0817200   ti_sysbios_knl_Task_SupportProxy_checkStack__E
c0817220   ti_sysbios_family_c62_TaskSupport_getStackAlignment__E
c0817220   ti_sysbios_knl_Task_SupportProxy_getStackAlignment__E
c0817240   ti_sysbios_family_c64p_Cache_inv__E
c0817240   ti_sysbios_hal_Cache_CacheProxy_inv__E
c0817240   ti_sysbios_hal_Cache_inv__E
c0817260   ti_sysbios_family_c64p_Cache_wbInv__E
c0817260   ti_sysbios_hal_Cache_CacheProxy_wbInv__E
c0817260   ti_sysbios_hal_Cache_wbInv__E
c0817280   ti_sysbios_family_c64p_Cache_wb__E
c0817280   ti_sysbios_hal_Cache_CacheProxy_wb__E
c0817280   ti_sysbios_hal_Cache_wb__E
c08172a0   ti_sysbios_family_c64p_Hwi_clearInterrupt__E
c08172a0   ti_sysbios_hal_Hwi_HwiProxy_clearInterrupt__E
c08172a0   ti_sysbios_hal_Hwi_clearInterrupt__E
c08172c0   ti_sysbios_family_c64p_Hwi_startup__E
c08172c0   ti_sysbios_hal_Hwi_HwiProxy_startup__E
c08172c0   ti_sysbios_hal_Hwi_startup__E
c08172e0   ti_sysbios_family_c64p_Hwi_switchFromBootStack__E
c08172e0   ti_sysbios_hal_Hwi_HwiProxy_switchFromBootStack__E
c08172e0   ti_sysbios_hal_Hwi_switchFromBootStack__E
c0817300   ti_sysbios_family_c64p_Hwi_unPluggedInterrupt__I
c0817320   ti_sysbios_family_c64p_TimestampProvider_Module_startup__E
c0817320   ti_sysbios_family_c64p_TimestampProvider_Module_startup__F
c0817340   ti_sysbios_gates_GateHwi_Instance_init__F
c0817360   ti_sysbios_gates_GateHwi_enter__E
c0817380   ti_sysbios_gates_GateHwi_leave__E
c08173a0   ti_sysbios_gates_GateHwi_query__E
c08173a0   ti_sysbios_gates_GateHwi_query__F
c08173a0   xdc_runtime_LoggerBuf_Module_GateProxy_query__E
c08173a0   xdc_runtime_Main_Module_GateProxy_query__E
c08173a0   xdc_runtime_System_Module_GateProxy_query__E
c08173c0   ti_sysbios_gates_GateMutex_Instance_finalize__F
c08173e0   ti_sysbios_BIOS_RtsGateProxy_query__E
c08173e0   ti_sysbios_gates_GateMutex_query__E
c08173e0   ti_sysbios_gates_GateMutex_query__F
c08173e0   ti_sysbios_heaps_HeapMem_Module_GateProxy_query__E
c0817400   ti_sysbios_hal_Hwi_HwiProxy_Module__startupDone__S
c0817420   ti_sysbios_hal_Hwi_HwiProxy_Object__create__S
c0817440   ti_sysbios_hal_Hwi_HwiProxy_Object__delete__S
c0817460   ti_sysbios_hal_Hwi_Module_startup__E
c0817460   ti_sysbios_hal_Hwi_Module_startup__F
c0817480   ti_sysbios_hal_Hwi_Params__init__S
c08174a0   ti_sysbios_hal_Timer_Module_startup__E
c08174a0   ti_sysbios_hal_Timer_Module_startup__F
c08174c0   ti_sysbios_hal_Timer_TimerProxy_Module__startupDone__S
c08174e0   ti_sysbios_hal_Timer_TimerProxy_getExpiredCounts__E
c0817500   ti_sysbios_hal_Timer_TimerProxy_getPeriod__E
c0817520   ti_sysbios_hal_Timer_TimerProxy_setNextTick__E
c0817540   ti_sysbios_heaps_HeapMem_Module_GateProxy_enter__E
c0817560   ti_sysbios_heaps_HeapMem_Module_GateProxy_leave__E
c0817580   ti_sysbios_heaps_HeapMem_isBlocking__E
c08175a0   ti_sysbios_io_DEV_Object__get__S
c08175c0   ti_sysbios_io_DEV_Params__init__S
c08175e0   ti_sysbios_io_GIO_Params__init__S
c0817600   ti_sysbios_knl_Clock_Params__init__S
c0817620   ti_sysbios_knl_Idle_loop__E
c0817640   ti_sysbios_knl_Queue_Instance_init__F
c0817660   ti_sysbios_knl_Queue_Object__destruct__S
c0817680   ti_sysbios_knl_Queue_Object__get__S
c08176a0   ti_sysbios_knl_Queue_empty__E
c08176c0   ti_sysbios_knl_Queue_head__E
c08176e0   ti_sysbios_knl_Queue_next__E
c0817700   ti_sysbios_knl_Queue_remove__E
c0817720   ti_sysbios_knl_Semaphore_Instance_finalize__F
c0817740   ti_sysbios_knl_Semaphore_Params__init__S
c0817760   ti_sysbios_knl_Semaphore_reset__E
c0817780   ti_sysbios_knl_Swi_disable__E
c08177a0   ti_sysbios_knl_Task_Object__first__S
c08177c0   ti_sysbios_knl_Task_Object__next__S
c08177e0   ti_sysbios_knl_Task_Params__init__S
c0817800   ti_sysbios_knl_Task_SupportProxy_Module__startupDone__S
c0817820   ti_sysbios_knl_Task_disable__E
c0817840   ti_sysbios_knl_Task_getHookContext__E
c0817860   ti_sysbios_knl_Task_self__E
c0817880   ti_sysbios_knl_Task_setHookContext__E
c08178a0   ti_sysbios_knl_Task_startup__E
c08178c0   ti_sysbios_timers_timer64_Timer_setNextTick__E
c08178e0   ti_sysbios_xdcruntime_SemThreadSupport_Instance_finalize__F
c0817900   ti_sysbios_xdcruntime_SemThreadSupport_Params__init__S
c0817920   xdc_runtime_Error_getMsg__E
c0817920   xdc_runtime_Error_getMsg__F
c0817940   xdc_runtime_Gate_enterSystem__E
c0817940   xdc_runtime_Gate_enterSystem__F
c0817960   xdc_runtime_Gate_leaveSystem__E
c0817960   xdc_runtime_Gate_leaveSystem__F
c08179c0   xdc_runtime_LoggerBuf_Object__get__S
c08179e0   xdc_runtime_Memory_HeapProxy_alloc__E
c0817a00   xdc_runtime_Memory_HeapProxy_free__E
c0817a20   xdc_runtime_Startup_exec__I
c0817a40   xdc_runtime_Startup_reset__I
c0817a60   xdc_runtime_SysMin_ready__E
c0817a60   xdc_runtime_SysMin_ready__F
c0817a60   xdc_runtime_System_SupportProxy_ready__E
c0817a80   xdc_runtime_System_Module_GateProxy_enter__E
c0817aa0   xdc_runtime_System_Module_GateProxy_leave__E
c0817ac0   xdc_runtime_System_Module_startup__E
c0817ac0   xdc_runtime_System_Module_startup__F
c0817ae0   xdc_runtime_System_exit__E
c0817ae0   xdc_runtime_System_exit__F
c0817b00   xdc_runtime_System_lastFxn__I
c0817b20   NDK_vsprintf
c0817b20   xdc_runtime_System_sprintf_va__E
c0817b20   xdc_runtime_System_sprintf_va__F
c0817b20   xdc_runtime_System_vsprintf__E
c0817b20   xdc_runtime_System_vsprintf__F
c0817b40   xdc_runtime_Text_visitRope__I
c0817ba0   xdc_runtime_knl_SemThread_Params__init__S
c0817bc0   xdc_runtime_knl_SemThread_Proxy_Object__create__S
c0817be0   xdc_runtime_knl_SemThread_Proxy_Object__delete__S
c0817c00   xdc_runtime_knl_SemThread_Proxy_Params__init__S
c0817c20   xdc_runtime_knl_SemThread_Proxy_pend__E
c0817c40   xdc_runtime_knl_SemThread_Proxy_post__E
c0817c60   xdc_runtime_knl_SemThread_pend__E
c0817c60   xdc_runtime_knl_SemThread_pend__F
c0817c80   xdc_runtime_knl_SemThread_post__E
c0817c80   xdc_runtime_knl_SemThread_post__F
c0817ca0   xdc_runtime_knl_SyncSemThread_query__E
c0817ca0   xdc_runtime_knl_SyncSemThread_query__F
c0817cc0   xdc_runtime_knl_SyncSemThread_signal__E
c0817cc0   xdc_runtime_knl_SyncSemThread_signal__F
c0817ce0   xdc_runtime_knl_Sync_Proxy_signal__E
c0817ce0   xdc_runtime_knl_Sync_signal__E
c0817ce0   xdc_runtime_knl_Sync_signal__F
c0817d00   xdc_runtime_knl_Sync_Proxy_wait__E
c0817d00   xdc_runtime_knl_Sync_wait__E
c0817d00   xdc_runtime_knl_Sync_wait__F
c0817d20   xdc_runtime_Text_charTab__A
c081b6a0   xdc_runtime_Text_nodeTab__A
c081b7a8   _ctypes_
c081c698   Code2Err
c081c920   ti_sysbios_knl_Task_Object__PARAMS__C
c081c960   xdc_runtime_Startup_sfxnTab__A
c081caa4   ti_sysbios_family_c64p_Hwi_Object__PARAMS__C
c081cad4   ti_sysbios_BIOS_Module__diagsEnabled__C
c081cad8   ti_sysbios_knl_Task_hooks__A
c081cb64   ti_sysbios_hal_Hwi_Object__PARAMS__C
c081cb90   ti_sysbios_io_GIO_Object__PARAMS__C
c081cc0c   ti_sysbios_heaps_HeapMem_Module__FXNS__C
c081cc5c   ti_sysbios_gates_GateHwi_Module__FXNS__C
c081cc80   ti_sysbios_gates_GateMutex_Module__FXNS__C
c081cca4   ti_sysbios_heaps_HeapMem_Object__PARAMS__C
c081ccc8   ti_sysbios_io_DEV_Object__PARAMS__C
c081ccec   ti_sysbios_knl_Clock_Object__PARAMS__C
c081cd10   ti_sysbios_knl_Semaphore_Object__PARAMS__C
c081cd34   xdc_runtime_knl_SyncSemThread_Module__FXNS__C
c081cdbc   Upp_PARAMS
c081cddc   ti_sysbios_family_c64p_Hwi_Object__DESC__C
c081cdfc   ti_sysbios_gates_GateHwi_Object__DESC__C
c081ce1c   ti_sysbios_gates_GateMutex_Object__DESC__C
c081ce3c   ti_sysbios_hal_Hwi_Object__DESC__C
c081ce5c   ti_sysbios_heaps_HeapMem_Object__DESC__C
c081ce7c   ti_sysbios_io_DEV_Object__DESC__C
c081ce9c   ti_sysbios_io_GIO_Object__DESC__C
c081cebc   ti_sysbios_knl_Clock_Object__DESC__C
c081cedc   ti_sysbios_knl_Queue_Object__DESC__C
c081cefc   ti_sysbios_knl_Semaphore_Object__DESC__C
c081cf1c   ti_sysbios_knl_Task_Object__DESC__C
c081cf3c   ti_sysbios_xdcruntime_SemThreadSupport_Object__DESC__C
c081cf5c   xdc_runtime_knl_SemThread_Module__FXNS__C
c081cf7c   xdc_runtime_knl_SemThread_Object__DESC__C
c081cf9c   xdc_runtime_knl_SyncSemThread_Object__DESC__C
c081cfdc   ti_sysbios_BIOS_Module__diagsIncluded__C
c081cfe0   xdc_runtime_Startup_sfxnRts__A
c081d01c   ti_sysbios_xdcruntime_SemThreadSupport_Object__PARAMS__C
c081d038   xdc_runtime_knl_SemThread_Object__PARAMS__C
c081d084   ti_sysbios_gates_GateHwi_Object__PARAMS__C
c081d09c   ti_sysbios_gates_GateMutex_Object__PARAMS__C
c081d0b4   ti_sysbios_knl_Queue_Object__PARAMS__C
c081d0cc   xdc_runtime_knl_SyncSemThread_Object__PARAMS__C
c081d180   ti_sysbios_family_c64p_Cache_initSize__C
c081d1a0   ti_sysbios_knl_Idle_coreList__A
c081d1a8   ti_sysbios_knl_Idle_coreList__C
c081d1b0   ti_sysbios_knl_Idle_funcList__A
c081d1b8   ti_sysbios_knl_Idle_funcList__C
c081d1c0   ti_sysbios_knl_Task_hooks__C
c081d1c8   xdc_runtime_Startup_firstFxns__A
c081d1d0   xdc_runtime_Startup_firstFxns__C
c081d1d8   xdc_runtime_Startup_lastFxns__C
c081d1e0   ti_sysbios_BIOS_Module__diagsMask__C
c081d1e4   ti_sysbios_BIOS_installedErrorHook__C
c081d1e8   ti_sysbios_family_c62_TaskSupport_stackAlignment__C
c081d1ec   ti_sysbios_family_c64p_Cache_EMIFA_BASE__C
c081d1f0   ti_sysbios_family_c64p_Cache_EMIFA_CFG__C
c081d1f4   ti_sysbios_family_c64p_Cache_EMIFA_LENGTH__C
c081d1f8   ti_sysbios_family_c64p_Cache_EMIFB_BASE__C
c081d1fc   ti_sysbios_family_c64p_Cache_EMIFB_CFG__C
c081d200   ti_sysbios_family_c64p_Cache_EMIFB_LENGTH__C
c081d204   ti_sysbios_family_c64p_Cache_EMIFC_BASE__C
c081d208   ti_sysbios_family_c64p_Cache_EMIFC_CFG__C
c081d20c   ti_sysbios_family_c64p_Cache_EMIFC_LENGTH__C
c081d210   ti_sysbios_family_c64p_Cache_MAR0_31__C
c081d214   ti_sysbios_family_c64p_Cache_MAR128_159__C
c081d218   ti_sysbios_family_c64p_Cache_MAR160_191__C
c081d21c   ti_sysbios_family_c64p_Cache_MAR192_223__C
c081d220   ti_sysbios_family_c64p_Cache_MAR224_255__C
c081d224   ti_sysbios_family_c64p_Cache_MAR32_63__C
c081d228   ti_sysbios_family_c64p_Cache_MAR64_95__C
c081d22c   ti_sysbios_family_c64p_Cache_MAR96_127__C
c081d230   ti_sysbios_family_c64p_EventCombiner_E_unpluggedEvent__C
c081d234   ti_sysbios_family_c64p_Exception_E_exceptionMin__C
c081d238   ti_sysbios_family_c64p_Exception_exceptionHook__C
c081d23c   ti_sysbios_family_c64p_Exception_externalHook__C
c081d240   ti_sysbios_family_c64p_Exception_internalHook__C
c081d244   ti_sysbios_family_c64p_Exception_nmiHook__C
c081d248   ti_sysbios_family_c64p_Hwi_E_alreadyDefined__C
c081d24c   ti_sysbios_family_c64p_Hwi_E_handleNotFound__C
c081d250   ti_sysbios_family_c64p_Hwi_LD_end__C
c081d254   ti_sysbios_family_c64p_Hwi_LM_begin__C
c081d258   ti_sysbios_family_c64p_Hwi_Module__diagsEnabled__C
c081d25c   ti_sysbios_family_c64p_Hwi_Module__diagsIncluded__C
c081d260   ti_sysbios_family_c64p_Hwi_Module__diagsMask__C
c081d264   ti_sysbios_family_c64p_Hwi_Module__loggerFxn1__C
c081d268   ti_sysbios_family_c64p_Hwi_Module__loggerFxn8__C
c081d26c   ti_sysbios_family_c64p_Hwi_Module__loggerObj__C
c081d270   ti_sysbios_gates_GateMutex_A_badContext__C
c081d274   ti_sysbios_gates_GateMutex_Instance_State_sem__O
c081d278   ti_sysbios_gates_GateMutex_Module__diagsEnabled__C
c081d27c   ti_sysbios_gates_GateMutex_Module__diagsIncluded__C
c081d280   ti_sysbios_gates_GateMutex_Module__diagsMask__C
c081d284   ti_sysbios_hal_Hwi_E_stackOverflow__C
c081d288   ti_sysbios_heaps_HeapMem_A_align__C
c081d28c   ti_sysbios_heaps_HeapMem_A_heapSize__C
c081d290   ti_sysbios_heaps_HeapMem_A_invalidFree__C
c081d294   ti_sysbios_heaps_HeapMem_A_zeroBlock__C
c081d298   ti_sysbios_heaps_HeapMem_E_memory__C
c081d29c   ti_sysbios_heaps_HeapMem_Module__diagsEnabled__C
c081d2a0   ti_sysbios_heaps_HeapMem_Module__diagsIncluded__C
c081d2a4   ti_sysbios_heaps_HeapMem_Module__diagsMask__C
c081d2a8   ti_sysbios_heaps_HeapMem_Module__gateObj__C
c081d2ac   ti_sysbios_heaps_HeapMem_Object__count__C
c081d2b0   ti_sysbios_heaps_HeapMem_reqAlign__C
c081d2b4   ti_sysbios_io_DEV_Object__count__C
c081d2b8   ti_sysbios_io_DEV_tableSize__C
c081d2bc   ti_sysbios_io_GIO_A_badModel__C
c081d2c0   ti_sysbios_io_GIO_E_createFailed__C
c081d2c4   ti_sysbios_io_GIO_E_notFound__C
c081d2c8   ti_sysbios_io_GIO_Instance_State_doneList__O
c081d2cc   ti_sysbios_io_GIO_Instance_State_freeList__O
c081d2d0   ti_sysbios_io_GIO_Module__diagsEnabled__C
c081d2d4   ti_sysbios_io_GIO_Module__diagsIncluded__C
c081d2d8   ti_sysbios_io_GIO_Module__diagsMask__C
c081d2dc   ti_sysbios_knl_Clock_A_badThreadType__C
c081d2e0   ti_sysbios_knl_Clock_LM_begin__C
c081d2e4   ti_sysbios_knl_Clock_LM_tick__C
c081d2e8   ti_sysbios_knl_Clock_LW_delayed__C
c081d2ec   ti_sysbios_knl_Clock_Module_State_clockQ__O
c081d2f0   ti_sysbios_knl_Clock_Module__diagsEnabled__C
c081d2f4   ti_sysbios_knl_Clock_Module__diagsIncluded__C
c081d2f8   ti_sysbios_knl_Clock_Module__diagsMask__C
c081d2fc   ti_sysbios_knl_Clock_Module__loggerFxn1__C
c081d300   ti_sysbios_knl_Clock_Module__loggerFxn2__C
c081d304   ti_sysbios_knl_Clock_Module__loggerObj__C
c081d308   ti_sysbios_knl_Clock_tickMode__C
c081d30c   ti_sysbios_knl_Clock_tickPeriod__C
c081d310   ti_sysbios_knl_Clock_tickSource__C
c081d314   ti_sysbios_knl_Semaphore_A_badContext__C
c081d318   ti_sysbios_knl_Semaphore_A_noEvents__C
c081d31c   ti_sysbios_knl_Semaphore_A_overflow__C
c081d320   ti_sysbios_knl_Semaphore_Instance_State_pendQ__O
c081d324   ti_sysbios_knl_Semaphore_LM_pend__C
c081d328   ti_sysbios_knl_Semaphore_LM_post__C
c081d32c   ti_sysbios_knl_Semaphore_Module__diagsEnabled__C
c081d330   ti_sysbios_knl_Semaphore_Module__diagsIncluded__C
c081d334   ti_sysbios_knl_Semaphore_Module__diagsMask__C
c081d338   ti_sysbios_knl_Semaphore_Module__loggerFxn2__C
c081d33c   ti_sysbios_knl_Semaphore_Module__loggerFxn4__C
c081d340   ti_sysbios_knl_Semaphore_Module__loggerObj__C
c081d344   ti_sysbios_knl_Swi_LD_end__C
c081d348   ti_sysbios_knl_Swi_LM_begin__C
c081d34c   ti_sysbios_knl_Swi_LM_post__C
c081d350   ti_sysbios_knl_Swi_Module__diagsEnabled__C
c081d354   ti_sysbios_knl_Swi_Module__diagsIncluded__C
c081d358   ti_sysbios_knl_Swi_Module__diagsMask__C
c081d35c   ti_sysbios_knl_Swi_Module__loggerFxn1__C
c081d360   ti_sysbios_knl_Swi_Module__loggerFxn4__C
c081d364   ti_sysbios_knl_Swi_Module__loggerObj__C
c081d368   ti_sysbios_knl_Swi_Object__count__C
c081d36c   ti_sysbios_knl_Task_A_badPriority__C
c081d370   ti_sysbios_knl_Task_A_badTaskState__C
c081d374   ti_sysbios_knl_Task_A_badThreadType__C
c081d378   ti_sysbios_knl_Task_A_badTimeout__C
c081d37c   ti_sysbios_knl_Task_A_noPendElem__C
c081d380   ti_sysbios_knl_Task_E_deleteNotAllowed__C
c081d384   ti_sysbios_knl_Task_E_spOutOfBounds__C
c081d388   ti_sysbios_knl_Task_E_stackOverflow__C
c081d38c   ti_sysbios_knl_Task_LD_block__C
c081d390   ti_sysbios_knl_Task_LD_exit__C
c081d394   ti_sysbios_knl_Task_LD_ready__C
c081d398   ti_sysbios_knl_Task_LM_setPri__C
c081d39c   ti_sysbios_knl_Task_LM_sleep__C
c081d3a0   ti_sysbios_knl_Task_LM_switch__C
c081d3a4   ti_sysbios_knl_Task_Module_State_inactiveQ__O
c081d3a8   ti_sysbios_knl_Task_Module_State_terminatedQ__O
c081d3ac   ti_sysbios_knl_Task_Module__diagsEnabled__C
c081d3b0   ti_sysbios_knl_Task_Module__diagsIncluded__C
c081d3b4   ti_sysbios_knl_Task_Module__diagsMask__C
c081d3b8   ti_sysbios_knl_Task_Module__loggerFxn2__C
c081d3bc   ti_sysbios_knl_Task_Module__loggerFxn4__C
c081d3c0   ti_sysbios_knl_Task_Module__loggerObj__C
c081d3c4   ti_sysbios_knl_Task_Object__count__C
c081d3c8   ti_sysbios_knl_Task_Object__heap__C
c081d3cc   ti_sysbios_knl_Task_allBlockedFunc__C
c081d3d0   ti_sysbios_knl_Task_defaultStackHeap__C
c081d3d4   ti_sysbios_knl_Task_defaultStackSize__C
c081d3d8   ti_sysbios_knl_Task_numConstructedTasks__C
c081d3dc   ti_sysbios_knl_Task_numPriorities__C
c081d3e0   ti_sysbios_timers_timer64_Timer_A_notAvailable__C
c081d3e4   ti_sysbios_timers_timer64_Timer_E_cannotSupport__C
c081d3e8   ti_sysbios_timers_timer64_Timer_Module__diagsEnabled__C
c081d3ec   ti_sysbios_timers_timer64_Timer_Module__diagsIncluded__C
c081d3f0   ti_sysbios_timers_timer64_Timer_Module__diagsMask__C
c081d3f4   ti_sysbios_timers_timer64_Timer_anyMask__C
c081d3f8   ti_sysbios_timers_timer64_Timer_freqDivisor__C
c081d3fc   ti_sysbios_timers_timer64_Timer_numLocalTimers__C
c081d400   ti_sysbios_timers_timer64_Timer_numTimerDevices__C
c081d404   ti_sysbios_xdcruntime_SemThreadSupport_Instance_State_sem__O
c081d408   xdc_runtime_Assert_E_assertFailed__C
c081d40c   xdc_runtime_Core_A_initializedParams__C
c081d410   xdc_runtime_Core_Module__diagsEnabled__C
c081d414   xdc_runtime_Core_Module__diagsIncluded__C
c081d418   xdc_runtime_Core_Module__diagsMask__C
c081d41c   xdc_runtime_Error_E_generic__C
c081d420   xdc_runtime_Error_E_memory__C
c081d424   xdc_runtime_Error_Module__diagsEnabled__C
c081d428   xdc_runtime_Error_Module__diagsIncluded__C
c081d42c   xdc_runtime_Error_Module__diagsMask__C
c081d430   xdc_runtime_Error_Module__loggerFxn8__C
c081d434   xdc_runtime_Error_Module__loggerObj__C
c081d438   xdc_runtime_Error_policy__C
c081d43c   xdc_runtime_Error_raiseHook__C
c081d440   xdc_runtime_IGateProvider_Interface__BASE__C
c081d444   xdc_runtime_IHeap_Interface__BASE__C
c081d448   xdc_runtime_IModule_Interface__BASE__C
c081d44c   xdc_runtime_Log_L_error__C
c081d450   xdc_runtime_LoggerBuf_Object__count__C
c081d454   xdc_runtime_Memory_defaultHeapInstance__C
c081d458   xdc_runtime_Startup_execImpl__C
c081d45c   xdc_runtime_Startup_maxPasses__C
c081d460   xdc_runtime_Startup_lastFxns__A
c081d464   xdc_runtime_Startup_sfxnRts__C
c081d468   xdc_runtime_Startup_sfxnTab__C
c081d46c   xdc_runtime_SysMin_bufSize__C
c081d470   xdc_runtime_SysMin_outputFunc__C
c081d474   xdc_runtime_System_Module__gateObj__C
c081d478   xdc_runtime_System_extendFxn__C
c081d47c   xdc_runtime_System_maxAtexitHandlers__C
c081d480   xdc_runtime_Text_charTab__C
c081d484   xdc_runtime_Text_nameEmpty__C
c081d488   xdc_runtime_Text_nameStatic__C
c081d48c   xdc_runtime_Text_nameUnknown__C
c081d490   xdc_runtime_Text_nodeTab__C
c081d494   xdc_runtime_Text_visitRopeFxn__C
c081d498   xdc_runtime_knl_ISemaphore_Interface__BASE__C
c081d49c   xdc_runtime_knl_ISync_Interface__BASE__C
c081d4a0   ti_sysbios_BIOS_Module__id__C
c081d4a4   ti_sysbios_family_c64p_EventCombiner_Module__id__C
c081d4a8   ti_sysbios_family_c64p_Exception_Module__id__C
c081d4ac   ti_sysbios_family_c64p_Hwi_Module__id__C
c081d4b0   ti_sysbios_family_c64p_Hwi_Module__loggerDefined__C
c081d4b4   ti_sysbios_gates_GateMutex_Module__id__C
c081d4b8   ti_sysbios_hal_Hwi_Module__id__C
c081d4bc   ti_sysbios_heaps_HeapMem_Module__id__C
c081d4c0   ti_sysbios_io_DEV_Module__id__C
c081d4c4   ti_sysbios_io_GIO_Module__id__C
c081d4c8   ti_sysbios_knl_Clock_Module__id__C
c081d4cc   ti_sysbios_knl_Clock_Module__loggerDefined__C
c081d4d0   ti_sysbios_knl_Semaphore_Module__id__C
c081d4d4   ti_sysbios_knl_Semaphore_Module__loggerDefined__C
c081d4d8   ti_sysbios_knl_Swi_Module__id__C
c081d4dc   ti_sysbios_knl_Swi_Module__loggerDefined__C
c081d4e0   ti_sysbios_knl_Task_Module__id__C
c081d4e4   ti_sysbios_knl_Task_Module__loggerDefined__C
c081d4e8   ti_sysbios_knl_Task_deleteTerminatedTasks__C
c081d4ec   ti_sysbios_knl_Task_initStackFlag__C
c081d4f0   ti_sysbios_timers_timer64_Timer_Module__id__C
c081d4f4   ti_sysbios_timers_timer64_Timer_startupNeeded__C
c081d4f8   xdc_runtime_Core_Module__id__C
c081d4fc   xdc_runtime_Error_Module__loggerDefined__C
c081d500   xdc_runtime_Error_maxDepth__C
c081d504   xdc_runtime_Memory_Module__id__C
c081d508   xdc_runtime_SysMin_flushAtExit__C
c081d50c   xdc_runtime_Text_charCnt__C
c081d510   xdc_runtime_Text_isLoaded__C
c081d514   xdc_runtime_Text_registryModsLastId__C
c081d518   xdc_runtime_Text_unnamedModsLastId__C
c081d520   ti_sysbios_BIOS_Module__state__V
c081d540   ti_sysbios_family_c64p_Cache_Module__state__V
c081d544   ti_sysbios_family_c64p_EventCombiner_Module__state__V
c081d944   ti_sysbios_family_c64p_Exception_Module__state__V
c081d970   ti_sysbios_family_c64p_Hwi_Module__root__V
c081d978   ti_sysbios_family_c64p_Hwi_Module__state__V
c081d9e0   ti_sysbios_family_c64p_primus_TimerSupport_Module__state__V
c081d9e4   ti_sysbios_gates_GateHwi_Module__root__V
c081d9ec   ti_sysbios_gates_GateMutex_Module__root__V
c081d9f4   ti_sysbios_hal_Hwi_Module__root__V
c081d9fc   ti_sysbios_hal_Timer_Module__root__V
c081da04   ti_sysbios_heaps_HeapMem_Module__root__V
c081da0c   ti_sysbios_io_DEV_Module__root__V
c081da14   ti_sysbios_io_DEV_Module__state__V
c081da18   ti_sysbios_io_GIO_Module__root__V
c081da20   ti_sysbios_knl_Clock_Module__root__V
c081da28   ti_sysbios_knl_Clock_Module__state__V
c081da50   ti_sysbios_knl_Queue_Module__root__V
c081da58   ti_sysbios_knl_Semaphore_Module__root__V
c081da60   ti_sysbios_knl_Swi_Module__root__V
c081da68   ti_sysbios_knl_Swi_Module__state__V
c081da84   ti_sysbios_knl_Task_Module__root__V
c081da8c   ti_sysbios_knl_Task_Module__state__V
c081dad4   ti_sysbios_timers_timer64_Timer_Module__root__V
c081dadc   ti_sysbios_timers_timer64_Timer_Module__state__V
c081daf0   ti_sysbios_xdcruntime_SemThreadSupport_Module__root__V
c081daf8   xdc_runtime_Error_Module__state__V
c081dafc   xdc_runtime_LoggerBuf_Module__root__V
c081db04   xdc_runtime_LoggerBuf_Module__state__V
c081db0c   xdc_runtime_Memory_Module__state__V
c081db10   xdc_runtime_Registry_Module__state__V
c081db18   xdc_runtime_Startup_Module__state__V
c081db20   xdc_runtime_SysMin_Module__state__V
c081db2c   xdc_runtime_System_Module__state__V
c081db38   xdc_runtime_Text_Module__state__V
c081db40   xdc_runtime_knl_SemThread_Module__root__V
c081db48   xdc_runtime_knl_SyncNull_Module__root__V
c081db50   xdc_runtime_knl_SyncSemThread_Module__root__V
c081db58   __xdc__init__addr
c081db5c   _ft_end
c081db60   _ftable
c081dd40   ti_sysbios_knl_Task_Object__table__V
c081de70   TSK_idle
c081debc   uppChanparamARcv
c081df10   uppChanparamA
c081df64   uppChanparamB
c081dfb8   _ipcfg
c081e110   ti_sysbios_knl_Swi_Module_State_0_readyQ__A
c081e190   ti_sysbios_knl_Task_Module_State_0_readyQ__A
c081e288   ti_sysbios_family_c64p_Hwi_Object__table__V
c081e300   ti_sysbios_timers_timer64_Timer_Module_State_0_device__A
c081e400   ti_sysbios_timers_timer64_Timer_Object__table__V
c081e450   ADCPAR_Reset
c081e5d0   ti_sysbios_gates_GateMutex_Object__table__V
c081e680   ti_sysbios_knl_Swi_Object__table__V
c081e6b0   _oscfg
c081e6d8   pstrMsgName
c081e6f8   ti_sysbios_io_DEV_Module_State_0_table__A
c081e718   ti_sysbios_timers_timer64_Timer_Module_State_0_gctrl__A
c081e738   ti_sysbios_timers_timer64_Timer_Module_State_0_handles__A
c081e758   ti_sysbios_timers_timer64_Timer_Module_State_0_intFreqs__A
c081e778   xdc_runtime_System_Module_State_0_atexitHandlers__A
c081e79c   Upp_IOMFXNS
c081e7b8   ti_ndk_config_Global_Id2Size
c081e7f0   ti_sysbios_heaps_HeapMem_Object__table__V
c081e864   _cleanup_ptr
c081e868   _dtors_ptr
c081e86c   __TI_enable_exit_profile_output
c081e890   NIMUDeviceTable
c081e8a0   _lock
c081e8a4   _unlock
c081e8a8   ti_sysbios_family_c64p_primus_TimerSupport_Module_State_0_suspSrc__A
c081e8b0   ti_sysbios_hal_Hwi_Object__table__V
c081e8b8   ti_sysbios_hal_Timer_Object__table__V
c081e8d8   ti_sysbios_gates_GateHwi_Object__table__V
c081e8e0   ti_sysbios_knl_Task_Module_State_0_idleTask__A
c081ec00   ti_sysbios_family_c64p_Hwi0
c081ec00   ti_sysbios_family_c64p_Hwi_int0
c081ec20   ti_sysbios_family_c64p_Hwi_int1
c081ec40   ti_sysbios_family_c64p_Hwi_int2
c081ec60   ti_sysbios_family_c64p_Hwi_int3
c081ec80   ti_sysbios_family_c64p_Hwi_int4
c081eca0   ti_sysbios_family_c64p_Hwi_int5
c081ecc0   ti_sysbios_family_c64p_Hwi_int6
c081ece0   ti_sysbios_family_c64p_Hwi_int7
c081ed00   ti_sysbios_family_c64p_Hwi_int8
c081ed20   ti_sysbios_family_c64p_Hwi_int9
c081ed40   ti_sysbios_family_c64p_Hwi_int10
c081ed60   ti_sysbios_family_c64p_Hwi_int11
c081ed80   ti_sysbios_family_c64p_Hwi_int12
c081eda0   ti_sysbios_family_c64p_Hwi_int13
c081edc0   ti_sysbios_family_c64p_Hwi_int14
c081ede0   ti_sysbios_family_c64p_Hwi_int15
c081ee40   __TI_STATIC_BASE
c081ee40   semIn2P
c081ee44   semP2In
c081ee48   semP2Net
c081ee4c   semNet2P
c081ee50   semP2Usb
c081ee54   semUsb2P
c081ee58   semUM2P
c081ee5c   semP2UM
c081ee60   semUD2P
c081ee64   semP2UD
c081ee68   semUM2Net
c081ee6c   semNet2UM
c081ee70   semUD2Net
c081ee74   semNet2UD
c081ee78   HwiUart1
c081ee7c   HwiUart2
c081ee80   HwiUsb2
c081ee9c   _IGMPInDiscard
c081eea0   _IGMPInQuery
c081eea4   _IGMPInQueryGroup
c081eea8   _IGMPInResponse
c081eeac   _IGMPOutResponse
c081eeb0   uppDevHandle
c081eeb4   tCount
c081eeb8   uppInHandle
c081eebc   uppOutHandle
c081eee0   rxBuffer
c081eee4   g_ulUSBHIntEvents
c081ef00   CONTENT_TYPE_APPLET
c081ef04   CONTENT_TYPE_AU
c081ef08   CONTENT_TYPE_CSS
c081ef0c   CONTENT_TYPE_DOC
c081ef10   CONTENT_TYPE_GIF
c081ef14   CONTENT_TYPE_HTML
c081ef18   CONTENT_TYPE_JPG
c081ef1c   CONTENT_TYPE_MPEG
c081ef20   CONTENT_TYPE_PDF
c081ef24   CONTENT_TYPE_WAV
c081ef28   CONTENT_TYPE_ZIP
c081ef2c   CONTENT_TYPE
c081ef30   CONTENT_LENGTH
c081ef34   CRLF
c081ef38   DEFAULT_NAME
c081ef3c   HTTP_VER
c081ef40   SPACE
c081ef44   uartRegs1
c081ef48   uartRegs2
c081ef4c   c018_flag
c081ef50   UART1_CmdStartChar_flag
c081ef54   UART1_CmdReady_Flag
c081ef58   UART1_CmdCount
c081ef5c   tuichao1
c081ef5d   tuichao2
c081ef60   UART2_CmdStartChar_flag
c081ef64   UART2_CmdReady_Flag
c081ef68   UART2_CmdCount
c081ef6c   UART1_CmdReady_Flag_tim
c081ef70   MainConfigSize
c081ef74   MainConfigValid
c081ef78   LocalIPAddr
c081ef7c   LocalIPMask
c081ef80   GatewayIP
c081ef84   ServerIPAddr
c081ef88   HostName
c081ef8c   DomainName
c081ef98   PITCount
c081ef9c   PITUsed
c081efa0   PITHigh
c081efd8   memory_squeeze_error
c081efe0   g_ulDMAPending
c081f064   _IGMPForceVersion1
c081f070   TxChanEnable_all
c081f074   RxChanEnable_all
c081f078   corenum
c081f07c   PreTime
c081f080   NowTime
c081f084   TimeOutCNT
c081f088   USBOTGTimeOutFlage
c081f098   g_bUSBTimerInitialized
c081f09c   g_ulCurrentUSBTick
c081f0a0   g_ulUSBSOFCount
c081f0ac   _ICMPInErrors
c081f0b0   _ICMPOutErrors
c081f0b4   _IPExecuting
c081f0c4   gFragQList
c081f0e4   tcp_iss
c081f0e8   ptTimeFirst
c081f0ec   pt6TimeFirst
c081f0f0   tcp6_iss
c081f0fc   extio_ptr
c081f100   pktCount
c081f104   gpioRegs
c081f114   httpErrorResponseHook
c081f120   _IPReasmPtr
c081f128   gMLDNodeList
c081f140   IPV6_MAX_MULTICAST_SOLICIT
c081f144   IPV6_MAX_UNICAST_SOLICIT
c081f148   IPV6_RETRANS_TIME
c081f14c   IPV6_DELAY_FIRST_PROBE_TIME
c081f150   IPV6_REACHABLE_TIME
c081f154   IPV6_MAX_RTR_SOLICITATION_DELAY
c081f158   IPV6_RTR_SOLICITATION_INTERVAL
c081f15c   IPV6_MAX_RTR_SOLICITATIONS
c081f160   INFINITE_LT
c081f164   ti_ndk_config_Global_rawPageSize
c081f168   ti_ndk_config_Global_rawPageCount
c081f16c   ti_ndk_config_Global_smallest
c081f170   ti_ndk_config_Global_largest
c081f174   ti_ndk_config_Global_numFrameBuf
c081f178   ti_ndk_config_Global_sizeFrameBuf
c081f17c   __CIOBUF_
c0820044   __TI_Handler_Table_Base
c0820050   __TI_Handler_Table_Limit
c0820060   __TI_CINIT_Base
c0820088   __TI_CINIT_Limit
c3000000   my_boot
ffffffff   __TI_pprof_out_hndl
ffffffff   __TI_prof_data_size
ffffffff   __TI_prof_data_start
ffffffff   __binit__
ffffffff   __c_args__
ffffffff   binit
UNDEFED    __TI_INITARRAY_Base
UNDEFED    __TI_INITARRAY_Limit

[1734 symbols]
