******************************************************************************
               TMS320C6x Linker PC v7.4.1                      
******************************************************************************
>> Linked Sat Jan 17 23:41:45 2015

OUTPUT FILE NAME:   <bk_fr_c6748.out>
ENTRY POINT SYMBOL: "_c_int00"  address: c0ad5860


MEMORY CONFIGURATION

         name            origin    length      used     unused   attr    fill
----------------------  --------  ---------  --------  --------  ----  --------
  IROM                  11700000   00100000  00000000  00100000  R  X
  IRAM                  11800000   00020000  00000000  00020000  RW X
  L3_CBA_RAM            80000000   00020000  00001000  0001f000  RW X
  SN_PAR                c0000000   00180000  00000000  00180000  RW  
  DDR2_SN_PAR4          c0180000   00080000  00000000  00080000  RW  
  DDR2_RAM              c0200000   02d00000  008ed16a  02412e96  RW X
  App_Prog_START        c3000000   00000400  00000040  000003c0  RW X
  DDR                   c3000400   000ff000  00000000  000ff000  RW X
  DDR_EXT               c4000000   0c000000  00000000  0c000000  RW  


SEGMENT ALLOCATION MAP

run origin  load origin   length   init length attrs members
----------  ----------- ---------- ----------- ----- -------
80000000    80000000    00001000   00000000    rw-
  80000000    80000000    00001000   00000000    rw- .stack
c0200000    c0200000    00876950   00000000    rw-
  c0200000    c0200000    00876950   00000000    rw- .far
c0a76950    c0a76950    00000010   00000010    r--
  c0a76950    c0a76950    00000010   00000010    r-- .const.1
c0a76960    c0a76960    00072e2a   00072e2a    r-x
  c0a76960    c0a76960    00068360   00068360    r-x .text
  c0adecc0    c0adecc0    0000aaca   0000aaca    r-- .const.2
c0ae9790    c0ae9790    00001cec   00001cec    rw-
  c0ae9790    c0ae9790    00001cec   00001cec    rw- .fardata
c0aeb47c    c0aeb47c    0000037c   0000037c    r--
  c0aeb47c    c0aeb47c    0000037c   0000037c    r-- .switch.1
c0aeb800    c0aeb800    000002a0   000002a0    r-x
  c0aeb800    c0aeb800    00000200   00000200    r-x .vecs
  c0aeba00    c0aeba00    000000a0   000000a0    r-- .switch.2
c0aebaa0    c0aebaa0    000000b8   00000000    rw-
  c0aebaa0    c0aebaa0    000000b8   00000000    rw- .bss
c0aebb58    c0aebb58    00000224   00000224    rw-
  c0aebb58    c0aebb58    00000224   00000224    rw- .neardata
c0aebd7c    c0aebd7c    00000040   00000040    r--
  c0aebd7c    c0aebd7c    00000040   00000040    r-- .rodata
c0aebdbc    c0aebdbc    00000120   00000000    rw-
  c0aebdbc    c0aebdbc    00000120   00000000    rw- .cio
c0aebedc    c0aebedc    0000129c   0000129c    r--
  c0aebedc    c0aebedc    0000129c   0000129c    r-- .cinit
c3000000    c3000000    00000040   00000040    r-x
  c3000000    c3000000    00000040   00000040    r-x my_boot_sect


SECTION ALLOCATION MAP

 output                                  attributes/
section   page    origin      length       input sections
--------  ----  ----------  ----------   ----------------
.init_array 
*          0    c0200000    00000000     UNINITIALIZED

.stack     0    80000000    00001000     UNINITIALIZED
                  80000000    00000008     boot.ae674 : boot.oe674 (.stack)
                  80000008    00000ff8     --HOLE--

xdc.meta   0    c0200000    000000f8     COPY SECTION
                  c0200000    000000f8     bk_fr_c6748_pe674.oe674 (xdc.meta)

.far       0    c0200000    00876950     UNINITIALIZED
                  c0200000    00800028     bk_fr_c6748_pe674.oe674 (.far)
                  c0a00028    00000058     ti.drv.omapl138.ae674 : csl_mdio.oe674 (.far)
                  c0a00080    00052b00     stk6_ppp_pppoe.ae674 : pbm_data.oe674 (.far:NDK_PACKETMEM)
                  c0a52b80    0000c1c0     os.ae674 : mem_data.oe674 (.far:NDK_MMBUFFER)
                  c0a5ed40    000079f0     edma3_lld_drv.ae674 : edma3_drv_init.oe674 (.far)
                  c0a66730    00005800     bk_fr_c6748_pe674.oe674 (.far:taskStackSection)
                  c0a6bf30    00004970     edma3_lld_rm.ae674 : edma3resmgr.oe674 (.far)
                  c0a708a0    00002820                        : edma3_rm_gbl_data.oe674 (.far)
                  c0a730c0    00001618     ti.drv.omapl138.ae674 : ethdriver.oe674 (.far)
                  c0a746d8    00000660     nettool.ae674 : daemon.oe674 (.far)
                  c0a74d38    000005d8     I2c.obj (.far)
                  c0a75310    00000580     Vpif.obj (.far)
                  c0a75890    0000047c     ti.drv.omapl138.ae674 : csl_emac.oe674 (.far)
                  c0a75d0c    00000004     stk6_ppp_pppoe.ae674 : rawethsock_pcb.oe674 (.far)
                  c0a75d10    00000200     networkmain.obj (.far)
                  c0a75f10    00000140     rts6740_elf.lib : defs.obj (.far)
                  c0a76050    00000110     stk6_ppp_pppoe.ae674 : igmp.oe674 (.far)
                  c0a76160    00000100     Psc.obj (.far)
                  c0a76260    000000d8     netctrl.ae674 : netsrv.oe674 (.far)
                  c0a76338    000000c8     stk6_ppp_pppoe.ae674 : ipv6.oe674 (.far)
                  c0a76400    000000c4                          : tcp.oe674 (.far)
                  c0a764c4    000000b8                          : tcp6in.oe674 (.far)
                  c0a7657c    00000004     --HOLE--
                  c0a76580    0000009c                          : icmp.oe674 (.far)
                  c0a7661c    00000004     --HOLE--
                  c0a76620    00000098     CodecInterface.obj (.far)
                  c0a766b8    0000007c     os.ae674 : mem.oe674 (.far)
                  c0a76734    00000068     stk6_ppp_pppoe.ae674 : ip.oe674 (.far)
                  c0a7679c    00000064                          : nimu.oe674 (.far)
                  c0a76800    00000030                          : udp.oe674 (.far)
                  c0a76830    0000002c     fr6748_Init.obj (.far)
                  c0a7685c    00000028     stk6_ppp_pppoe.ae674 : vlan.oe674 (.far)
                  c0a76884    00000024                          : udp6.oe674 (.far)
                  c0a768a8    00000018                          : icmpv6.oe674 (.far)
                  c0a768c0    00000014                          : rtc.oe674 (.far)
                  c0a768d4    00000004     --HOLE--
                  c0a768d8    00000013     Adv7391.obj (.far)
                  c0a768eb    00000001     --HOLE--
                  c0a768ec    00000010     back_taskImageInput.obj (.far)
                  c0a768fc    00000010     netctrl.ae674 : netctrl.oe674 (.far)
                  c0a7690c    00000010     stk6_ppp_pppoe.ae674 : raw.oe674 (.far)
                  c0a7691c    00000010                          : raw6.oe674 (.far)
                  c0a7692c    00000010                          : raweth.oe674 (.far)
                  c0a7693c    0000000c                          : pbm.oe674 (.far)
                  c0a76948    00000008     rts6740_elf.lib : trgdrv.obj (.far)

.const.1   0    c0a76950    00000010     
                  c0a76950    00000010     Adv7391.obj (.const:$P$T2$3)

.text      0    c0a76960    00068360     
                  c0a76960    000081c0     Vpif.obj (.text)
                  c0a7eb20    00003d60     I2c.obj (.text)
                  c0a82880    00002060     Adv7391.obj (.text)
                  c0a848e0    00001a00     stk6_ppp_pppoe.ae674 : tcpin.oe674 (.text:TcpInput)
                  c0a862e0    00001980                          : tcp6in.oe674 (.text:TCP6Input)
                  c0a87c60    00001880     Tvp5150.obj (.text)
                  c0a894e0    00001240     stk6_ppp_pppoe.ae674 : tcpout.oe674 (.text:TcpOutput)
                  c0a8a720    00001180                          : tcp6out.oe674 (.text:TCP6Output)
                  c0a8b8a0    00000e00     CodecInterface.obj (.text)
                  c0a8c6a0    00000d00     edma3_lld_rm.ae674 : edma3resmgr.oe674 (.text:EDMA3_RM_allocResource)
                  c0a8d3a0    00000c60     edma3_lld_drv.ae674 : edma3_drv_basic.oe674 (.text:EDMA3_DRV_requestChannel)
                  c0a8e000    00000c60     ti.drv.omapl138.ae674 : csl_emac.oe674 (.text:EMAC_open)
                  c0a8ec60    00000c00     nettool.ae674 : httpclie.oe674 (.text:httpClientProcess)
                  c0a8f860    00000b80     stk6_ppp_pppoe.ae674 : ipin.oe674 (.text:IPRxPacket)
                  c0a903e0    00000aa0                          : md5.oe674 (.text:MD5Transform)
                  c0a90e80    000009e0     I2c_edma.obj (.text)
                  c0a91860    000009c0     stk6_ppp_pppoe.ae674 : ipout.oe674 (.text:IPTxPacket)
                  c0a92220    000009a0                          : lcp.oe674 (.text:lcpInput)
                  c0a92bc0    000009a0     ti.targets.rts6000.ae674 : System.oe674 (.text:xdc_runtime_System_doPrint__I)
                  c0a93560    00000900     nettool.ae674 : httpsend.oe674 (.text:SetContentType)
                  c0a93e60    000007e0     stk6_ppp_pppoe.ae674 : ipcp.oe674 (.text:ipcpInput)
                  c0a94640    000007c0                          : sock.oe674 (.text:SockSet)
                  c0a94e00    000007a0     cslr_uart.obj (.text)
                  c0a955a0    000007a0     stk6_ppp_pppoe.ae674 : fileuser.oe674 (.text:fdPoll)
                  c0a95d40    00000780     sysbios.ae674 : BIOS.obj (.text:ti_sysbios_family_c64p_Exception_handler__I)
                  c0a964c0    00000760     ti.drv.omapl138.ae674 : csl_mdio.oe674 (.text:MDIO_timerTick)
                  c0a96c20    00000760     back_taskImageInput.obj (.text)
                  c0a97380    000006c0     nettool.ae674 : telnetd.oe674 (.text:telnet_netdata)
                  c0a97a40    00000680     stk6_ppp_pppoe.ae674 : icmpv6_ndisc.oe674 (.text:ICMPv6RecvRA)
                  c0a980c0    00000680     sysbios.ae674 : BIOS.obj (.text:ti_sysbios_knl_Task_Instance_finalize__F)
                  c0a98740    00000600     edma3_lld_rm.ae674 : edma3resmgr.oe674 (.text:EDMA3_RM_create)
                  c0a98d40    00000600     stk6_ppp_pppoe.ae674 : route6.oe674 (.text:Rt6Create)
                  c0a99340    00000600     sysbios.ae674 : BIOS.obj (.text:ti_sysbios_heaps_HeapMem_alloc__E)
                  c0a99940    00000600                   : BIOS.obj (.text:ti_sysbios_heaps_HeapMem_free__E)
                  c0a99f40    000005c0     stk6_ppp_pppoe.ae674 : ipfrag.oe674 (.text:IPReasm)
                  c0a9a500    000005c0     rts6740_elf.lib : _printfi.obj (.text:_getarg_diouxp)
                  c0a9aac0    000005c0     sysbios.ae674 : BIOS.obj (.text:ti_sysbios_timers_timer64_Timer_Module_startup__F)
                  c0a9b080    000005a0     edma3_lld_rm.ae674 : edma3resmgr.oe674 (.text:EDMA3_RM_freeResource)
                  c0a9b620    000005a0     stk6_ppp_pppoe.ae674 : icmpin.oe674 (.text:ICMPInput)
                  c0a9bbc0    000005a0     rts6740_elf.lib : divd.obj (.text:__c6xabi_divd)
                  c0a9c160    00000580     stk6_ppp_pppoe.ae674 : nimuppp.oe674 (.text:pppEvent)
                  c0a9c6e0    00000560                          : ipv6.oe674 (.text:IPv6IPAddressToString)
                  c0a9cc40    00000520                          : sock.oe674 (.text:SockNew)
                  c0a9d160    00000520     nettool.ae674 : httpsend.oe674 (.text:httpSendStatusLine)
                  c0a9d680    000004e0     stk6_ppp_pppoe.ae674 : lliin.oe674 (.text:LLIRxPacket)
                  c0a9db60    000004e0                          : udp.oe674 (.text:UdpInput)
                  c0a9e040    000004e0                          : nimupppoe.oe674 (.text:pppoeInputS)
                  c0a9e520    000004e0     sysbios.ae674 : BIOS.obj (.text:ti_sysbios_knl_Semaphore_pend__E)
                  c0a9ea00    000004c0     edma3_lld_drv.ae674 : edma3_drv_basic.oe674 (.text:EDMA3_DRV_disableTransfer)
                  c0a9eec0    000004c0     stk6_ppp_pppoe.ae674 : sock6.oe674 (.text:Sock6Connect)
                  c0a9f380    000004c0                          : sock6.oe674 (.text:Sock6Set)
                  c0a9f840    000004a0                          : sock6.oe674 (.text:Sock6Recv)
                  c0a9fce0    000004a0                          : sock.oe674 (.text:SockRecv)
                  c0aa0180    00000480                          : bind6.oe674 (.text:Bind6New)
                  c0aa0600    00000480     sysbios.ae674 : BIOS.obj (.text:ti_sysbios_knl_Task_Module_startup__F)
                  c0aa0a80    00000460     rts6740_elf.lib : _printfi.obj (.text:_printfi)
                  c0aa0ee0    00000460                     : _printfi.obj (.text:_setfield)
                  c0aa1340    00000460     stk6_ppp_pppoe.ae674 : nimuppp.oe674 (.text:pppNew)
                  c0aa17a0    00000460     taskNet.obj (.text)
                  c0aa1c00    00000440     stk6_ppp_pppoe.ae674 : sock6.oe674 (.text:Sock6New)
                  c0aa2040    00000440                          : fileuser.oe674 (.text:fdSelect)
                  c0aa2480    00000440                          : nimupppoe.oe674 (.text:pppoeInputC)
                  c0aa28c0    00000420     ti.drv.omapl138.ae674 : csl_mdio.oe674 (.text:MDIO_initContinue)
                  c0aa2ce0    00000420     stk6_ppp_pppoe.ae674 : auth.oe674 (.text:chapInput)
                  c0aa3100    00000420     nettool.ae674 : daemon.oe674 (.text:daemon)
                  c0aa3520    00000400     stk6_ppp_pppoe.ae674 : sock6.oe674 (.text:Sock6Send)
                  c0aa3920    00000400     os.ae674 : efs.oe674 (.text:efs_filecheck)
                  c0aa3d20    000003e0     stk6_ppp_pppoe.ae674 : ipv6_frag.oe674 (.text:IPv6TxFragPacket)
                  c0aa4100    000003c0     edma3_lld_drv.ae674 : edma3_drv_basic.oe674 (.text:EDMA3_DRV_freeChannel)
                  c0aa44c0    000003c0     ti.drv.omapl138.ae674 : csl_emac.oe674 (.text:EMAC_close)
                  c0aa4880    000003c0     stk6_ppp_pppoe.ae674 : ipv6out.oe674 (.text:IPv6TxPacket)
                  c0aa4c40    000003c0                          : lli6.oe674 (.text:LLI6TimerCheck)
                  c0aa5000    000003c0                          : sock.oe674 (.text:SockSend)
                  c0aa53c0    000003c0                          : tcp6.oe674 (.text:TCP6TimeoutCheck)
                  c0aa5780    000003c0                          : tcp.oe674 (.text:TcpTimeoutCheck)
                  c0aa5b40    000003c0     fr6748_Init.obj (.text)
                  c0aa5f00    000003c0     networkmain.obj (.text)
                  c0aa62c0    000003c0     rts6740_elf.lib : strtol.obj (.text:strtol)
                  c0aa6680    000003c0     sysbios.ae674 : BIOS.obj (.text:ti_sysbios_knl_Task_Instance_init__F)
                  c0aa6a40    000003c0                   : BIOS.obj (.text:ti_sysbios_knl_Task_setPri__E)
                  c0aa6e00    000003a0     stk6_ppp_pppoe.ae674 : nimu.oe674 (.text:NIMUIoctl)
                  c0aa71a0    000003a0                          : route.oe674 (.text:RtCreate)
                  c0aa7540    000003a0                          : sb.oe674 (.text:SBRead)
                  c0aa78e0    000003a0     rts6740_elf.lib : fputs.obj (.text:fputs)
                  c0aa7c80    000003a0     stk6_ppp_pppoe.ae674 : auth.oe674 (.text:papInput)
                  c0aa8020    00000380     edma3_lld_drv.ae674 : edma3_drv_basic.oe674 (.text:EDMA3_DRV_enableTransfer)
                  c0aa83a0    00000380     stk6_ppp_pppoe.ae674 : icmpv6in.oe674 (.text:ICMPv6RxPacket)
                  c0aa8720    00000380                          : igmp.oe674 (.text:IGMPInput)
                  c0aa8aa0    00000380     Psc.obj (.text)
                  c0aa8e20    00000380     stk6_ppp_pppoe.ae674 : sock.oe674 (.text:SockConnect)
                  c0aa91a0    00000380     nettool.ae674 : dhcppkt.oe674 (.text:dhcpPacketProcess)
                  c0aa9520    00000380     sysbios.ae674 : BIOS.obj (.text:ti_sysbios_io_GIO_Instance_init__F)
                  c0aa98a0    00000360     stk6_ppp_pppoe.ae674 : ipv6_frag.oe674 (.text:IPv6FragReasm)
                  c0aa9c00    00000360                          : lliout.oe674 (.text:LLITxIpPacket)
                  c0aa9f60    00000360                          : sock6int.oe674 (.text:Sock6Notify)
                  c0aaa2c0    00000360                          : sockint.oe674 (.text:SockNotify)
                  c0aaa620    00000340                          : icmpv6out.oe674 (.text:ICMPv6SendParameterProblem)
                  c0aaa960    00000340     os.ae674 : mem.oe674 (.text:mmAlloc)
                  c0aaaca0    00000340     stk6_ppp_pppoe.ae674 : nimupppoe.oe674 (.text:pppoeSI)
                  c0aaafe0    00000320     nettool.ae674 : config.oe674 (.text:CfgAddEntry)
                  c0aab300    00000320     stk6_ppp_pppoe.ae674 : icmpv6_ndisc.oe674 (.text:ICMPv6RecvRedirect)
                  c0aab620    00000320                          : nimupppoe.oe674 (.text:SendServerMsg)
                  c0aab940    00000320     rts6740_elf.lib : _printfi.obj (.text:_pproc_fge)
                  c0aabc60    00000320     nettool.ae674 : telnetd.oe674 (.text:telnet_engine)
                  c0aabf80    00000300     stk6_ppp_pppoe.ae674 : icmpv6out.oe674 (.text:ICMPv6SendDstUnreachable)
                  c0aac280    00000300                          : icmpv6out.oe674 (.text:ICMPv6SendTimeExceeded)
                  c0aac580    00000300     netctrl.ae674 : netctrl.oe674 (.text:NetScheduler)
                  c0aac880    00000300     stk6_ppp_pppoe.ae674 : sock6pcb.oe674 (.text:Sock6PcbBind)
                  c0aacb80    00000300                          : udp6.oe674 (.text:Udp6Input)
                  c0aace80    00000300     nettool.ae674 : inetaddr.oe674 (.text:inet_aton)
                  c0aad180    00000300     sysbios.ae674 : BIOS.obj (.text:ti_sysbios_family_c64p_Hwi_dispatchC__I)
                  c0aad480    000002e0     ti.drv.omapl138.ae674 : ethdriver.oe674 (.text:HwPktOpen)
                  c0aad760    000002e0     stk6_ppp_pppoe.ae674 : icmpv6_ndisc.oe674 (.text:ICMPv6RecvNS)
                  c0aada40    000002e0                          : route6.oe674 (.text:Rt6Find)
                  c0aadd20    000002e0                          : nimupppoe.oe674 (.text:SendClientMsg)
                  c0aae000    000002e0                          : udp.oe674 (.text:UdpOutput)
                  c0aae2e0    000002e0     rts6740_elf.lib : _printfi.obj (.text:_pproc_fwp)
                  c0aae5c0    000002e0     stk6_ppp_pppoe.ae674 : nimuppp.oe674 (.text:pppInput)
                  c0aae8a0    000002e0     sysbios.ae674 : BIOS.obj (.text:ti_sysbios_heaps_HeapMem_Instance_init__F)
                  c0aaeb80    000002c0     stk6_ppp_pppoe.ae674 : bind.oe674 (.text:BindNew)
                  c0aaee40    000002c0                          : ipv6_frag.oe674 (.text:IPv6FragQEnqueueFrag)
                  c0aaf100    000002c0                          : rtable.oe674 (.text:RtFind)
                  c0aaf3c0    000002c0                          : sb6.oe674 (.text:SB6Read)
                  c0aaf680    000002c0                          : sock6pcb.oe674 (.text:Sock6PcbResolve)
                  c0aaf940    000002c0                          : udp6.oe674 (.text:Udp6Output)
                  c0aafc00    000002c0     edma3_lld_drv.ae674 : edma3_drv_basic.oe674 (.text:edma3RemoveMapping)
                  c0aafec0    000002c0     sysbios.ae674 : BIOS.obj (.text:ti_sysbios_knl_Task_exit__E)
                  c0ab0180    000002a0     nettool.ae674 : dhcpmain.oe674 (.text:DHCPOpen)
                  c0ab0420    000002a0     stk6_ppp_pppoe.ae674 : ipv6_exthdrs.oe674 (.text:IPv6ParseExtnHeaders)
                  c0ab06c0    000002a0                          : node.oe674 (.text:NodeAdd)
                  c0ab0960    000002a0                          : sock6pcb.oe674 (.text:Sock6PcbFind)
                  c0ab0c00    000002a0                          : sock.oe674 (.text:SockClose)
                  c0ab0ea0    000002a0                          : tcp6prot.oe674 (.text:TCP6PrSetOption)
                  c0ab1140    000002a0                          : tcpprot.oe674 (.text:TcpPrSetOption)
                  c0ab13e0    000002a0     rts6740_elf.lib : _printfi.obj (.text:ecvt)
                  c0ab1680    000002a0                     : _printfi.obj (.text:fcvt)
                  c0ab1920    000002a0     sysbios.ae674 : BIOS.obj (.text:ti_sysbios_knl_Clock_workFunc__E)
                  c0ab1bc0    000002a0                   : BIOS.obj (.text:ti_sysbios_knl_Task_sleep__E)
                  c0ab1e60    00000280     nettool.ae674 : config.oe674 (.text:CfgSave)
                  c0ab20e0    00000280     stk6_ppp_pppoe.ae674 : icmp.oe674 (.text:ICMPGenPacket)
                  c0ab2360    00000280                          : icmpv6in.oe674 (.text:ICMPv6RecvEchoRequest)
                  c0ab25e0    00000280                          : lli6.oe674 (.text:LLI6NeighUnreachStateMachine)
                  c0ab2860    00000280                          : route6.oe674 (.text:Rt6Free)
                  c0ab2ae0    00000280                          : sockpcb.oe674 (.text:SockPcbResolve)
                  c0ab2d60    00000280                          : sock.oe674 (.text:SockRecvNC)
                  c0ab2fe0    00000280                          : tcp6out.oe674 (.text:TCP6GenPacket)
                  c0ab3260    00000280     sysbios.ae674 : BIOS.obj (.text:deviceConfig$47)
                  c0ab34e0    00000280     stk6_ppp_pppoe.ae674 : ipcp.oe674 (.text:ipcpSendCfg)
                  c0ab3760    00000280     sysbios.ae674 : BIOS.obj (.text:ti_sysbios_family_c64p_Cache_Module_startup__F)
                  c0ab39e0    00000280                   : BIOS.obj (.text:ti_sysbios_knl_Clock_Instance_init__F)
                  c0ab3c60    00000280     ti.targets.rts6000.ae674 : Core-mem.oe674 (.text:xdc_runtime_Core_createObject__I)
                  c0ab3ee0    00000280                              : Error.oe674 (.text:xdc_runtime_Error_raiseX__F)
                  c0ab4160    00000280     bk_fr_c6748_pe674.oe674 (.text:xdc_runtime_System_printfExtend__I)
                  c0ab43e0    00000260     stk6_ppp_pppoe.ae674 : icmpv6_ndisc.oe674 (.text:ICMPv6SendNS)
                  c0ab4640    00000260     os.ae674 : intmgmt.oe674 (.text:Interrupt_add)
                  c0ab48a0    00000260     stk6_ppp_pppoe.ae674 : lli6.oe674 (.text:LLI6TxIPPacket)
                  c0ab4b00    00000260                          : nimu.oe674 (.text:NIMUReceivePacket)
                  c0ab4d60    00000260                          : rawethsock.oe674 (.text:RawEthSockSet)
                  c0ab4fc0    00000260                          : sb6.oe674 (.text:SB6Write)
                  c0ab5220    00000260                          : sb.oe674 (.text:SBWrite)
                  c0ab5480    00000260                          : sock6.oe674 (.text:Sock6Close)
                  c0ab56e0    00000260                          : sockpcb.oe674 (.text:SockPcbBind)
                  c0ab5940    00000260     rts6740_elf.lib : imath64.obj (.text:__c6xabi_divull)
                  c0ab5ba0    00000260                     : _printfi.obj (.text:_pconv_e)
                  c0ab5e00    00000260     nettool.ae674 : httppars.oe674 (.text:httpParseRecv)
                  c0ab6060    00000260                   : httpsend.oe674 (.text:httpSendErrorHTML)
                  c0ab62c0    00000260     stk6_ppp_pppoe.ae674 : lcp.oe674 (.text:lcpSendCfg)
                  c0ab6520    00000260     ti.targets.rts6000.ae674 : Startup.oe674 (.text:xdc_runtime_Startup_startMods__I)
                  c0ab6780    00000240     stk6_ppp_pppoe.ae674 : bind6.oe674 (.text:Bind6RunDAD)
                  c0ab69c0    00000240     nettool.ae674 : daemon.oe674 (.text:DaemonNew)
                  c0ab6c00    00000240     edma3_lld_rm.ae674 : edma3resmgr.oe674 (.text:EDMA3_RM_registerTccCb)
                  c0ab6e40    00000240                        : edma3resmgr.oe674 (.text:EDMA3_RM_unregisterTccCb)
                  c0ab7080    00000240     ti.drv.omapl138.ae674 : nimu_eth.oe674 (.text:Emacioctl)
                  c0ab72c0    00000240     stk6_ppp_pppoe.ae674 : icmpv6_ndisc.oe674 (.text:ICMPv6RecvNA)
                  c0ab7500    00000240                          : icmpv6_ndisc.oe674 (.text:ICMPv6SendNA)
                  c0ab7740    00000240                          : pipe.oe674 (.text:PipeRecv)
                  c0ab7980    00000240                          : raw.oe674 (.text:RawInput)
                  c0ab7bc0    00000240     rts6740_elf.lib : _printfi.obj (.text:_pproc_diouxp)
                  c0ab7e00    00000240     nettool.ae674 : dhcpsm.oe674 (.text:dhcpIPAdd)
                  c0ab8040    00000240                   : dhcpsm.oe674 (.text:dhcpState)
                  c0ab8280    00000240                   : dhcppkt.oe674 (.text:dhcpVerifyMessage)
                  c0ab84c0    00000240     sysbios.ae674 : BIOS.obj (.text:ti_sysbios_family_c64p_Exception_internalHandler__I)
                  c0ab8700    00000240                   : BIOS.obj (.text:ti_sysbios_knl_Semaphore_post__E)
                  c0ab8940    00000220     stk6_ppp_pppoe.ae674 : igmp.oe674 (.text:IGMPJoinHostGroup)
                  c0ab8b60    00000220                          : ipv6in.oe674 (.text:IPv6RxPacket)
                  c0ab8d80    00000220                          : rawethsock.oe674 (.text:RawEthSockNew)
                  c0ab8fa0    00000220                          : sockpcb.oe674 (.text:SockPcbFind)
                  c0ab91c0    00000220     rts6740_elf.lib : _printfi.obj (.text:_pproc_str)
                  c0ab93e0    00000220                     : fputc.obj (.text:fputc)
                  c0ab9600    00000220     nettool.ae674 : httpclie.oe674 (.text:httpGetAuthParams)
                  c0ab9820    00000220     sysbios.ae674 : BIOS.obj (.text:ti_sysbios_io_GIO_issue__E)
                  c0ab9a40    00000220                   : BIOS.obj (.text:ti_sysbios_knl_Swi_run__I)
                  c0ab9c60    00000220                   : BIOS.obj (.text:ti_sysbios_knl_Task_schedule__I)
                  c0ab9e80    00000220                   : BIOS.obj (.text:ti_sysbios_knl_Task_startCore__E)
                  c0aba0a0    00000200     stk6_ppp_pppoe.ae674 : ipv6_frag.oe674 (.text:IPv6ParseFragHdr)
                  c0aba2a0    00000200                          : lli6.oe674 (.text:LLI6New)
                  c0aba4a0    00000200                          : rtc.oe674 (.text:RTCReport)
                  c0aba6a0    00000200                          : raw6.oe674 (.text:Raw6Output)
                  c0aba8a0    00000200     rts6740_elf.lib : _printfi.obj (.text:_pconv_g)
                  c0abaaa0    00000200     sysbios.ae674 : c64p_Hwi_disp_always.obj (.text:_ti_sysbios_family_c64p_Hwi_dispatchAlways)
                  c0abaca0    00000200     stk6_ppp_pppoe.ae674 : socket.oe674 (.text:accept)
                  c0abaea0    00000200     sysbios.ae674 : BIOS.obj (.text:block$58)
                  c0abb0a0    00000200     ti.drv.omapl138.ae674 : csl_emac.oe674 (.text:emacDequeueRx)
                  c0abb2a0    00000200     rts6740_elf.lib : setvbuf.obj (.text:setvbuf)
                  c0abb4a0    00000200     sysbios.ae674 : BIOS.obj (.text:ti_sysbios_family_c64p_Hwi_reconfig__E)
                  c0abb6a0    00000200                   : BIOS.obj (.text:ti_sysbios_io_DEV_Module_startup__F)
                  c0abb8a0    000001e0     edma3_lld_drv.ae674 : edma3_drv_basic.oe674 (.text:EDMA3_DRV_clearErrorBits)
                  c0abba80    000001e0     ti.drv.omapl138.ae674 : csl_emac.oe674 (.text:EMAC_setReceiveFilter)
                  c0abbc60    000001e0                           : nimu_eth.oe674 (.text:EmacInit)
                  c0abbe40    000001e0     stk6_ppp_pppoe.ae674 : igmp.oe674 (.text:IGMPSendReply)
                  c0abc020    000001e0                          : route6.oe674 (.text:Rt6Modify)
                  c0abc200    000001e0                          : sock6pcb.oe674 (.text:Sock6PcbFindRaw)
                  c0abc3e0    000001e0                          : tcpout.oe674 (.text:TcpGenPacket)
                  c0abc5c0    000001e0                          : tcptime.oe674 (.text:TcpTimeoutRexmt)
                  c0abc7a0    000001e0                          : auth.oe674 (.text:chapSendMsg)
                  c0abc980    000001e0     nettool.ae674 : dhcpsock.oe674 (.text:dhcpSocketOpen)
                  c0abcb60    000001e0     edma3_lld_rm.ae674 : edma3resmgr.oe674 (.text:edma3GlobalRegionInit)
                  c0abcd40    000001e0     emacHooks.obj (.text)
                  c0abcf20    000001e0     fr_main.obj (.text)
                  c0abd100    000001e0     stk6_ppp_pppoe.ae674 : nimupppoe.oe674 (.text:pppoeCtrlMsg)
                  c0abd2e0    000001e0                          : socket.oe674 (.text:recvnc)
                  c0abd4c0    000001e0     scom.obj (.text)
                  c0abd6a0    000001e0     stk6_ppp_pppoe.ae674 : socket.oe674 (.text:sendto)
                  c0abd880    000001e0     sysbios.ae674 : BIOS.obj (.text:ti_sysbios_io_GIO_submit__E)
                  c0abda60    000001e0                   : BIOS.obj (.text:ti_sysbios_knl_Task_postInit__I)
                  c0abdc40    000001e0                   : BIOS.obj (.text:ti_sysbios_timers_timer64_Timer_getFreq__E)
                  c0abde20    000001c0     nettool.ae674 : config.oe674 (.text:CfgExecute)
                  c0abdfe0    000001c0     edma3_lld_drv.ae674 : edma3_drv_basic.oe674 (.text:EDMA3_DRV_disableLogicalChannel)
                  c0abe1a0    000001c0     ti.drv.omapl138.ae674 : csl_emac.oe674 (.text:EMAC_sendPacket)
                  c0abe360    000001c0     stk6_ppp_pppoe.ae674 : ip.oe674 (.text:IPGetRoute)
                  c0abe520    000001c0                          : ipv6_exthdrs.oe674 (.text:IPv6ParseHopOptions)
                  c0abe6e0    000001c0                          : lliout.oe674 (.text:LLIGenArpPacket)
                  c0abe8a0    000001c0     netctrl.ae674 : netsrv.oe674 (.text:SPIpNet)
                  c0abea60    000001c0     stk6_ppp_pppoe.ae674 : lli.oe674 (.text:_LLITimeoutCheck)
                  c0abec20    000001c0     rts6740_elf.lib : _printfi.obj (.text:_mcpy)
                  c0abede0    000001c0     nettool.ae674 : dhcpbild.oe674 (.text:dhcpBuildHeader)
                  c0abefa0    000001c0     ti.drv.omapl138.ae674 : csl_emac.oe674 (.text:emacEnqueueTx)
                  c0abf160    000001c0     stk6_ppp_pppoe.ae674 : fileuser.oe674 (.text:fdClose)
                  c0abf320    000001c0     sysbios.ae674 : BIOS.obj (.text:ti_sysbios_knl_Swi_Instance_init__F)
                  c0abf4e0    000001c0                   : BIOS.obj (.text:ti_sysbios_knl_Task_checkStacks__E)
                  c0abf6a0    000001c0                   : BIOS.obj (.text:ti_sysbios_timers_timer64_Timer_setPeriodMicroSecs__E)
                  c0abf860    000001a0     stk6_ppp_pppoe.ae674 : bind6.oe674 (.text:Bind6Msg)
                  c0abfa00    000001a0     nettool.ae674 : config.oe674 (.text:CfgRemoveEntry)
                  c0abfba0    000001a0     stk6_ppp_pppoe.ae674 : icmpin.oe674 (.text:ICMPRevSrcRoute)
                  c0abfd40    000001a0                          : ipv6_frag.oe674 (.text:IPv6FragMsg)
                  c0abfee0    000001a0                          : ipv6_exthdrs.oe674 (.text:IPv6ParseRoutingHdr)
                  c0ac0080    000001a0     netctrl.ae674 : netctrl.oe674 (.text:NC_NetStart)
                  c0ac0220    000001a0     stk6_ppp_pppoe.ae674 : node.oe674 (.text:NodeTreeFree)
                  c0ac03c0    000001a0                          : raw6.oe674 (.text:Raw6Input)
                  c0ac0560    000001a0                          : route6.oe674 (.text:Route6LifetimeMgmt)
                  c0ac0700    000001a0                          : sockint.oe674 (.text:SockCreatePacket)
                  c0ac08a0    000001a0     nettool.ae674 : dhcpsm.oe674 (.text:StateRenewRebind)
                  c0ac0a40    000001a0     stk6_ppp_pppoe.ae674 : tcp6time.oe674 (.text:TCP6TimeoutRexmt)
                  c0ac0be0    000001a0     rts6740_elf.lib : imath40.obj (.text:__c6xabi_divul)
                  c0ac0d80    000001a0     nettool.ae674 : dhcptags.oe674 (.text:dhcpBuildOptions)
                  c0ac0f20    000001a0     stk6_ppp_pppoe.ae674 : socket.oe674 (.text:getpeername)
                  c0ac10c0    000001a0     nettool.ae674 : telnetd.oe674 (.text:telnet_termdata)
                  c0ac1260    000001a0     sysbios.ae674 : BIOS.obj (.text:ti_sysbios_gates_GateMutex_enter__E)
                  c0ac1400    000001a0                   : BIOS.obj (.text:ti_sysbios_timers_timer64_Timer_start__E)
                  c0ac15a0    00000180     stk6_ppp_pppoe.ae674 : bind6.oe674 (.text:Bind6GetGlobalAddress)
                  c0ac1720    00000180     ti.drv.omapl138.ae674 : csl_emac.oe674 (.text:EMAC_RxServiceCheck)
                  c0ac18a0    00000180     rts6740_elf.lib : trgdrv.obj (.text:HOSTrename)
                  c0ac1a20    00000180     stk6_ppp_pppoe.ae674 : igmp.oe674 (.text:IGMPMsg)
                  c0ac1ba0    00000180                          : nimu.oe674 (.text:NIMURegister)
                  c0ac1d20    00000180                          : nimuppp.oe674 (.text:PPPStop)
                  c0ac1ea0    00000180     netctrl.ae674 : netsrv.oe674 (.text:ServiceScan)
                  c0ac2020    00000180                   : netsrv.oe674 (.text:ServiceSpawn)
                  c0ac21a0    00000180     nettool.ae674 : dhcpsm.oe674 (.text:StateBound)
                  c0ac2320    00000180     rts6740_elf.lib : copy_decompress_rle.obj (.text:__TI_decompress_rle_core)
                  c0ac24a0    00000180     stk6_ppp_pppoe.ae674 : socket.oe674 (.text:bind)
                  c0ac2620    00000180                          : socket.oe674 (.text:connect)
                  c0ac27a0    00000180     nettool.ae674 : dhcpbild.oe674 (.text:dhcpBuildRequest)
                  c0ac2920    00000180     os.ae674 : task.oe674 (.text:llEnter)
                  c0ac2aa0    00000180     stk6_ppp_pppoe.ae674 : auth.oe674 (.text:papSendCfg)
                  c0ac2c20    00000180     sysbios.ae674 : c64p_Exception_asm.obj (.text)
                  c0ac2da0    00000180                   : BIOS.obj (.text:ti_sysbios_knl_Swi_schedule__I)
                  c0ac2f20    00000180                   : BIOS.obj (.text:ti_sysbios_knl_Task_unblockI__E)
                  c0ac30a0    00000180     ti.targets.rts6000.ae674 : Text.oe674 (.text:xdc_runtime_Text_putSite__F)
                  c0ac3220    00000160     nettool.ae674 : config.oe674 (.text:CfgGetEntry)
                  c0ac3380    00000160                   : config.oe674 (.text:CfgGetNextEntry)
                  c0ac34e0    00000160                   : config.oe674 (.text:CfgLoad)
                  c0ac3640    00000160     ti.drv.omapl138.ae674 : csl_emac.oe674 (.text:EMAC_TxServiceCheck)
                  c0ac37a0    00000160                           : ethdriver.oe674 (.text:HwPktSetRx)
                  c0ac3900    00000160                           : ethdriver.oe674 (.text:HwPktTxNext)
                  c0ac3a60    00000160     stk6_ppp_pppoe.ae674 : igmp.oe674 (.text:IGMPDoMCast)
                  c0ac3bc0    00000160                          : nimu.oe674 (.text:NIMUIoctlSpecialCmd)
                  c0ac3d20    00000160                          : pipe.oe674 (.text:PipeSend)
                  c0ac3e80    00000160                          : raw.oe674 (.text:RawOutput)
                  c0ac3fe0    00000160                          : rtable.oe674 (.text:RtTimeoutCheck)
                  c0ac4140    00000160                          : rtable.oe674 (.text:RtWalkNext)
                  c0ac42a0    00000160     netctrl.ae674 : netsrv.oe674 (.text:SPRoute)
                  c0ac4400    00000160     stk6_ppp_pppoe.ae674 : sock6.oe674 (.text:Sock6Check)
                  c0ac4560    00000160                          : sock6int.oe674 (.text:Sock6CreatePacket)
                  c0ac46c0    00000160                          : sock6pcb.oe674 (.text:Sock6PcbConnect)
                  c0ac4820    00000160                          : sock.oe674 (.text:SockCheck)
                  c0ac4980    00000160                          : sockpcb.oe674 (.text:SockPcbConnect)
                  c0ac4ae0    00000160     nettool.ae674 : dhcpsm.oe674 (.text:StateRequesting)
                  c0ac4c40    00000160     stk6_ppp_pppoe.ae674 : tcp6time.oe674 (.text:TCP6TimeoutKeep)
                  c0ac4da0    00000160                          : tcptime.oe674 (.text:TcpTimeoutKeep)
                  c0ac4f00    00000160     ti.drv.omapl138.ae674 : ethdriver.oe674 (.text:_HwPktPoll)
                  c0ac5060    00000160     stk6_ppp_pppoe.ae674 : auth.oe674 (.text:authInit)
                  c0ac51c0    00000160     nettool.ae674 : httpclie.oe674 (.text:httpExtractTag)
                  c0ac5320    00000160     stk6_ppp_pppoe.ae674 : socket.oe674 (.text:setsockopt)
                  c0ac5480    00000160     nettool.ae674 : telnetd.oe674 (.text:telnetClientProcess)
                  c0ac55e0    00000160     sysbios.ae674 : BIOS.obj (.text:ti_sysbios_io_GIO_reclaim__E)
                  c0ac5740    00000140     stk6_ppp_pppoe.ae674 : bind6.oe674 (.text:Bind6Free)
                  c0ac5880    00000140     edma3_lld_drv.ae674 : edma3_drv_adv.oe674 (.text:EDMA3_DRV_getPaRAM)
                  c0ac59c0    00000140                         : edma3_drv_adv.oe674 (.text:EDMA3_DRV_setPaRAM)
                  c0ac5b00    00000140     stk6_ppp_pppoe.ae674 : exec.oe674 (.text:ExecOpen)
                  c0ac5c40    00000140                          : icmp.oe674 (.text:ICMPSendRtAdv)
                  c0ac5d80    00000140                          : igmp.oe674 (.text:IGMPJoin)
                  c0ac5ec0    00000140                          : ipv6.oe674 (.text:IPv6DisplayIPAddress)
                  c0ac6000    00000140                          : lli6.oe674 (.text:LLI6Find)
                  c0ac6140    00000140                          : lli.oe674 (.text:LLINew)
                  c0ac6280    00000140                          : node.oe674 (.text:NodeFind)
                  c0ac63c0    00000140                          : node.oe674 (.text:NodeWalk)
                  c0ac6500    00000140                          : pbm.oe674 (.text:PBM_alloc)
                  c0ac6640    00000140                          : pbm.oe674 (.text:PBM_free)
                  c0ac6780    00000140                          : rtable.oe674 (.text:RtFlush)
                  c0ac68c0    00000140                          : sb6.oe674 (.text:SB6New)
                  c0ac6a00    00000140     netctrl.ae674 : netsrv.oe674 (.text:ServiceKill)
                  c0ac6b40    00000140     stk6_ppp_pppoe.ae674 : sock6.oe674 (.text:Sock6Accept)
                  c0ac6c80    00000140                          : sock6.oe674 (.text:Sock6Listen)
                  c0ac6dc0    00000140                          : sock.oe674 (.text:SockAccept)
                  c0ac6f00    00000140                          : sock.oe674 (.text:SockListen)
                  c0ac7040    00000140                          : sockpcb.oe674 (.text:SockPcbCtlError)
                  c0ac7180    00000140     boot.ae674 : autoinit.oe674 (.text:_auto_init_elf)
                  c0ac72c0    00000140     rts6740_elf.lib : _printfi.obj (.text:_pproc_fflags)
                  c0ac7400    00000140     stk6_ppp_pppoe.ae674 : auth.oe674 (.text:authGetPassword)
                  c0ac7540    00000140     nettool.ae674 : dhcptags.oe674 (.text:dhcpDecodeType)
                  c0ac7680    00000140     ti.drv.omapl138.ae674 : csl_emac.oe674 (.text:emacDequeueTx)
                  c0ac77c0    00000140                           : csl_emac.oe674 (.text:emacEnqueueRx)
                  c0ac7900    00000140     rts6740_elf.lib : lowlev.obj (.text:getdevice)
                  c0ac7a40    00000140     nettool.ae674 : httpsend.oe674 (.text:httpAuthenticationReq)
                  c0ac7b80    00000140     os.ae674 : mem.oe674 (.text:mmCopy)
                  c0ac7cc0    00000140     stk6_ppp_pppoe.ae674 : nimuppp.oe674 (.text:pppAddClient)
                  c0ac7e00    00000140                          : socket.oe674 (.text:recv)
                  c0ac7f40    00000140                          : socket.oe674 (.text:send)
                  c0ac8080    00000140     sysbios.ae674 : BIOS.obj (.text:ti_sysbios_family_c64p_Hwi_Module_startup__F)
                  c0ac81c0    00000140                   : BIOS.obj (.text:ti_sysbios_knl_Clock_Instance_finalize__F)
                  c0ac8300    00000140                   : BIOS.obj (.text:ti_sysbios_knl_Semaphore_Instance_init__F)
                  c0ac8440    00000140                   : BIOS.obj (.text:ti_sysbios_knl_Swi_post__E)
                  c0ac8580    00000140                   : BIOS.obj (.text:ti_sysbios_knl_Task_blockI__E)
                  c0ac86c0    00000120     stk6_ppp_pppoe.ae674 : bind6.oe674 (.text:Bind6DADCheck)
                  c0ac87e0    00000120                          : bind6.oe674 (.text:Bind6LifetimeMgmt)
                  c0ac8900    00000120                          : bind.oe674 (.text:BindFree)
                  c0ac8a20    00000120     nettool.ae674 : config.oe674 (.text:CfgFree)
                  c0ac8b40    00000120                   : daemon.oe674 (.text:DaemonFree)
                  c0ac8c60    00000120     stk6_ppp_pppoe.ae674 : file.oe674 (.text:FdWaitEvent)
                  c0ac8d80    00000120                          : igmp.oe674 (.text:IGMPLeaveHostGroup)
                  c0ac8ea0    00000120                          : ip.oe674 (.text:IPMsg)
                  c0ac8fc0    00000120                          : ipin.oe674 (.text:IPRouteIP)
                  c0ac90e0    00000120                          : ipv6_frag.oe674 (.text:IPv6CreateFragQ)
                  c0ac9200    00000120                          : ipv6.oe674 (.text:IPv6Init)
                  c0ac9320    00000120                          : icmpv6out.oe674 (.text:IsICMPv6ErrorPkt)
                  c0ac9440    00000120                          : md5.oe674 (.text:MD5Update)
                  c0ac9560    00000120                          : mld.oe674 (.text:MLDJoinGroup)
                  c0ac9680    00000120     netctrl.ae674 : netctrl.oe674 (.text:NC_SystemOpen)
                  c0ac97a0    00000120     stk6_ppp_pppoe.ae674 : nimu.oe674 (.text:NIMUAddEthernetHeader)
                  c0ac98c0    00000120                          : raweth.oe674 (.text:RawEthRxPacket)
                  c0ac99e0    00000120                          : rawethsock.oe674 (.text:RawEthSockRecvNC)
                  c0ac9b00    00000120                          : raweth.oe674 (.text:RawEthTxPacket)
                  c0ac9c20    00000120     ti.drv.omapl138.ae674 : ethdriver.oe674 (.text:RxPacket)
                  c0ac9d40    00000120     stk6_ppp_pppoe.ae674 : sb.oe674 (.text:SBNew)
                  c0ac9e60    00000120     netctrl.ae674 : netsrv.oe674 (.text:SPConfig)
                  c0ac9f80    00000120                   : netsrv.oe674 (.text:SPService)
                  c0aca0a0    00000120     stk6_ppp_pppoe.ae674 : sock6.oe674 (.text:Sock6Shutdown)
                  c0aca1c0    00000120                          : sockpcb.oe674 (.text:SockPcbFindRaw)
                  c0aca2e0    00000120                          : sock.oe674 (.text:SockShutdown)
                  c0aca400    00000120                          : tcp6prot.oe674 (.text:TCP6PrAttach)
                  c0aca520    00000120                          : tcpprot.oe674 (.text:TcpPrAttach)
                  c0aca640    00000120     nettool.ae674 : telnetd.oe674 (.text:TelnetOpen)
                  c0aca760    00000120     stk6_ppp_pppoe.ae674 : rtable.oe674 (.text:_RtNodeInsert)
                  c0aca880    00000120     rts6740_elf.lib : fclose.obj (.text:_closefile)
                  c0aca9a0    00000120                     : _printfi.obj (.text:_ltostr)
                  c0acaac0    00000120     os.ae674 : mem.oe674 (.text:_mmInit)
                  c0acabe0    00000120     nettool.ae674 : daemon.oe674 (.text:dchild)
                  c0acad00    00000120     stk6_ppp_pppoe.ae674 : fileuser.oe674 (.text:fdOpenSession)
                  c0acae20    00000120     rts6740_elf.lib : fseek.obj (.text:fseek)
                  c0acaf40    00000120     nettool.ae674 : http.oe674 (.text:httpOpen)
                  c0acb060    00000120     stk6_ppp_pppoe.ae674 : lcp.oe674 (.text:lcpReject)
                  c0acb180    00000120     sysbios.ae674 : BIOS.obj (.text:rtsUnlock$0)
                  c0acb2a0    00000120     stk6_ppp_pppoe.ae674 : socket.oe674 (.text:socket)
                  c0acb3c0    00000120     bk_fr_c6748_pe674.oe674 (.text:ti_sysbios_family_c64p_Hwi_Object__create__S)
                  c0acb4e0    00000120     bk_fr_c6748_pe674.oe674 (.text:ti_sysbios_hal_Hwi_Object__create__S)
                  c0acb600    00000120     sysbios.ae674 : BIOS.obj (.text:ti_sysbios_io_GIO_Instance_finalize__F)
                  c0acb720    00000120     bk_fr_c6748_pe674.oe674 (.text:ti_sysbios_io_GIO_Object__create__S)
                  c0acb840    00000120     bk_fr_c6748_pe674.oe674 (.text:ti_sysbios_knl_Swi_Object__create__S)
                  c0acb960    00000120     bk_fr_c6748_pe674.oe674 (.text:ti_sysbios_knl_Task_Object__create__S)
                  c0acba80    00000120     ti.targets.rts6000.ae674 : Text.oe674 (.text:xdc_runtime_Text_putLab__F)
                  c0acbba0    00000120     bk_fr_c6748_pe674.oe674 (.text:xdc_runtime_knl_SemThread_Object__create__S)
                  c0acbcc0    00000100     nettool.ae674 : config.oe674 (.text:CfgGetEntryCnt)
                  c0acbdc0    00000100                   : config.oe674 (.text:CfgNew)
                  c0acbec0    00000100                   : config.oe674 (.text:CfgSetExecuteOrder)
                  c0acbfc0    00000100     os.ae674 : ossys.oe674 (.text:DbgPrintf)
                  c0acc0c0    00000100     rts6740_elf.lib : trgdrv.obj (.text:HOSTlseek)
                  c0acc1c0    00000100     stk6_ppp_pppoe.ae674 : igmp.oe674 (.text:IGMPTimer)
                  c0acc2c0    00000100                          : ipv6.oe674 (.text:IPv6GetSubnetMaskFromBits)
                  c0acc3c0    00000100                          : ipv6_frag.oe674 (.text:IPv6ReasmTimeout)
                  c0acc4c0    00000100                          : rtc.oe674 (.text:RTCMsg)
                  c0acc5c0    00000100                          : rawethsock.oe674 (.text:RawEthSockCheck)
                  c0acc6c0    00000100                          : route.oe674 (.text:RtRedirect)
                  c0acc7c0    00000100                          : sock6.oe674 (.text:Sock6Disconnect)
                  c0acc8c0    00000100                          : sockint.oe674 (.text:SockValidateRoute)
                  c0acc9c0    00000100     nettool.ae674 : dhcpsm.oe674 (.text:StateSelecting)
                  c0accac0    00000100     stk6_ppp_pppoe.ae674 : tcp6prot.oe674 (.text:TCP6PrInherit)
                  c0accbc0    00000100                          : tcp6time.oe674 (.text:TCP6XmitTimer)
                  c0acccc0    00000100                          : tcpprot.oe674 (.text:TcpPrInherit)
                  c0accdc0    00000100                          : tcptime.oe674 (.text:TcpXmitTimer)
                  c0accec0    00000100     rts6740_elf.lib : _io_perm.obj (.text:_wrt_ok)
                  c0accfc0    00000100     sysbios.ae674 : BIOS.obj (.text:callback$44)
                  c0acd0c0    00000100     rts6740_elf.lib : fprintf.obj (.text:fprintf)
                  c0acd1c0    00000100     sysbios.ae674 : BIOS.obj (.text:initDevice$47)
                  c0acd2c0    00000100     stk6_ppp_pppoe.ae674 : lcp.oe674 (.text:lcpOpen)
                  c0acd3c0    00000100                          : socket.oe674 (.text:listen)
                  c0acd4c0    00000100     os.ae674 : mem.oe674 (.text:mmFree)
                  c0acd5c0    00000100     sysbios.ae674 : BIOS.obj (.text:ti_sysbios_family_c64p_EventCombiner_dispatch__F)
                  c0acd6c0    00000100                   : BIOS.obj (.text:ti_sysbios_io_DEV_match__E)
                  c0acd7c0    00000100                   : BIOS.obj (.text:ti_sysbios_knl_Clock_startI__E)
                  c0acd8c0    00000100                   : BIOS.obj (.text:ti_sysbios_knl_Swi_restoreHwi__E)
                  c0acd9c0    00000100     stk6_ppp_pppoe.ae674 : lliin.oe674 (.text:updateRtTable)
                  c0acdac0    00000100     ti.targets.rts6000.ae674 : Core-mem.oe674 (.text:xdc_runtime_Core_deleteObject__I)
                  c0acdbc0    00000100                              : Startup.oe674 (.text:xdc_runtime_Startup_exec__F)
                  c0acdcc0    00000100                              : Text.oe674 (.text:xdc_runtime_Text_putMod__F)
                  c0acddc0    00000100                              : Text.oe674 (.text:xdc_runtime_Text_visitRope2__I)
                  c0acdec0    00000100     bk_fr_c6748_pe674.oe674 (.text:xdc_runtime_knl_SyncSemThread_Object__create__S)
                  c0acdfc0    000000e0     stk6_ppp_pppoe.ae674 : bind6.oe674 (.text:Bind6GetLinkLocalAddress)
                  c0ace0a0    000000e0     rts6740_elf.lib : trgdrv.obj (.text:HOSTopen)
                  c0ace180    000000e0     stk6_ppp_pppoe.ae674 : igmp.oe674 (.text:IGMPLeave)
                  c0ace260    000000e0                          : ipv6_frag.oe674 (.text:IPv6FindFragQ)
                  c0ace340    000000e0     ti.drv.omapl138.ae674 : ethdriver.oe674 (.text:Interrupt_init)
                  c0ace420    000000e0     stk6_ppp_pppoe.ae674 : lli6.oe674 (.text:LLI6Msg)
                  c0ace500    000000e0                          : lli6.oe674 (.text:LLI6Update)
                  c0ace5e0    000000e0                          : mld.oe674 (.text:MLDFindMulticastNode)
                  c0ace6c0    000000e0                          : nimu.oe674 (.text:NIMUAllocateIndex)
                  c0ace7a0    000000e0                          : nimu.oe674 (.text:NIMUAllocateName)
                  c0ace880    000000e0                          : node.oe674 (.text:NodeDeRef)
                  c0ace960    000000e0                          : node.oe674 (.text:NodeNew)
                  c0acea40    000000e0                          : node.oe674 (.text:NodeTreeNew)
                  c0aceb20    000000e0                          : pbm.oe674 (.text:PBMQ_enq)
                  c0acec00    000000e0                          : pbm.oe674 (.text:PBM_copy)
                  c0acece0    000000e0                          : rawethsock.oe674 (.text:RawEthSockNotify)
                  c0acedc0    000000e0                          : rawethsock_pcb.oe674 (.text:RawEthSockPcbAttach)
                  c0aceea0    000000e0                          : rawethsock.oe674 (.text:RawEthSockSend)
                  c0acef80    000000e0                          : route6.oe674 (.text:Route6Msg)
                  c0acf060    000000e0                          : route.oe674 (.text:RtRemove)
                  c0acf140    000000e0                          : sb.oe674 (.text:SBReadNC)
                  c0acf220    000000e0                          : sb.oe674 (.text:SBSetMax)
                  c0acf300    000000e0                          : sock6.oe674 (.text:Sock6IntAbort)
                  c0acf3e0    000000e0                          : sock6int.oe674 (.text:Sock6SpawnAbort)
                  c0acf4c0    000000e0                          : sock6int.oe674 (.text:Sock6ValidateRoute)
                  c0acf5a0    000000e0                          : sock.oe674 (.text:SockDisconnect)
                  c0acf680    000000e0                          : sockint.oe674 (.text:SockSpawnAbort)
                  c0acf760    000000e0                          : tcp6prot.oe674 (.text:TCP6PrDetach)
                  c0acf840    000000e0                          : tcp6prot.oe674 (.text:TCP6PrDisconnect)
                  c0acf920    000000e0                          : tcp6time.oe674 (.text:TCP6TimeoutSackRexmt)
                  c0acfa00    000000e0                          : tcp6prot.oe674 (.text:TCP6ValidateMetrics)
                  c0acfae0    000000e0                          : tcpprot.oe674 (.text:TcpPrDetach)
                  c0acfbc0    000000e0                          : tcpprot.oe674 (.text:TcpPrDisconnect)
                  c0acfca0    000000e0                          : tcptime.oe674 (.text:TcpTimeoutSackRexmt)
                  c0acfd80    000000e0                          : tcpprot.oe674 (.text:TcpValidateMetrics)
                  c0acfe60    000000e0                          : timer.oe674 (.text:TimerListInsert)
                  c0acff40    000000e0                          : udp.oe674 (.text:UdpChecksum)
                  c0ad0020    000000e0                          : vlan.oe674 (.text:VLANDeinit)
                  c0ad0100    000000e0                          : vlan.oe674 (.text:VLANReceivePacket)
                  c0ad01e0    000000e0     nettool.ae674 : config.oe674 (.text:_CfgEntryScan)
                  c0ad02c0    000000e0     stk6_ppp_pppoe.ae674 : lli.oe674 (.text:_LLIExpListInsert)
                  c0ad03a0    000000e0                          : rtable.oe674 (.text:_RtExpListInsert)
                  c0ad0480    000000e0                          : rtable.oe674 (.text:_RtNodeRemove)
                  c0ad0560    000000e0     rts6740_elf.lib : atoi.obj (.text:atoi)
                  c0ad0640    000000e0                     : lowlev.obj (.text:close)
                  c0ad0720    000000e0                     : copy_zero_init.obj (.text:decompress:ZI:__TI_zero_init)
                  c0ad0800    000000e0     edma3_lld_drv_sample.ae674 : sample_cs.oe674 (.text:edma3OsProtectEntry)
                  c0ad08e0    000000e0     stk6_ppp_pppoe.ae674 : file.oe674 (.text:fdint_lockfd)
                  c0ad09c0    000000e0                          : file.oe674 (.text:fdint_unlockfd)
                  c0ad0aa0    000000e0     rts6740_elf.lib : fflush.obj (.text:fflush)
                  c0ad0b80    000000e0     nettool.ae674 : httpclie.oe674 (.text:httpGetMimeBits)
                  c0ad0c60    000000e0     os.ae674 : task.oe674 (.text:llExit)
                  c0ad0d40    000000e0     rts6740_elf.lib : ltoa.obj (.text:ltoa)
                  c0ad0e20    000000e0                     : memset.obj (.text:memset)
                  c0ad0f00    000000e0     os.ae674 : mem.oe674 (.text:mmBulkAlloc)
                  c0ad0fe0    000000e0     stk6_ppp_pppoe.ae674 : nimuppp.oe674 (.text:pppFree)
                  c0ad10c0    000000e0     rts6740_elf.lib : printf.obj (.text:printf)
                  c0ad11a0    000000e0     sysbios.ae674 : BIOS.obj (.text:ti_sysbios_family_c64p_Hwi_Instance_finalize__F)
                  c0ad1280    000000e0                   : BIOS.obj (.text:ti_sysbios_family_c64p_Hwi_Instance_init__F)
                  c0ad1360    000000e0                   : BIOS.obj (.text:ti_sysbios_knl_Clock_start__E)
                  c0ad1440    000000e0                   : BIOS.obj (.text:ti_sysbios_timers_timer64_Timer_startup__E)
                  c0ad1520    000000e0     ti.targets.rts6000.ae674 : Error.oe674 (.text:xdc_runtime_Error_print__F)
                  c0ad1600    000000e0                              : Memory.oe674 (.text:xdc_runtime_Memory_alloc__F)
                  c0ad16e0    000000c0     nettool.ae674 : dhcpmain.oe674 (.text:DHCPClose)
                  c0ad17a0    000000c0     rts6740_elf.lib : trgdrv.obj (.text:HOSTread)
                  c0ad1860    000000c0                     : trgdrv.obj (.text:HOSTunlink)
                  c0ad1920    000000c0                     : trgdrv.obj (.text:HOSTwrite)
                  c0ad19e0    000000c0     stk6_ppp_pppoe.ae674 : icmpv6in.oe674 (.text:ICMPv6SocketErrorInterface)
                  c0ad1aa0    000000c0                          : ipv6.oe674 (.text:IPv6Layer4ComputeChecksum)
                  c0ad1b60    000000c0                          : lli.oe674 (.text:LLIGetValidTime)
                  c0ad1c20    000000c0                          : lli.oe674 (.text:LLIMsg)
                  c0ad1ce0    000000c0     ti.drv.omapl138.ae674 : csl_mdio.oe674 (.text:MDIO_initPHY)
                  c0ad1da0    000000c0     stk6_ppp_pppoe.ae674 : mld.oe674 (.text:MLDCreateMulticastNode)
                  c0ad1e60    000000c0                          : mld.oe674 (.text:MLDLeaveGroup)
                  c0ad1f20    000000c0                          : nimu.oe674 (.text:NIMUFindByName)
                  c0ad1fe0    000000c0     netctrl.ae674 : netsrv.oe674 (.text:NS_BootTask)
                  c0ad20a0    000000c0     stk6_ppp_pppoe.ae674 : node.oe674 (.text:NodeUpdatePL)
                  c0ad2160    000000c0     nettool.ae674 : ipaddr.oe674 (.text:NtIfIdx2Ip)
                  c0ad2220    000000c0     stk6_ppp_pppoe.ae674 : route6.oe674 (.text:Rt6FindDefaultRouter)
                  c0ad22e0    000000c0                          : route.oe674 (.text:RtDeRef)
                  c0ad23a0    000000c0                          : rtable.oe674 (.text:RtWalkBegin)
                  c0ad2460    000000c0                          : sb6.oe674 (.text:SB6Flush)
                  c0ad2520    000000c0                          : sb6.oe674 (.text:SB6SetMax)
                  c0ad25e0    000000c0                          : sb.oe674 (.text:SBFlush)
                  c0ad26a0    000000c0                          : sock6pcb.oe674 (.text:Sock6PcbResolveChain)
                  c0ad2760    000000c0                          : sock6pcb.oe674 (.text:Sock6PcbRtChange)
                  c0ad2820    000000c0                          : sock.oe674 (.text:SockIntAbort)
                  c0ad28e0    000000c0                          : sockpcb.oe674 (.text:SockPcbRtChange)
                  c0ad29a0    000000c0                          : tcp6prot.oe674 (.text:TCP6Close)
                  c0ad2a60    000000c0     os.ae674 : task.oe674 (.text:TaskGetEnv)
                  c0ad2b20    000000c0     stk6_ppp_pppoe.ae674 : tcp.oe674 (.text:TcpChecksum)
                  c0ad2be0    000000c0                          : tcpprot.oe674 (.text:TcpClose)
                  c0ad2ca0    000000c0                          : bind6.oe674 (.text:_Bind6FindByHostInList)
                  c0ad2d60    000000c0                          : bind6.oe674 (.text:_Bind6FindByNetInList)
                  c0ad2e20    000000c0     rts6740_elf.lib : dtor_list.obj (.text:_Z11__TI_atexitPFYvPvES_S_)
                  c0ad2ee0    000000c0                     : dtor_list.obj (.text:__cxa_finalize)
                  c0ad2fa0    000000c0                     : divu.obj (.text:__divu)
                  c0ad3060    000000c0                     : remi.obj (.text:__remi)
                  c0ad3120    000000c0                     : _printfi.obj (.text:_div)
                  c0ad31e0    000000c0                     : fflush.obj (.text:_doflush)
                  c0ad32a0    000000c0     nettool.ae674 : dhcptags.oe674 (.text:dhcpOptionsClear)
                  c0ad3360    000000c0     edma3_lld_rm.ae674 : edma3resmgr.oe674 (.text:edma3MemCpy)
                  c0ad3420    000000c0     edma3_lld_drv_sample.ae674 : sample_cs.oe674 (.text:edma3OsProtectExit)
                  c0ad34e0    000000c0     os.ae674 : efs.oe674 (.text:efs_fopen)
                  c0ad35a0    000000c0              : efs.oe674 (.text:efs_internal_remove)
                  c0ad3660    000000c0     rts6740_elf.lib : exit.obj (.text:exit)
                  c0ad3720    000000c0     nettool.ae674 : httpsend.oe674 (.text:httpSendFullResponse)
                  c0ad37e0    000000c0     os.ae674 : mem.oe674 (.text:mmZeroInit)
                  c0ad38a0    000000c0     stk6_ppp_pppoe.ae674 : nimuppp.oe674 (.text:pppAddIP)
                  c0ad3960    000000c0     sysbios.ae674 : BIOS.obj (.text:ti_sysbios_BIOS_errorRaiseHook__I)
                  c0ad3a20    000000c0                   : BIOS.obj (.text:ti_sysbios_heaps_HeapMem_getStats__E)
                  c0ad3ae0    000000c0                   : BIOS.obj (.text:ti_sysbios_knl_Clock_logTick__E)
                  c0ad3ba0    000000c0                   : BIOS.obj (.text:ti_sysbios_knl_Swi_Instance_finalize__F)
                  c0ad3c60    000000c0                   : BIOS.obj (.text:ti_sysbios_knl_Task_allBlockedFunction__I)
                  c0ad3d20    000000c0                   : BIOS.obj (.text:ti_sysbios_timers_timer64_Timer_stop__E)
                  c0ad3de0    000000c0                   : BIOS.obj (.text:ti_sysbios_xdcruntime_SemThreadSupport_pend__F)
                  c0ad3ea0    000000c0     ti.targets.rts6000.ae674 : System.oe674 (.text:xdc_runtime_System_formatNum__I)
                  c0ad3f60    000000a0     nettool.ae674 : config.oe674 (.text:CfgEntryDeRef)
                  c0ad4000    000000a0                   : config.oe674 (.text:CfgEntryGetData)
                  c0ad40a0    000000a0                   : config.oe674 (.text:CfgGetImmediate)
                  c0ad4140    000000a0                   : telnetd.oe674 (.text:CmdWriteBytes)
                  c0ad41e0    000000a0                   : telnetd.oe674 (.text:CmdWriteCmd)
                  c0ad4280    000000a0     stk6_ppp_pppoe.ae674 : file.oe674 (.text:FdSignalEvent)
                  c0ad4320    000000a0     rts6740_elf.lib : trgdrv.obj (.text:HOSTclose)
                  c0ad43c0    000000a0     ti.drv.omapl138.ae674 : ethdriver.oe674 (.text:HwPktClose)
                  c0ad4460    000000a0     stk6_ppp_pppoe.ae674 : icmpv6in.oe674 (.text:ICMPv6RecvDstUnreachable)
                  c0ad4500    000000a0                          : ipfrag.oe674 (.text:IPReasmFree)
                  c0ad45a0    000000a0                          : ipfrag.oe674 (.text:IPReasmTimeout)
                  c0ad4640    000000a0                          : ipv6.oe674 (.text:IPv6CompareAddress)
                  c0ad46e0    000000a0                          : lliin.oe674 (.text:LLIValidateRoute)
                  c0ad4780    000000a0                          : md5.oe674 (.text:MD5Final)
                  c0ad4820    000000a0                          : nimu.oe674 (.text:NIMUShutdown)
                  c0ad48c0    000000a0                          : nimu.oe674 (.text:NIMUUnregister)
                  c0ad4960    000000a0     nettool.ae674 : ipaddr.oe674 (.text:NtAddNetwork)
                  c0ad4a00    000000a0     stk6_ppp_pppoe.ae674 : pbm.oe674 (.text:PBM_open)
                  c0ad4aa0    000000a0                          : pipe.oe674 (.text:PipeCheck)
                  c0ad4b40    000000a0                          : rtable.oe674 (.text:RouteMsg)
                  c0ad4be0    000000a0                          : route.oe674 (.text:RtNew)
                  c0ad4c80    000000a0                          : sb6.oe674 (.text:SB6Free)
                  c0ad4d20    000000a0                          : sb.oe674 (.text:SBFree)
                  c0ad4dc0    000000a0     os.ae674 : semaphore.oe674 (.text:SemCreate)
                  c0ad4e60    000000a0     stk6_ppp_pppoe.ae674 : sock6pcb.oe674 (.text:Sock6CleanPcb)
                  c0ad4f00    000000a0                          : sock6.oe674 (.text:Sock6GetName)
                  c0ad4fa0    000000a0                          : sock.oe674 (.text:SockBind)
                  c0ad5040    000000a0                          : sockpcb.oe674 (.text:SockCleanPcb)
                  c0ad50e0    000000a0                          : tcp6prot.oe674 (.text:TCP6Drop)
                  c0ad5180    000000a0                          : tcp6prot.oe674 (.text:TCP6PrCtlError)
                  c0ad5220    000000a0                          : tcp6prot.oe674 (.text:TCP6PrSend)
                  c0ad52c0    000000a0                          : tcp6prot.oe674 (.text:TCP6PrSendOOB)
                  c0ad5360    000000a0     os.ae674 : task.oe674 (.text:TaskCreate)
                  c0ad5400    000000a0     stk6_ppp_pppoe.ae674 : tcpprot.oe674 (.text:TcpDrop)
                  c0ad54a0    000000a0                          : tcpprot.oe674 (.text:TcpPrCtlError)
                  c0ad5540    000000a0                          : tcpprot.oe674 (.text:TcpPrSend)
                  c0ad55e0    000000a0                          : tcpprot.oe674 (.text:TcpPrSendOOB)
                  c0ad5680    000000a0                          : timer.oe674 (.text:TimerNew)
                  c0ad5720    000000a0                          : lli.oe674 (.text:_LLITimeoutFlush)
                  c0ad57c0    000000a0     rts6740_elf.lib : remu.obj (.text:__remu)
                  c0ad5860    000000a0     boot.ae674 : boot.oe674 (.text:_c_int00)
                  c0ad5900    000000a0     rts6740_elf.lib : fopen.obj (.text:_cleanup)
                  c0ad59a0    000000a0                     : _printfi.obj (.text:_ecpy)
                  c0ad5a40    000000a0                     : _printfi.obj (.text:_fcpy)
                  c0ad5ae0    000000a0                     : _printfi.obj (.text:_pconv_f)
                  c0ad5b80    000000a0     sysbios.ae674 : c64p_Hwi_asm.obj (.text:_ti_sysbios_family_c64p_Hwi_plug__E)
                  c0ad5c20    000000a0     stk6_ppp_pppoe.ae674 : auth.oe674 (.text:authStart)
                  c0ad5cc0    000000a0     nettool.ae674 : dhcpbild.oe674 (.text:dhcpBuildDecline)
                  c0ad5d60    000000a0                   : dhcpsm.oe674 (.text:dhcpIPRemove)
                  c0ad5e00    000000a0     stk6_ppp_pppoe.ae674 : fileuser.oe674 (.text:fdCloseSession)
                  c0ad5ea0    000000a0     rts6740_elf.lib : lowlev.obj (.text:finddevice)
                  c0ad5f40    000000a0     stk6_ppp_pppoe.ae674 : lcp.oe674 (.text:lcpInit)
                  c0ad5fe0    000000a0                          : lcp.oe674 (.text:lcpSendTerm)
                  c0ad6080    000000a0     hal_timer_bios.ae674 : lltimer.oe674 (.text:llTimerTick)
                  c0ad6120    000000a0     rts6740_elf.lib : lowlev.obj (.text:lseek)
                  c0ad61c0    000000a0     bk_fr_c6748_pe674.oe674 (.text:malloc)
                  c0ad6260    000000a0     rts6740_elf.lib : memcpy64.obj (.text:memcpy)
                  c0ad6300    000000a0     os.ae674 : mem.oe674 (.text:mmBulkFree)
                  c0ad63a0    000000a0              : mem.oe674 (.text:mmInitPage)
                  c0ad6440    000000a0              : ossys.oe674 (.text:stricmp)
                  c0ad64e0    000000a0     rts6740_elf.lib : strstr.obj (.text:strstr)
                  c0ad6580    000000a0     taskImageProcess.obj (.text)
                  c0ad6620    000000a0     sysbios.ae674 : BIOS.obj (.text:ti_sysbios_heaps_HeapMem_init__I)
                  c0ad66c0    000000a0     bk_fr_c6748_pe674.oe674 (.text:ti_sysbios_knl_Clock_Object__create__S)
                  c0ad6760    000000a0     sysbios.ae674 : BIOS.obj (.text:ti_sysbios_knl_Idle_run__E)
                  c0ad6800    000000a0     bk_fr_c6748_pe674.oe674 (.text:ti_sysbios_knl_Semaphore_Object__create__S)
                  c0ad68a0    000000a0     sysbios.ae674 : BIOS.obj (.text:ti_sysbios_knl_Task_deleteTerminatedTasksFunc__I)
                  c0ad6940    000000a0     bk_fr_c6748_pe674.oe674 (.text:ti_sysbios_xdcruntime_SemThreadSupport_Object__create__S)
                  c0ad69e0    000000a0     rts6740_elf.lib : lowlev.obj (.text:write)
                  c0ad6a80    000000a0     ti.targets.rts6000.ae674 : Assert.oe674 (.text:xdc_runtime_Assert_raise__I)
                  c0ad6b20    000000a0                              : LoggerBuf.oe674 (.text:xdc_runtime_LoggerBuf_Module_startup__F)
                  c0ad6bc0    00000080     stk6_ppp_pppoe.ae674 : md5.oe674 (.text:Decode)
                  c0ad6c40    00000080     ti.drv.omapl138.ae674 : nimu_eth.oe674 (.text:EmacStart)
                  c0ad6cc0    00000080                           : ethdriver.oe674 (.text:GetPacket)
                  c0ad6d40    00000080                           : ethdriver.oe674 (.text:HwRxInt)
                  c0ad6dc0    00000080                           : ethdriver.oe674 (.text:HwTxInt)
                  c0ad6e40    00000080     stk6_ppp_pppoe.ae674 : icmp.oe674 (.text:ICMPChecksum)
                  c0ad6ec0    00000080                          : icmpv6in.oe674 (.text:ICMPv6RecvParamProblem)
                  c0ad6f40    00000080                          : icmpv6_ndisc.oe674 (.text:ICMPv6RecvRS)
                  c0ad6fc0    00000080                          : icmpv6in.oe674 (.text:ICMPv6RecvTimeExceeded)
                  c0ad7040    00000080                          : ipv6out.oe674 (.text:IPv6GetRoute)
                  c0ad70c0    00000080                          : lli6.oe674 (.text:LLI6Free)
                  c0ad7140    00000080                          : lli6.oe674 (.text:LLI6IsRouterStatMachine)
                  c0ad71c0    00000080     ti.drv.omapl138.ae674 : csl_mdio.oe674 (.text:MDIO_close)
                  c0ad7240    00000080     stk6_ppp_pppoe.ae674 : nimu.oe674 (.text:NIMUInit)
                  c0ad72c0    00000080                          : pbm.oe674 (.text:PBMQ_deq)
                  c0ad7340    00000080                          : nimuppp.oe674 (.text:PPPSend)
                  c0ad73c0    00000080                          : pipe.oe674 (.text:PipeClose)
                  c0ad7440    00000080                          : rawethsock.oe674 (.text:RawEthSockClose)
                  c0ad74c0    00000080                          : rawethsock_pcb.oe674 (.text:RawEthSockPcbDetach)
                  c0ad7540    00000080                          : route6.oe674 (.text:Rt6Update)
                  c0ad75c0    00000080                          : route.oe674 (.text:RtSetFailure)
                  c0ad7640    00000080                          : route.oe674 (.text:RtSetTimeout)
                  c0ad76c0    00000080                          : sock6.oe674 (.text:Sock6Bind)
                  c0ad7740    00000080                          : sock6pcb.oe674 (.text:Sock6PcbCleanup)
                  c0ad77c0    00000080                          : sock.oe674 (.text:SockGetName)
                  c0ad7840    00000080                          : sockpcb.oe674 (.text:SockPcbCleanup)
                  c0ad78c0    00000080                          : sockpcb.oe674 (.text:SockPcbDetach)
                  c0ad7940    00000080                          : sockpcb.oe674 (.text:SockPcbResolveChain)
                  c0ad79c0    00000080                          : tcp6prot.oe674 (.text:TCP6PrListen)
                  c0ad7a40    00000080     os.ae674 : task.oe674 (.text:TaskSetEnv)
                  c0ad7ac0    00000080     stk6_ppp_pppoe.ae674 : tcpprot.oe674 (.text:TcpPrListen)
                  c0ad7b40    00000080                          : timer.oe674 (.text:TimerHSTick)
                  c0ad7bc0    00000080                          : timer.oe674 (.text:TimerListRemove)
                  c0ad7c40    00000080     nettool.ae674 : config.oe674 (.text:_CfgAcquire)
                  c0ad7cc0    00000080                   : config.oe674 (.text:_CfgRelease)
                  c0ad7d40    00000080     stk6_ppp_pppoe.ae674 : lli.oe674 (.text:_LLIExpListRemove)
                  c0ad7dc0    00000080                          : rtc.oe674 (.text:_RTCSendRtAdv)
                  c0ad7e40    00000080                          : rtable.oe674 (.text:_RtExpListRemove)
                  c0ad7ec0    00000080     rts6740_elf.lib : llshift.obj (.text:__c6xabi_llshl)
                  c0ad7f40    00000080     sysbios.ae674 : c62_TaskSupport_asm.obj (.text:_ti_sysbios_family_c62_TaskSupport_swap__E)
                  c0ad7fc0    00000080     edma3_lld_rm.ae674 : edma3resmgr.oe674 (.text:edma3MemZero)
                  c0ad8040    00000080                        : edma3resmgr.oe674 (.text:edma3ParamCpy)
                  c0ad80c0    00000080     os.ae674 : efs.oe674 (.text:efs_fclose)
                  c0ad8140    00000080              : efs.oe674 (.text:efs_filesend)
                  c0ad81c0    00000080              : efs.oe674 (.text:efs_findfile)
                  c0ad8240    00000080     stk6_ppp_pppoe.ae674 : file.oe674 (.text:fdint_waitevent)
                  c0ad82c0    00000080     fr_uart.obj (.text)
                  c0ad8340    00000080     nettool.ae674 : httpsend.oe674 (.text:httpSendEntityLength)
                  c0ad83c0    00000080                   : httpsend.oe674 (.text:httpSendErrorResponse)
                  c0ad8440    00000080     hal_timer_bios.ae674 : lltimer.oe674 (.text:llTimerGetTime)
                  c0ad84c0    00000080     rts6740_elf.lib : trgmsg.obj (.text:readmsg)
                  c0ad8540    00000080     nettool.ae674 : httpsend.oe674 (.text:strcat)
                  c0ad85c0    00000080     rts6740_elf.lib : strncpy.obj (.text:strncpy)
                  c0ad8640    00000080     bk_fr_c6748_pe674.oe674 (.text:ti_sdo_utils_List_Object__create__S)
                  c0ad86c0    00000080     bk_fr_c6748_pe674.oe674 (.text:ti_sysbios_BIOS_exitFunc__I)
                  c0ad8740    00000080     sysbios.ae674 : BIOS.obj (.text:ti_sysbios_family_c62_TaskSupport_start__E)
                  c0ad87c0    00000080                   : BIOS.obj (.text:ti_sysbios_family_c64p_Cache_invL1pAll__E)
                  c0ad8840    00000080                   : BIOS.obj (.text:ti_sysbios_family_c64p_Hwi_eventMap__E)
                  c0ad88c0    00000080     bk_fr_c6748_pe674.oe674 (.text:ti_sysbios_gates_GateHwi_Object__create__S)
                  c0ad8940    00000080     bk_fr_c6748_pe674.oe674 (.text:ti_sysbios_gates_GateMutex_Object__create__S)
                  c0ad89c0    00000080     bk_fr_c6748_pe674.oe674 (.text:ti_sysbios_heaps_HeapMem_Object__create__S)
                  c0ad8a40    00000080     sysbios.ae674 : BIOS.obj (.text:ti_sysbios_knl_Clock_Module_startup__F)
                  c0ad8ac0    00000080     bk_fr_c6748_pe674.oe674 (.text:ti_sysbios_knl_Clock_doTick__I)
                  c0ad8b40    00000080     sysbios.ae674 : BIOS.obj (.text:ti_sysbios_knl_Clock_getTicks__E)
                  c0ad8bc0    00000080     bk_fr_c6748_pe674.oe674 (.text:ti_sysbios_knl_Queue_Object__create__S)
                  c0ad8c40    00000080     sysbios.ae674 : BIOS.obj (.text:ti_sysbios_knl_Swi_startup__E)
                  c0ad8cc0    00000080                   : BIOS.obj (.text:ti_sysbios_knl_Task_restore__E)
                  c0ad8d40    00000080                   : BIOS.obj (.text:ti_sysbios_timers_timer64_Timer_getCount__E)
                  c0ad8dc0    00000080                   : BIOS.obj (.text:ti_sysbios_timers_timer64_Timer_getPeriod__E)
                  c0ad8e40    00000080                   : BIOS.obj (.text:ti_sysbios_xdcruntime_SemThreadSupport_Instance_init__F)
                  c0ad8ec0    00000080     rts6740_elf.lib : lowlev.obj (.text:unlink)
                  c0ad8f40    00000080     ti.targets.rts6000.ae674 : Core-label.oe674 (.text:xdc_runtime_Core_assignLabel__I)
                  c0ad8fc0    00000080                              : Core-params.oe674 (.text:xdc_runtime_Core_assignParams__I)
                  c0ad9040    00000080                              : System.oe674 (.text:xdc_runtime_System_atexit__F)
                  c0ad90c0    00000080                              : System.oe674 (.text:xdc_runtime_System_rtsExit__I)
                  c0ad9140    00000080                              : Text.oe674 (.text:xdc_runtime_Text_printVisFxn__I)
                  c0ad91c0    00000080                              : Text.oe674 (.text:xdc_runtime_Text_xprintf__I)
                  c0ad9240    00000080                              : SemThread.oe674 (.text:xdc_runtime_knl_SemThread_Instance_init__F)
                  c0ad92c0    00000060     stk6_ppp_pppoe.ae674 : bind6.oe674 (.text:Bind6FindByIF)
                  c0ad9320    00000060                          : bind6.oe674 (.text:Bind6IF2IPHost)
                  c0ad9380    00000060                          : bind.oe674 (.text:BindFindByHost)
                  c0ad93e0    00000060                          : bind.oe674 (.text:BindFindByIF)
                  c0ad9440    00000060                          : bind.oe674 (.text:BindFindByNet)
                  c0ad94a0    00000060                          : bind.oe674 (.text:BindGetIFByDBCast)
                  c0ad9500    00000060                          : bind.oe674 (.text:BindIF2IPHost)
                  c0ad9560    00000060     nettool.ae674 : config.oe674 (.text:CfgEntryInfo)
                  c0ad95c0    00000060                   : config.oe674 (.text:CfgSetService)
                  c0ad9620    00000060     ti.drv.omapl138.ae674 : nimu_eth.oe674 (.text:EmacPktService)
                  c0ad9680    00000060                           : nimu_eth.oe674 (.text:EmacSend)
                  c0ad96e0    00000060                           : nimu_eth.oe674 (.text:EmacStop)
                  c0ad9740    00000060     stk6_ppp_pppoe.ae674 : md5.oe674 (.text:Encode)
                  c0ad97a0    00000060                          : exec.oe674 (.text:ExecBroadcast)
                  c0ad9800    00000060                          : igmp.oe674 (.text:IGMPTestGroup)
                  c0ad9860    00000060                          : ip.oe674 (.text:IPChecksum)
                  c0ad98c0    00000060                          : lli.oe674 (.text:LLIFree)
                  c0ad9920    00000060     ti.drv.omapl138.ae674 : csl_mdio.oe674 (.text:MDIO_open)
                  c0ad9980    00000060     netctrl.ae674 : netctrl.oe674 (.text:NC_SystemClose)
                  c0ad99e0    00000060     stk6_ppp_pppoe.ae674 : nimu.oe674 (.text:NIMUAddHeader)
                  c0ad9a40    00000060                          : nimu.oe674 (.text:NIMUCreatePacket)
                  c0ad9aa0    00000060                          : nimu.oe674 (.text:NIMUFindByIndex)
                  c0ad9b00    00000060                          : nimu.oe674 (.text:NIMUPacketService)
                  c0ad9b60    00000060                          : nimu.oe674 (.text:NIMUPacketServiceCheck)
                  c0ad9bc0    00000060                          : nimu.oe674 (.text:NIMUSendPacket)
                  c0ad9c20    00000060     netctrl.ae674 : netsrv.oe674 (.text:NS_PreBoot)
                  c0ad9c80    00000060     stk6_ppp_pppoe.ae674 : node.oe674 (.text:NodeGetRt)
                  c0ad9ce0    00000060                          : rtc.oe674 (.text:RTCAddHook)
                  c0ad9d40    00000060                          : rtc.oe674 (.text:RTCRemoveHook)
                  c0ad9da0    00000060                          : rawethsock_pcb.oe674 (.text:RawEthSockPcbCleanup)
                  c0ad9e00    00000060                          : rawethsock_pcb.oe674 (.text:RawEthSockPcbFind)
                  c0ad9e60    00000060                          : route6.oe674 (.text:Rt6GetNetworkAddr)
                  c0ad9ec0    00000060                          : rtable.oe674 (.text:RtWalkEnd)
                  c0ad9f20    00000060     netctrl.ae674 : netsrv.oe674 (.text:ServiceCallback)
                  c0ad9f80    00000060     stk6_ppp_pppoe.ae674 : sock6pcb.oe674 (.text:Sock6PcbDetach)
                  c0ad9fe0    00000060                          : sock6prot.oe674 (.text:Sock6PrCtlError)
                  c0ada040    00000060                          : sock6prot.oe674 (.text:Sock6PrDetach)
                  c0ada0a0    00000060                          : sockprot.oe674 (.text:SockPrCtlError)
                  c0ada100    00000060                          : sockprot.oe674 (.text:SockPrDetach)
                  c0ada160    00000060                          : tcp6prot.oe674 (.text:TCP6PrConnect)
                  c0ada1c0    00000060                          : tcp6time.oe674 (.text:TCP6SetPersist)
                  c0ada220    00000060                          : tcp6time.oe674 (.text:TCP6TimeoutPersist)
                  c0ada280    00000060                          : tcpprot.oe674 (.text:TcpPrConnect)
                  c0ada2e0    00000060                          : tcptime.oe674 (.text:TcpSetPersist)
                  c0ada340    00000060                          : tcptime.oe674 (.text:TcpTimeoutPersist)
                  c0ada3a0    00000060                          : vlan.oe674 (.text:VLANFindNode)
                  c0ada400    00000060                          : vlan.oe674 (.text:VLANFindSourceInterface)
                  c0ada460    00000060                          : vlan.oe674 (.text:VLANInit)
                  c0ada4c0    00000060     nettool.ae674 : config.oe674 (.text:_CfgEntryProcess)
                  c0ada520    00000060     rts6740_elf.lib : assert.obj (.text:__c6xabi_abort_msg)
                  c0ada580    00000060                     : imath64.obj (.text:_subcull)
                  c0ada5e0    00000060     nettool.ae674 : dhcpbild.oe674 (.text:dhcpBuildDiscover)
                  c0ada640    00000060                   : dhcpsock.oe674 (.text:dhcpPacketReceive)
                  c0ada6a0    00000060                   : dhcpsock.oe674 (.text:dhcpPacketSend)
                  c0ada700    00000060                   : dhcpsock.oe674 (.text:dhcpSocketClose)
                  c0ada760    00000060     edma3_lld_drv_sample.ae674 : sample_cs.oe674 (.text:edma3OsSemTake)
                  c0ada7c0    00000060     ti.drv.omapl138.ae674 : csl_emac.oe674 (.text:emacUpdateStats)
                  c0ada820    00000060     stk6_ppp_pppoe.ae674 : file.oe674 (.text:fdint_clearevent)
                  c0ada880    00000060                          : file.oe674 (.text:fdint_getfdt)
                  c0ada8e0    00000060                          : file.oe674 (.text:fdint_setevent)
                  c0ada940    00000060                          : fileuser.oe674 (.text:fdsetTestEntry)
                  c0ada9a0    00000060     nettool.ae674 : httpsend.oe674 (.text:httpSendClientStr)
                  c0adaa00    00000060     stk6_ppp_pppoe.ae674 : ipcp.oe674 (.text:ipcpInit)
                  c0adaa60    00000060                          : ipcp.oe674 (.text:ipcpStart)
                  c0adaac0    00000060                          : lcp.oe674 (.text:lcpClose)
                  c0adab20    00000060                          : listlib.oe674 (.text:list_cat)
                  c0adab80    00000060                          : listlib.oe674 (.text:list_remove_node)
                  c0adabe0    00000060     rts6740_elf.lib : memccpy.obj (.text:memccpy)
                  c0adac40    00000060     os.ae674 : mem.oe674 (.text:mmUnInitPage)
                  c0adaca0    00000060     stk6_ppp_pppoe.ae674 : nimupppoe.oe674 (.text:pppoeInput)
                  c0adad00    00000060                          : socket.oe674 (.text:recvncfree)
                  c0adad60    00000060     rts6740_elf.lib : strcpy.obj (.text:strcpy)
                  c0adadc0    00000060     bk_fr_c6748_pe674.oe674 (.text:ti_ndk_config_Global_stackThread)
                  c0adae20    00000060     bk_fr_c6748_pe674.oe674 (.text:ti_sdo_utils_List_Object__delete__S)
                  c0adae80    00000060     sysbios.ae674 : BIOS.obj (.text:ti_sysbios_BIOS_registerRTSLock__I)
                  c0adaee0    00000060                   : BIOS.obj (.text:ti_sysbios_family_c64p_Cache_setMar__E)
                  c0adaf40    00000060                   : BIOS.obj (.text:ti_sysbios_family_c64p_Cache_setSize__E)
                  c0adafa0    00000060                   : BIOS.obj (.text:ti_sysbios_family_c64p_EventCombiner_Module_startup__F)
                  c0adb000    00000060                   : BIOS.obj (.text:ti_sysbios_family_c64p_EventCombiner_dispatchPlug__F)
                  c0adb060    00000060                   : BIOS.obj (.text:ti_sysbios_family_c64p_Exception_Module_startup__F)
                  c0adb0c0    00000060     bk_fr_c6748_pe674.oe674 (.text:ti_sysbios_family_c64p_Hwi_Object__delete__S)
                  c0adb120    00000060     sysbios.ae674 : BIOS.obj (.text:ti_sysbios_family_c64p_primus_TimerSupport_enable__E)
                  c0adb180    00000060     bk_fr_c6748_pe674.oe674 (.text:ti_sysbios_gates_GateHwi_Handle__label__S)
                  c0adb1e0    00000060     bk_fr_c6748_pe674.oe674 (.text:ti_sysbios_gates_GateHwi_Object__delete__S)
                  c0adb240    00000060     bk_fr_c6748_pe674.oe674 (.text:ti_sysbios_gates_GateMutex_Handle__label__S)
                  c0adb2a0    00000060     sysbios.ae674 : BIOS.obj (.text:ti_sysbios_gates_GateMutex_Instance_init__F)
                  c0adb300    00000060     bk_fr_c6748_pe674.oe674 (.text:ti_sysbios_gates_GateMutex_Object__delete__S)
                  c0adb360    00000060     sysbios.ae674 : BIOS.obj (.text:ti_sysbios_hal_Hwi_Instance_init__F)
                  c0adb3c0    00000060     bk_fr_c6748_pe674.oe674 (.text:ti_sysbios_hal_Hwi_Object__delete__S)
                  c0adb420    00000060     sysbios.ae674 : BIOS.obj (.text:ti_sysbios_hal_Hwi_checkStack:ti_sysbios_hal_Hwi_checkStack)
                  c0adb480    00000060                   : BIOS.obj (.text:ti_sysbios_hal_Hwi_initStack:ti_sysbios_hal_Hwi_initStack)
                  c0adb4e0    00000060     bk_fr_c6748_pe674.oe674 (.text:ti_sysbios_heaps_HeapMem_Handle__label__S)
                  c0adb540    00000060     bk_fr_c6748_pe674.oe674 (.text:ti_sysbios_heaps_HeapMem_Object__delete__S)
                  c0adb5a0    00000060     bk_fr_c6748_pe674.oe674 (.text:ti_sysbios_knl_Queue_Object__delete__S)
                  c0adb600    00000060     bk_fr_c6748_pe674.oe674 (.text:ti_sysbios_knl_Semaphore_Object__delete__S)
                  c0adb660    00000060     sysbios.ae674 : BIOS.obj (.text:ti_sysbios_knl_Semaphore_pendTimeout__I)
                  c0adb6c0    00000060                   : BIOS.obj (.text:ti_sysbios_knl_Swi_Module_startup__F)
                  c0adb720    00000060     bk_fr_c6748_pe674.oe674 (.text:ti_sysbios_knl_Swi_Object__delete__S)
                  c0adb780    00000060     bk_fr_c6748_pe674.oe674 (.text:ti_sysbios_knl_Task_Object__delete__S)
                  c0adb7e0    00000060     sysbios.ae674 : BIOS.obj (.text:ti_sysbios_knl_Task_enter__I)
                  c0adb840    00000060                   : BIOS.obj (.text:ti_sysbios_knl_Task_getMode__E)
                  c0adb8a0    00000060     bk_fr_c6748_pe674.oe674 (.text:ti_sysbios_xdcruntime_SemThreadSupport_Object__delete__S)
                  c0adb900    00000060     rts6740_elf.lib : trgmsg.obj (.text:writemsg)
                  c0adb960    00000060     ti.targets.rts6000.ae674 : Memory.oe674 (.text:xdc_runtime_Memory_calloc__F)
                  c0adb9c0    00000060                              : SysStd.oe674 (.text:xdc_runtime_SysStd_abort__F)
                  c0adba20    00000060                              : System.oe674 (.text:xdc_runtime_System_avprintf__F)
                  c0adba80    00000060                              : System.oe674 (.text:xdc_runtime_System_vprintf__F)
                  c0adbae0    00000060                              : Text.oe674 (.text:xdc_runtime_Text_cordText__F)
                  c0adbb40    00000060     bk_fr_c6748_pe674.oe674 (.text:xdc_runtime_knl_SemThread_Handle__label__S)
                  c0adbba0    00000060     bk_fr_c6748_pe674.oe674 (.text:xdc_runtime_knl_SemThread_Object__delete__S)
                  c0adbc00    00000060     bk_fr_c6748_pe674.oe674 (.text:xdc_runtime_knl_SyncSemThread_Handle__label__S)
                  c0adbc60    00000060     ti.targets.rts6000.ae674 : SyncSemThread.oe674 (.text:xdc_runtime_knl_SyncSemThread_Instance_init__F)
                  c0adbcc0    00000060     bk_fr_c6748_pe674.oe674 (.text:xdc_runtime_knl_SyncSemThread_Object__delete__S)
                  c0adbd20    00000040     stk6_ppp_pppoe.ae674 : bind6.oe674 (.text:Bind6FindByHost)
                  c0adbd60    00000040                          : bind6.oe674 (.text:Bind6FindByNet)
                  c0adbda0    00000040                          : bind.oe674 (.text:BindGetIP)
                  c0adbde0    00000040                          : exec.oe674 (.text:ExecClose)
                  c0adbe20    00000040                          : exec.oe674 (.text:ExecTimer)
                  c0adbe60    00000040     ti.drv.omapl138.ae674 : ethdriver.oe674 (.text:FreePacket)
                  c0adbea0    00000040     stk6_ppp_pppoe.ae674 : ipv6.oe674 (.text:IPv6IsLinkLocal)
                  c0adbee0    00000040                          : ipv6.oe674 (.text:IPv6IsMulticast)
                  c0adbf20    00000040     os.ae674 : intmgmt.oe674 (.text:Interrupt_delete)
                  c0adbf60    00000040     ti.drv.omapl138.ae674 : ethdriver.oe674 (.text:Interrupt_end)
                  c0adbfa0    00000040     stk6_ppp_pppoe.ae674 : lli6.oe674 (.text:LLI6IsValid)
                  c0adbfe0    00000040                          : md5.oe674 (.text:MD5Init)
                  c0adc020    00000040                          : mld.oe674 (.text:MLDTestGroup)
                  c0adc060    00000040     netctrl.ae674 : netctrl.oe674 (.text:NC_BootComplete)
                  c0adc0a0    00000040     os.ae674 : task.oe674 (.text:NDK_hookCreate)
                  c0adc0e0    00000040              : ossys.oe674 (.text:NDK_sprintf)
                  c0adc120    00000040     nettool.ae674 : ipaddr.oe674 (.text:NtRemoveNetwork)
                  c0adc160    00000040     stk6_ppp_pppoe.ae674 : nimuppp.oe674 (.text:PPPStart)
                  c0adc1a0    00000040     ti.drv.omapl138.ae674 : ethdriver.oe674 (.text:Queue_pop)
                  c0adc1e0    00000040                           : ethdriver.oe674 (.text:Queue_push)
                  c0adc220    00000040     nettool.ae674 : ipaddr.oe674 (.text:RouteHook)
                  c0adc260    00000040     stk6_ppp_pppoe.ae674 : route6.oe674 (.text:Rt6IsDefaultRoute)
                  c0adc2a0    00000040                          : sock6pcb.oe674 (.text:Sock6PcbAttach)
                  c0adc2e0    00000040                          : sock6int.oe674 (.text:Sock6SetOOBMark)
                  c0adc320    00000040                          : sockpcb.oe674 (.text:SockPcbAttach)
                  c0adc360    00000040                          : sockint.oe674 (.text:SockSetOOBMark)
                  c0adc3a0    00000040                          : tcp6.oe674 (.text:TCP6TimeoutRemove)
                  c0adc3e0    00000040                          : tcp6time.oe674 (.text:TCP6TimeoutWait2)
                  c0adc420    00000040     os.ae674 : task.oe674 (.text:TaskDestroy)
                  c0adc460    00000040     stk6_ppp_pppoe.ae674 : tcp.oe674 (.text:TcpTimeoutRemove)
                  c0adc4a0    00000040                          : tcptime.oe674 (.text:TcpTimeoutWait2)
                  c0adc4e0    00000040     rts6740_elf.lib : frcmpyd_div.obj (.text:__c6xabi_frcmpyd_div)
                  c0adc520    00000040                     : isinf.obj (.text:__c6xabi_isinf)
                  c0adc560    00000040                     : _printfi.obj (.text:__c6xabi_isnan)
                  c0adc5a0    00000040                     : llshift.obj (.text:__c6xabi_llshru)
                  c0adc5e0    00000040                     : strasg.obj (.text:__strasgi_64plus)
                  c0adc620    00000040                     : args_main.obj (.text:_args_main)
                  c0adc660    00000040     hal_timer_bios.ae674 : lltimer.oe674 (.text:_llTimerInit)
                  c0adc6a0    00000040     sysbios.ae674 : c62_TaskSupport_asm.obj (.text:_ti_sysbios_family_c62_TaskSupport_buildTaskStack)
                  c0adc6e0    00000040                   : c64p_Hwi_asm_switch.obj (.text:_ti_sysbios_family_xxx_Hwi_switchToIsrStack)
                  c0adc720    00000040     edma3_lld_drv_sample.ae674 : sample_cs.oe674 (.text:edma3OsSemGive)
                  c0adc760    00000040     os.ae674 : efs.oe674 (.text:efs_loadfunction)
                  c0adc7a0    00000040     evminit.obj (.text)
                  c0adc7e0    00000040     stk6_ppp_pppoe.ae674 : fileuser.oe674 (.text:fdError)
                  c0adc820    00000040                          : fileuser.oe674 (.text:fdSelectAbort)
                  c0adc860    00000040                          : file.oe674 (.text:fdint_freefdt)
                  c0adc8a0    00000040     bk_fr_c6748_pe674.oe674 (.text:free)
                  c0adc8e0    00000040     nettool.ae674 : inetaddr.oe674 (.text:inet_addr)
                  c0adc920    00000040     stk6_ppp_pppoe.ae674 : listlib.oe674 (.text:list_add)
                  c0adc960    00000040                          : listlib.oe674 (.text:list_remove)
                  c0adc9a0    00000040     ti.drv.omapl138.ae674 : csl_emac.oe674 (.text:pqPush)
                  c0adc9e0    00000040                           : csl_emac.oe674 (.text:pqPushChain)
                  c0adca20    00000040     sysbios.ae674 : BIOS.obj (.text:rtsLock$0)
                  c0adca60    00000040     rts6740_elf.lib : strcmp.obj (.text:strcmp)
                  c0adcaa0    00000040                     : strlen.obj (.text:strlen)
                  c0adcae0    00000040     utils.ae674 : UTILS.obj (.text:ti_sdo_utils_List_get__E)
                  c0adcb20    00000040                 : UTILS.obj (.text:ti_sdo_utils_List_put__E)
                  c0adcb60    00000040     bk_fr_c6748_pe674.oe674 (.text:ti_sysbios_BIOS_startFunc__I)
                  c0adcba0    00000040     sysbios.ae674 : BIOS.obj (.text:ti_sysbios_family_c64p_EventCombiner_disableEvent__F)
                  c0adcbe0    00000040                   : BIOS.obj (.text:ti_sysbios_family_c64p_EventCombiner_enableEvent__F)
                  c0adcc20    00000040                   : BIOS.obj (.text:ti_sysbios_family_c64p_EventCombiner_unused__F)
                  c0adcc60    00000040     bk_fr_c6748_pe674.oe674 (.text:ti_sysbios_family_c64p_Hwi_Module__startupDone__F)
                  c0adcca0    00000040     sysbios.ae674 : BIOS.obj (.text:ti_sysbios_family_c64p_Hwi_disableInterrupt__E)
                  c0adcce0    00000040                   : BIOS.obj (.text:ti_sysbios_family_c64p_Hwi_enableIER__E)
                  c0adcd20    00000040                   : BIOS.obj (.text:ti_sysbios_family_c64p_Hwi_enableInterrupt__E)
                  c0adcd60    00000040                   : BIOS.obj (.text:ti_sysbios_gates_GateMutex_leave__E)
                  c0adcda0    00000040                   : BIOS.obj (.text:ti_sysbios_hal_Hwi_Instance_finalize__F)
                  c0adcde0    00000040     bk_fr_c6748_pe674.oe674 (.text:ti_sysbios_hal_Timer_Module__startupDone__F)
                  c0adce20    00000040     bk_fr_c6748_pe674.oe674 (.text:ti_sysbios_heaps_HeapMem_Object__get__S)
                  c0adce60    00000040     bk_fr_c6748_pe674.oe674 (.text:ti_sysbios_io_DEV_Object__get__S)
                  c0adcea0    00000040     sysbios.ae674 : BIOS.obj (.text:ti_sysbios_io_GIO_control__E)
                  c0adcee0    00000040     bk_fr_c6748_pe674.oe674 (.text:ti_sysbios_knl_Clock_Object__destruct__S)
                  c0adcf20    00000040     sysbios.ae674 : BIOS.obj (.text:ti_sysbios_knl_Queue_get__E)
                  c0adcf60    00000040                   : BIOS.obj (.text:ti_sysbios_knl_Queue_put__E)
                  c0adcfa0    00000040     bk_fr_c6748_pe674.oe674 (.text:ti_sysbios_knl_Semaphore_Object__destruct__S)
                  c0adcfe0    00000040     bk_fr_c6748_pe674.oe674 (.text:ti_sysbios_knl_Swi_Object__get__S)
                  c0add020    00000040     bk_fr_c6748_pe674.oe674 (.text:ti_sysbios_knl_Task_Object__get__S)
                  c0add060    00000040     sysbios.ae674 : BIOS.obj (.text:ti_sysbios_knl_Task_sleepTimeout__I)
                  c0add0a0    00000040     bk_fr_c6748_pe674.oe674 (.text:ti_sysbios_timers_timer64_Timer_Module__startupDone__F)
                  c0add0e0    00000040     sysbios.ae674 : BIOS.obj (.text:ti_sysbios_xdcruntime_SemThreadSupport_post__F)
                  c0add120    00000040     ti.targets.rts6000.ae674 : Error.oe674 (.text:xdc_runtime_Error_check__F)
                  c0add160    00000040                              : Error.oe674 (.text:xdc_runtime_Error_init__F)
                  c0add1a0    00000040                              : Memory.oe674 (.text:xdc_runtime_Memory_free__F)
                  c0add1e0    00000040                              : Registry.oe674 (.text:xdc_runtime_Registry_findById__F)
                  c0add220    00000040                              : System.oe674 (.text:xdc_runtime_System_abort__F)
                  c0add260    00000040     bk_fr_c6748_pe674.oe674 (.text:xdc_runtime_System_aprintf__E)
                  c0add2a0    00000040     bk_fr_c6748_pe674.oe674 (.text:xdc_runtime_System_printf__E)
                  c0add2e0    00000040     ti.targets.rts6000.ae674 : Text.oe674 (.text:xdc_runtime_Text_ropeText__F)
                  c0add320    00000040                              : SemThread.oe674 (.text:xdc_runtime_knl_SemThread_Instance_finalize__F)
                  c0add360    00000040                              : SyncSemThread.oe674 (.text:xdc_runtime_knl_SyncSemThread_Instance_finalize__F)
                  c0add3a0    00000040                              : SyncSemThread.oe674 (.text:xdc_runtime_knl_SyncSemThread_wait__F)
                  c0add3e0    00000020     stk6_ppp_pppoe.ae674 : bind6.oe674 (.text:Bind6GetInterfaceHandle)
                  c0add400    00000020                          : bind6.oe674 (.text:Bind6GetLifetime)
                  c0add420    00000020                          : bind6.oe674 (.text:Bind6SetLifetime)
                  c0add440    00000020                          : bind.oe674 (.text:BindGetFirst)
                  c0add460    00000020                          : bind.oe674 (.text:BindGetIF)
                  c0add480    00000020                          : bind.oe674 (.text:BindGetNext)
                  c0add4a0    00000020                          : bind.oe674 (.text:BindIFNet2IPHost)
                  c0add4c0    00000020                          : bind.oe674 (.text:BindIPHost2IF)
                  c0add4e0    00000020     nettool.ae674 : config.oe674 (.text:CfgSetDefault)
                  c0add500    00000020     ti.drv.omapl138.ae674 : nimu_eth.oe674 (.text:EmacPoll)
                  c0add520    00000020     stk6_ppp_pppoe.ae674 : exec.oe674 (.text:ExecHRef)
                  c0add540    00000020                          : exec.oe674 (.text:ExecLowResource)
                  c0add560    00000020     ti.drv.omapl138.ae674 : ethdriver.oe674 (.text:HwPktInit)
                  c0add580    00000020                           : ethdriver.oe674 (.text:HwPktShutdown)
                  c0add5a0    00000020     stk6_ppp_pppoe.ae674 : ip.oe674 (.text:IPRtChange)
                  c0add5c0    00000020     hal_userled_stub.ae674 : llled.oe674 (.text:LED_TOGGLE)
                  c0add5e0    00000020     stk6_ppp_pppoe.ae674 : lli6.oe674 (.text:LLI6GetNetDevice)
                  c0add600    00000020                          : lli6.oe674 (.text:LLI6IncRefCount)
                  c0add620    00000020                          : lli6.oe674 (.text:LLI6IsDead)
                  c0add640    00000020                          : lli6.oe674 (.text:LLI6IsRouter)
                  c0add660    00000020                          : lli6.oe674 (.text:LLI6SetIncomplete)
                  c0add680    00000020     ti.drv.omapl138.ae674 : csl_mdio.oe674 (.text:MDIO_getStatus)
                  c0add6a0    00000020     netctrl.ae674 : netctrl.oe674 (.text:NC_IPUpdate)
                  c0add6c0    00000020                   : netctrl.oe674 (.text:NC_NetStop)
                  c0add6e0    00000020     os.ae674 : task.oe674 (.text:NDK_hookInit)
                  c0add700    00000020     stk6_ppp_pppoe.ae674 : nimu.oe674 (.text:NIMUGetRsvdSizeInfo)
                  c0add720    00000020                          : nimu.oe674 (.text:NIMUSetRsvdSizeInfo)
                  c0add740    00000020                          : nat.oe674 (.text:NatMsg)
                  c0add760    00000020                          : node.oe674 (.text:NodeSetRt)
                  c0add780    00000020     os.ae674 : task.oe674 (.text:NotifyLowResource)
                  c0add7a0    00000020              : oem.oe674 (.text:OEMCacheClean)
                  c0add7c0    00000020              : oem.oe674 (.text:OEMSysCritOff)
                  c0add7e0    00000020              : oem.oe674 (.text:OEMSysCritOn)
                  c0add800    00000020     stk6_ppp_pppoe.ae674 : pbm.oe674 (.text:PBM_close)
                  c0add820    00000020                          : rawethsock_pcb.oe674 (.text:RawEthSockPcbInit)
                  c0add840    00000020                          : rawethsock_prot.oe674 (.text:RawEthSockPrAttach)
                  c0add860    00000020                          : rawethsock_prot.oe674 (.text:RawEthSockPrDetach)
                  c0add880    00000020                          : route6.oe674 (.text:Rt6GetIF)
                  c0add8a0    00000020                          : route6.oe674 (.text:Rt6GetLLI)
                  c0add8c0    00000020                          : route6.oe674 (.text:Rt6GetMTU)
                  c0add8e0    00000020                          : route6.oe674 (.text:Rt6IncRefCount)
                  c0add900    00000020                          : route6.oe674 (.text:Rt6IsLocalRoute)
                  c0add920    00000020     os.ae674 : semaphore.oe674 (.text:SemDelete)
                  c0add940    00000020              : semaphore.oe674 (.text:SemPend)
                  c0add960    00000020              : semaphore.oe674 (.text:SemPost)
                  c0add980    00000020              : semaphore.oe674 (.text:SemReset)
                  c0add9a0    00000020     stk6_ppp_pppoe.ae674 : sock6prot.oe674 (.text:Sock6PrAttach)
                  c0add9c0    00000020                          : sock6int.oe674 (.text:Sock6SetOOBData)
                  c0add9e0    00000020                          : sockprot.oe674 (.text:SockPrAttach)
                  c0adda00    00000020                          : sockint.oe674 (.text:SockSetOOBData)
                  c0adda20    00000020     ti.drv.omapl138.ae674 : ethdriver.oe674 (.text:StatisticsUpdate)
                  c0adda40    00000020                           : ethdriver.oe674 (.text:StatusUpdate)
                  c0adda60    00000020     stk6_ppp_pppoe.ae674 : tcp6prot.oe674 (.text:TCP6PrRecv)
                  c0adda80    00000020                          : tcp6.oe674 (.text:TCP6TimeoutAdd)
                  c0addaa0    00000020     os.ae674 : task.oe674 (.text:TaskBlock)
                  c0addac0    00000020              : task.oe674 (.text:TaskSelf)
                  c0addae0    00000020              : task.oe674 (.text:TaskSetPri)
                  c0addb00    00000020     stk6_ppp_pppoe.ae674 : tcpprot.oe674 (.text:TcpPrRecv)
                  c0addb20    00000020                          : tcp.oe674 (.text:TcpTimeoutAdd)
                  c0addb40    00000020                          : timer.oe674 (.text:TimerFree)
                  c0addb60    00000020     os.ae674 : task.oe674 (.text:_TaskInit)
                  c0addb80    00000020              : task.oe674 (.text:_TaskShutdown)
                  c0addba0    00000020     rts6740_elf.lib : errno.obj (.text:__c6xabi_errno_addr)
                  c0addbc0    00000020                     : negll.obj (.text:__c6xabi_negll)
                  c0addbe0    00000020                     : dtor_list.obj (.text:__cxa_atexit)
                  c0addc00    00000020                     : dtor_list.obj (.text:__cxa_ia64_exit)
                  c0addc20    00000020     ti.targets.rts6000.ae674 : xdc_noinit.oe674 (.text:__xdc__init)
                  c0addc40    00000020     hal_ser_stub.ae674 : llserstb.oe674 (.text:_llSerialInit)
                  c0addc60    00000020                        : llserstb.oe674 (.text:_llSerialServiceCheck)
                  c0addc80    00000020                        : llserstb.oe674 (.text:_llSerialShutdown)
                  c0addca0    00000020     hal_timer_bios.ae674 : lltimer.oe674 (.text:_llTimerShutdown)
                  c0addcc0    00000020     hal_userled_stub.ae674 : llled.oe674 (.text:_llUserLedInit)
                  c0addce0    00000020                            : llled.oe674 (.text:_llUserLedShutdown)
                  c0addd00    00000020     rts6740_elf.lib : _lock.obj (.text:_nop)
                  c0addd20    00000020                     : fprintf.obj (.text:_outc)
                  c0addd40    00000020                     : printf.obj (.text:_outc)
                  c0addd60    00000020                     : fprintf.obj (.text:_outs)
                  c0addd80    00000020                     : printf.obj (.text:_outs)
                  c0addda0    00000020                     : _lock.obj (.text:_register_lock)
                  c0adddc0    00000020                     : _lock.obj (.text:_register_unlock)
                  c0addde0    00000020     sysbios.ae674 : c62_TaskSupport_asm.obj (.text:_ti_sysbios_family_c62_TaskSupport_glue)
                  c0adde00    00000020                   : c64p_Hwi_asm_switch.obj (.text:_ti_sysbios_family_xxx_Hwi_switchToTaskStack)
                  c0adde20    00000020     rts6740_elf.lib : exit.obj (.text:abort)
                  c0adde40    00000020                     : dtor_list.obj (.text:atexit)
                  c0adde60    00000020                     : copy_decompress_none.obj (.text:decompress:none:__TI_decompress_none)
                  c0adde80    00000020                     : copy_decompress_rle.obj (.text:decompress:rle24:__TI_decompress_rle24)
                  c0addea0    00000020     os.ae674 : efs.oe674 (.text:efs_getfilesize)
                  c0addec0    00000020     stk6_ppp_pppoe.ae674 : file.oe674 (.text:fdint_signaltimeout)
                  c0addee0    00000020                          : listlib.oe674 (.text:list_get_head)
                  c0addf00    00000020                          : listlib.oe674 (.text:list_get_next)
                  c0addf20    00000020     hal_ser_stub.ae674 : llserstb.oe674 (.text:llSerialService)
                  c0addf40    00000020     hal_timer_bios.ae674 : lltimer.oe674 (.text:llTimerGetStartTime)
                  c0addf60    00000020     sysbios.ae674 : BIOS.obj (.text:nullFunc$0)
                  c0addf80    00000020     rts6740_elf.lib : fputc.obj (.text:putc)
                  c0addfa0    00000020                     : fputc.obj (.text:putchar)
                  c0addfc0    00000020     utils.ae674 : UTILS.obj (.text:ti_sdo_utils_List_Instance_init__F)
                  c0addfe0    00000020     bk_fr_c6748_pe674.oe674 (.text:ti_sdo_utils_List_Params__init__S)
                  c0ade000    00000020     utils.ae674 : UTILS.obj (.text:ti_sdo_utils_List_empty__E)
                  c0ade020    00000020                 : UTILS.obj (.text:ti_sdo_utils_List_next__E)
                  c0ade040    00000020     bk_fr_c6748_pe674.oe674 (.text:ti_sysbios_BIOS_RtsGateProxy_enter__E)
                  c0ade060    00000020     bk_fr_c6748_pe674.oe674 (.text:ti_sysbios_BIOS_RtsGateProxy_leave__E)
                  c0ade080    00000020     sysbios.ae674 : BIOS.obj (.text:ti_sysbios_BIOS_getThreadType__E)
                  c0ade0a0    00000020                   : BIOS.obj (.text:ti_sysbios_BIOS_setThreadType__E)
                  c0ade0c0    00000020                   : BIOS.obj (.text:ti_sysbios_BIOS_start__E)
                  c0ade0e0    00000020     bk_fr_c6748_pe674.oe674 (.text:ti_sysbios_family_c62_TaskSupport_Module__startupDone__S)
                  c0ade100    00000020     sysbios.ae674 : BIOS.obj (.text:ti_sysbios_family_c62_TaskSupport_checkStack__E)
                  c0ade120    00000020                   : BIOS.obj (.text:ti_sysbios_family_c62_TaskSupport_getStackAlignment__E)
                  c0ade140    00000020                   : BIOS.obj (.text:ti_sysbios_family_c64p_Cache_inv__E)
                  c0ade160    00000020                   : BIOS.obj (.text:ti_sysbios_family_c64p_Cache_wbInv__E)
                  c0ade180    00000020                   : BIOS.obj (.text:ti_sysbios_family_c64p_Hwi_clearInterrupt__E)
                  c0ade1a0    00000020                   : BIOS.obj (.text:ti_sysbios_family_c64p_Hwi_startup__E)
                  c0ade1c0    00000020                   : BIOS.obj (.text:ti_sysbios_family_c64p_Hwi_switchFromBootStack__E)
                  c0ade1e0    00000020                   : BIOS.obj (.text:ti_sysbios_family_c64p_Hwi_unPluggedInterrupt__I)
                  c0ade200    00000020                   : BIOS.obj (.text:ti_sysbios_family_c64p_TimestampProvider_Module_startup__F)
                  c0ade220    00000020                   : BIOS.obj (.text:ti_sysbios_family_c64p_TimestampProvider_get32__E)
                  c0ade240    00000020                   : BIOS.obj (.text:ti_sysbios_gates_GateHwi_Instance_init__F)
                  c0ade260    00000020                   : BIOS.obj (.text:ti_sysbios_gates_GateHwi_enter__E)
                  c0ade280    00000020                   : BIOS.obj (.text:ti_sysbios_gates_GateHwi_leave__E)
                  c0ade2a0    00000020                   : BIOS.obj (.text:ti_sysbios_gates_GateHwi_query__F)
                  c0ade2c0    00000020                   : BIOS.obj (.text:ti_sysbios_gates_GateMutex_Instance_finalize__F)
                  c0ade2e0    00000020                   : BIOS.obj (.text:ti_sysbios_gates_GateMutex_query__F)
                  c0ade300    00000020     bk_fr_c6748_pe674.oe674 (.text:ti_sysbios_hal_Hwi_HwiProxy_Module__startupDone__S)
                  c0ade320    00000020     bk_fr_c6748_pe674.oe674 (.text:ti_sysbios_hal_Hwi_HwiProxy_Object__create__S)
                  c0ade340    00000020     bk_fr_c6748_pe674.oe674 (.text:ti_sysbios_hal_Hwi_HwiProxy_Object__delete__S)
                  c0ade360    00000020     sysbios.ae674 : BIOS.obj (.text:ti_sysbios_hal_Hwi_Module_startup__F)
                  c0ade380    00000020     bk_fr_c6748_pe674.oe674 (.text:ti_sysbios_hal_Hwi_Params__init__S)
                  c0ade3a0    00000020     sysbios.ae674 : BIOS.obj (.text:ti_sysbios_hal_Timer_Module_startup__F)
                  c0ade3c0    00000020     bk_fr_c6748_pe674.oe674 (.text:ti_sysbios_hal_Timer_TimerProxy_Module__startupDone__S)
                  c0ade3e0    00000020     bk_fr_c6748_pe674.oe674 (.text:ti_sysbios_hal_Timer_TimerProxy_getExpiredCounts__E)
                  c0ade400    00000020     bk_fr_c6748_pe674.oe674 (.text:ti_sysbios_hal_Timer_TimerProxy_getPeriod__E)
                  c0ade420    00000020     bk_fr_c6748_pe674.oe674 (.text:ti_sysbios_hal_Timer_TimerProxy_setNextTick__E)
                  c0ade440    00000020     bk_fr_c6748_pe674.oe674 (.text:ti_sysbios_heaps_HeapMem_Module_GateProxy_enter__E)
                  c0ade460    00000020     bk_fr_c6748_pe674.oe674 (.text:ti_sysbios_heaps_HeapMem_Module_GateProxy_leave__E)
                  c0ade480    00000020     sysbios.ae674 : BIOS.obj (.text:ti_sysbios_heaps_HeapMem_isBlocking__E)
                  c0ade4a0    00000020                   : BIOS.obj (.text:ti_sysbios_io_DEV_getDevp__E)
                  c0ade4c0    00000020                   : BIOS.obj (.text:ti_sysbios_io_DEV_getFxns__E)
                  c0ade4e0    00000020     bk_fr_c6748_pe674.oe674 (.text:ti_sysbios_io_GIO_Params__init__S)
                  c0ade500    00000020     bk_fr_c6748_pe674.oe674 (.text:ti_sysbios_knl_Clock_Params__init__S)
                  c0ade520    00000020     sysbios.ae674 : BIOS.obj (.text:ti_sysbios_knl_Idle_loop__E)
                  c0ade540    00000020                   : BIOS.obj (.text:ti_sysbios_knl_Queue_Instance_init__F)
                  c0ade560    00000020     bk_fr_c6748_pe674.oe674 (.text:ti_sysbios_knl_Queue_Object__destruct__S)
                  c0ade580    00000020     bk_fr_c6748_pe674.oe674 (.text:ti_sysbios_knl_Queue_Object__get__S)
                  c0ade5a0    00000020     sysbios.ae674 : BIOS.obj (.text:ti_sysbios_knl_Queue_empty__E)
                  c0ade5c0    00000020                   : BIOS.obj (.text:ti_sysbios_knl_Queue_head__E)
                  c0ade5e0    00000020                   : BIOS.obj (.text:ti_sysbios_knl_Queue_next__E)
                  c0ade600    00000020                   : BIOS.obj (.text:ti_sysbios_knl_Queue_remove__E)
                  c0ade620    00000020                   : BIOS.obj (.text:ti_sysbios_knl_Semaphore_Instance_finalize__F)
                  c0ade640    00000020     bk_fr_c6748_pe674.oe674 (.text:ti_sysbios_knl_Semaphore_Params__init__S)
                  c0ade660    00000020     sysbios.ae674 : BIOS.obj (.text:ti_sysbios_knl_Semaphore_reset__E)
                  c0ade680    00000020     bk_fr_c6748_pe674.oe674 (.text:ti_sysbios_knl_Swi_Params__init__S)
                  c0ade6a0    00000020     sysbios.ae674 : BIOS.obj (.text:ti_sysbios_knl_Swi_disable__E)
                  c0ade6c0    00000020     bk_fr_c6748_pe674.oe674 (.text:ti_sysbios_knl_Task_Object__first__S)
                  c0ade6e0    00000020     bk_fr_c6748_pe674.oe674 (.text:ti_sysbios_knl_Task_Object__next__S)
                  c0ade700    00000020     bk_fr_c6748_pe674.oe674 (.text:ti_sysbios_knl_Task_Params__init__S)
                  c0ade720    00000020     bk_fr_c6748_pe674.oe674 (.text:ti_sysbios_knl_Task_SupportProxy_Module__startupDone__S)
                  c0ade740    00000020     sysbios.ae674 : BIOS.obj (.text:ti_sysbios_knl_Task_disable__E)
                  c0ade760    00000020                   : BIOS.obj (.text:ti_sysbios_knl_Task_enable__E)
                  c0ade780    00000020                   : BIOS.obj (.text:ti_sysbios_knl_Task_getHookContext__E)
                  c0ade7a0    00000020                   : BIOS.obj (.text:ti_sysbios_knl_Task_getPri__E)
                  c0ade7c0    00000020                   : BIOS.obj (.text:ti_sysbios_knl_Task_self__E)
                  c0ade7e0    00000020                   : BIOS.obj (.text:ti_sysbios_knl_Task_setHookContext__E)
                  c0ade800    00000020                   : BIOS.obj (.text:ti_sysbios_knl_Task_startup__E)
                  c0ade820    00000020                   : BIOS.obj (.text:ti_sysbios_timers_timer64_Timer_setNextTick__E)
                  c0ade840    00000020                   : BIOS.obj (.text:ti_sysbios_xdcruntime_SemThreadSupport_Instance_finalize__F)
                  c0ade860    00000020     bk_fr_c6748_pe674.oe674 (.text:ti_sysbios_xdcruntime_SemThreadSupport_Params__init__S)
                  c0ade880    00000020     ti.targets.rts6000.ae674 : Error.oe674 (.text:xdc_runtime_Error_getMsg__F)
                  c0ade8a0    00000020                              : Gate.oe674 (.text:xdc_runtime_Gate_enterSystem__F)
                  c0ade8c0    00000020                              : Gate.oe674 (.text:xdc_runtime_Gate_leaveSystem__F)
                  c0ade8e0    00000020     bk_fr_c6748_pe674.oe674 (.text:xdc_runtime_IHeap_alloc)
                  c0ade900    00000020     bk_fr_c6748_pe674.oe674 (.text:xdc_runtime_IHeap_free)
                  c0ade920    00000020     bk_fr_c6748_pe674.oe674 (.text:xdc_runtime_LoggerBuf_Object__get__S)
                  c0ade940    00000020     bk_fr_c6748_pe674.oe674 (.text:xdc_runtime_Memory_HeapProxy_alloc__E)
                  c0ade960    00000020     bk_fr_c6748_pe674.oe674 (.text:xdc_runtime_Memory_HeapProxy_free__E)
                  c0ade980    00000020     bk_fr_c6748_pe674.oe674 (.text:xdc_runtime_Startup_exec__I)
                  c0ade9a0    00000020     bk_fr_c6748_pe674.oe674 (.text:xdc_runtime_Startup_reset__I)
                  c0ade9c0    00000020     ti.targets.rts6000.ae674 : SysStd.oe674 (.text:xdc_runtime_SysStd_exit__F)
                  c0ade9e0    00000020                              : SysStd.oe674 (.text:xdc_runtime_SysStd_putch__F)
                  c0adea00    00000020                              : SysStd.oe674 (.text:xdc_runtime_SysStd_ready__F)
                  c0adea20    00000020     bk_fr_c6748_pe674.oe674 (.text:xdc_runtime_System_Module_GateProxy_enter__E)
                  c0adea40    00000020     bk_fr_c6748_pe674.oe674 (.text:xdc_runtime_System_Module_GateProxy_leave__E)
                  c0adea60    00000020     ti.targets.rts6000.ae674 : System.oe674 (.text:xdc_runtime_System_Module_startup__F)
                  c0adea80    00000020                              : System.oe674 (.text:xdc_runtime_System_exit__F)
                  c0adeaa0    00000020                              : System.oe674 (.text:xdc_runtime_System_lastFxn__I)
                  c0adeac0    00000020                              : System.oe674 (.text:xdc_runtime_System_vsprintf__F)
                  c0adeae0    00000020     bk_fr_c6748_pe674.oe674 (.text:xdc_runtime_Text_visitRope__I)
                  c0adeb00    00000020     bk_fr_c6748_pe674.oe674 (.text:xdc_runtime_knl_ISync_signal)
                  c0adeb20    00000020     bk_fr_c6748_pe674.oe674 (.text:xdc_runtime_knl_ISync_wait)
                  c0adeb40    00000020     bk_fr_c6748_pe674.oe674 (.text:xdc_runtime_knl_SemThread_Params__init__S)
                  c0adeb60    00000020     bk_fr_c6748_pe674.oe674 (.text:xdc_runtime_knl_SemThread_Proxy_Object__create__S)
                  c0adeb80    00000020     bk_fr_c6748_pe674.oe674 (.text:xdc_runtime_knl_SemThread_Proxy_Object__delete__S)
                  c0adeba0    00000020     bk_fr_c6748_pe674.oe674 (.text:xdc_runtime_knl_SemThread_Proxy_Params__init__S)
                  c0adebc0    00000020     bk_fr_c6748_pe674.oe674 (.text:xdc_runtime_knl_SemThread_Proxy_pend__E)
                  c0adebe0    00000020     bk_fr_c6748_pe674.oe674 (.text:xdc_runtime_knl_SemThread_Proxy_post__E)
                  c0adec00    00000020     ti.targets.rts6000.ae674 : SemThread.oe674 (.text:xdc_runtime_knl_SemThread_pend__F)
                  c0adec20    00000020                              : SemThread.oe674 (.text:xdc_runtime_knl_SemThread_post__F)
                  c0adec40    00000020                              : SyncSemThread.oe674 (.text:xdc_runtime_knl_SyncSemThread_query__F)
                  c0adec60    00000020                              : SyncSemThread.oe674 (.text:xdc_runtime_knl_SyncSemThread_signal__F)
                  c0adec80    00000020     bk_fr_c6748_pe674.oe674 (.text:xdc_runtime_knl_Sync_Proxy_signal__E)
                  c0adeca0    00000020     bk_fr_c6748_pe674.oe674 (.text:xdc_runtime_knl_Sync_Proxy_wait__E)

.const.2   0    c0adecc0    0000aaca     
                  c0adecc0    00002bb0     Vpif.obj (.const:.string)
                  c0ae1870    00001647     bk_fr_c6748_pe674.oe674 (.const:xdc_runtime_Text_charTab__A)
                  c0ae2eb7    00000001     --HOLE-- [fill = 0]
                  c0ae2eb8    00000f04     Adv7391.obj (.const:.string)
                  c0ae3dbc    00000d64     Tvp5150.obj (.const:.string)
                  c0ae4b20    00000b48     I2c.obj (.const:.string)
                  c0ae5668    00000500     sysbios.ae674 : BIOS.obj (.const:.string)
                  c0ae5b68    000004ec     CodecInterface.obj (.const:.string)
                  c0ae6054    00000004     nettool.ae674 : telnetd.oe674 (.const:.string)
                  c0ae6058    00000390     Vpif.obj (.const:ch0Params)
                  c0ae63e8    00000380     edma3_lld_rm.ae674 : edma3resmgr.oe674 (.const)
                  c0ae6768    00000378     I2c_edma.obj (.const:.string)
                  c0ae6ae0    00000294     back_taskImageInput.obj (.const:.string)
                  c0ae6d74    00000194     nettool.ae674 : httpsend.oe674 (.const:.string)
                  c0ae6f08    0000014f     os.ae674 : mem.oe674 (.const:.string)
                  c0ae7057    00000001     --HOLE-- [fill = 0]
                  c0ae7058    00000130     ti.drv.omapl138.ae674 : ethdriver.oe674 (.const:.string)
                  c0ae7188    00000121     stk6_ppp_pppoe.ae674 : nimuppp.oe674 (.const:.string)
                  c0ae72a9    00000006                          : auth.oe674 (.const:.string)
                  c0ae72af    00000001     --HOLE-- [fill = 0]
                  c0ae72b0    00000114     bk_fr_c6748_pe674.oe674 (.const:xdc_runtime_Text_nodeTab__A)
                  c0ae73c4    0000010e     stk6_ppp_pppoe.ae674 : route6.oe674 (.const:.string)
                  c0ae74d2    00000109     os.ae674 : task.oe674 (.const:.string)
                  c0ae75db    00000001     --HOLE-- [fill = 0]
                  c0ae75dc    00000108     networkmain.obj (.const:.string)
                  c0ae76e4    00000004     ti.targets.rts6000.ae674 : Assert.oe674 (.const:.string)
                  c0ae76e8    00000101     rts6740_elf.lib : ctype.obj (.const:.string:_ctypes_)
                  c0ae77e9    000000fa     stk6_ppp_pppoe.ae674 : bind6.oe674 (.const:.string)
                  c0ae78e3    000000d9                          : vlan.oe674 (.const:.string)
                  c0ae79bc    000000d8                          : node.oe674 (.const:.string)
                  c0ae7a94    000000d7     nettool.ae674 : httpstr.oe674 (.const:.string)
                  c0ae7b6b    00000001     --HOLE-- [fill = 0]
                  c0ae7b6c    000000d4     ti.drv.omapl138.ae674 : nimu_eth.oe674 (.const:.string)
                  c0ae7c40    000000d0     taskNet.obj (.const:.string)
                  c0ae7d10    000000cf     stk6_ppp_pppoe.ae674 : rtc.oe674 (.const:.string)
                  c0ae7ddf    00000001     --HOLE-- [fill = 0]
                  c0ae7de0    000000c0     emacHooks.obj (.const:.string)
                  c0ae7ea0    000000bf     stk6_ppp_pppoe.ae674 : lliout.oe674 (.const:.string)
                  c0ae7f5f    000000b7                          : icmpv6_ndisc.oe674 (.const:.string)
                  c0ae8016    000000b1                          : icmpv6out.oe674 (.const:.string)
                  c0ae80c7    00000001     --HOLE-- [fill = 0]
                  c0ae80c8    000000b0     edma3_lld_drv.ae674 : edma3_drv_basic.oe674 (.const)
                  c0ae8178    000000a2     stk6_ppp_pppoe.ae674 : nimupppoe.oe674 (.const:.string)
                  c0ae821a    00000099                          : lli6.oe674 (.const:.string)
                  c0ae82b3    00000001     --HOLE-- [fill = 0]
                  c0ae82b4    00000004     bk_fr_c6748_pe674.oe674 (.const:ti_sysbios_BIOS_Module__diagsEnabled__C)
                  c0ae82b8    00000098     Vpif.obj (.const:ch1Params)
                  c0ae8350    00000098     Vpif.obj (.const:ch2Params)
                  c0ae83e8    00000094     stk6_ppp_pppoe.ae674 : nimu.oe674 (.const:.string)
                  c0ae847c    00000060                          : sb.oe674 (.const:.string)
                  c0ae84dc    0000005a                          : mld.oe674 (.const:.string)
                  c0ae8536    00000058                          : tcp6time.oe674 (.const:.string)
                  c0ae858e    00000058                          : tcptime.oe674 (.const:.string)
                  c0ae85e6    00000002     --HOLE-- [fill = 0]
                  c0ae85e8    00000058     ti.targets.rts6000.ae674 : Error.oe674 (.const:.string)
                  c0ae8640    00000057     bk_fr_c6748_pe674.oe674 (.const:.string)
                  c0ae8697    00000057     stk6_ppp_pppoe.ae674 : udp6.oe674 (.const:.string)
                  c0ae86ee    00000002     --HOLE-- [fill = 0]
                  c0ae86f0    00000054                          : sockprot.oe674 (.const:Code2Err)
                  c0ae8744    00000054     I2c.obj (.const)
                  c0ae8798    00000050     stk6_ppp_pppoe.ae674 : bind.oe674 (.const:.string)
                  c0ae87e8    00000050     Vpif.obj (.const)
                  c0ae8838    0000004e     stk6_ppp_pppoe.ae674 : rtable.oe674 (.const:.string)
                  c0ae8886    00000002     --HOLE-- [fill = 0]
                  c0ae8888    00000048     Psc.obj (.const:.string)
                  c0ae88d0    00000044     CodecInterface.obj (.const)
                  c0ae8914    00000041     nettool.ae674 : httpclie.oe674 (.const:.string)
                  c0ae8955    00000041     stk6_ppp_pppoe.ae674 : sb6.oe674 (.const:.string)
                  c0ae8996    00000002     --HOLE-- [fill = 0]
                  c0ae8998    00000040     fr_main.obj (.const:.string)
                  c0ae89d8    00000040     ti.targets.rts6000.ae674 : Text.oe674 (.const:.string)
                  c0ae8a18    00000040     I2c_edma.obj (.const)
                  c0ae8a58    0000003e     stk6_ppp_pppoe.ae674 : ipv6.oe674 (.const:.string)
                  c0ae8a96    00000002     --HOLE-- [fill = 0]
                  c0ae8a98    0000003c     bk_fr_c6748_pe674.oe674 (.const:ti_sysbios_knl_Task_Object__PARAMS__C)
                  c0ae8ad4    0000003b     stk6_ppp_pppoe.ae674 : sock6pcb.oe674 (.const:.string)
                  c0ae8b0f    00000001     --HOLE-- [fill = 0]
                  c0ae8b10    00000038     bk_fr_c6748_pe674.oe674 (.const:xdc_runtime_Startup_sfxnTab__A)
                  c0ae8b48    00000037     netctrl.ae674 : netctrl.oe674 (.const:.string)
                  c0ae8b7f    00000034     os.ae674 : intmgmt.oe674 (.const:.string)
                  c0ae8bb3    00000031     nettool.ae674 : dhcpmain.oe674 (.const:.string)
                  c0ae8be4    00000031     stk6_ppp_pppoe.ae674 : pbm.oe674 (.const:.string)
                  c0ae8c15    00000003     rts6740_elf.lib : assert.obj (.const:.string)
                  c0ae8c18    00000030     bk_fr_c6748_pe674.oe674 (.const:ti_sysbios_family_c64p_Hwi_Object__PARAMS__C)
                  c0ae8c48    00000030     bk_fr_c6748_pe674.oe674 (.const:ti_sysbios_knl_Task_hooks__A)
                  c0ae8c78    0000002f     stk6_ppp_pppoe.ae674 : sock.oe674 (.const:.string)
                  c0ae8ca7    00000001     --HOLE-- [fill = 0]
                  c0ae8ca8    0000002c     ti.targets.rts6000.ae674 : Startup.oe674 (.const:.string)
                  c0ae8cd4    0000002c     back_taskImageInput.obj (.const)
                  c0ae8d00    0000002c     bk_fr_c6748_pe674.oe674 (.const:ti_sysbios_hal_Hwi_Object__PARAMS__C)
                  c0ae8d2c    0000002c     bk_fr_c6748_pe674.oe674 (.const:ti_sysbios_io_GIO_Object__PARAMS__C)
                  c0ae8d58    00000028     os.ae674 : semaphore.oe674 (.const:.string)
                  c0ae8d80    00000028     stk6_ppp_pppoe.ae674 : icmpv6in.oe674 (.const:.string)
                  c0ae8da8    00000028     bk_fr_c6748_pe674.oe674 (.const:ti_sysbios_heaps_HeapMem_Module__FXNS__C)
                  c0ae8dd0    00000028     bk_fr_c6748_pe674.oe674 (.const:ti_sysbios_knl_Swi_Object__PARAMS__C)
                  c0ae8df8    00000027     stk6_ppp_pppoe.ae674 : ipv6_exthdrs.oe674 (.const:.string)
                  c0ae8e1f    00000001     --HOLE-- [fill = 0]
                  c0ae8e20    00000024     Adv7391.obj (.const:$P$T0$1)
                  c0ae8e44    00000004     bk_fr_c6748_pe674.oe674 (.const:ti_sysbios_BIOS_Module__diagsIncluded__C)
                  c0ae8e48    00000024     Adv7391.obj (.const:$P$T1$2)
                  c0ae8e6c    00000024     bk_fr_c6748_pe674.oe674 (.const:ti_sysbios_gates_GateHwi_Module__FXNS__C)
                  c0ae8e90    00000024     bk_fr_c6748_pe674.oe674 (.const:ti_sysbios_gates_GateMutex_Module__FXNS__C)
                  c0ae8eb4    00000024     bk_fr_c6748_pe674.oe674 (.const:ti_sysbios_heaps_HeapMem_Object__PARAMS__C)
                  c0ae8ed8    00000024     bk_fr_c6748_pe674.oe674 (.const:ti_sysbios_knl_Clock_Object__PARAMS__C)
                  c0ae8efc    00000024     bk_fr_c6748_pe674.oe674 (.const:ti_sysbios_knl_Semaphore_Object__PARAMS__C)
                  c0ae8f20    00000024     bk_fr_c6748_pe674.oe674 (.const:xdc_runtime_knl_SyncSemThread_Module__FXNS__C)
                  c0ae8f44    00000023     rts6740_elf.lib : _printfi.obj (.const:.string)
                  c0ae8f67    00000001     --HOLE-- [fill = 0]
                  c0ae8f68    00000020     taskImageProcess.obj (.const:.string)
                  c0ae8f88    00000020     ti.targets.rts6000.ae674 : Core-mem.oe674 (.const:.string)
                  c0ae8fa8    00000020     bk_fr_c6748_pe674.oe674 (.const:ti_sdo_utils_List_Object__DESC__C)
                  c0ae8fc8    00000020     bk_fr_c6748_pe674.oe674 (.const:ti_sysbios_family_c64p_Hwi_Object__DESC__C)
                  c0ae8fe8    00000020     bk_fr_c6748_pe674.oe674 (.const:ti_sysbios_gates_GateHwi_Object__DESC__C)
                  c0ae9008    00000020     bk_fr_c6748_pe674.oe674 (.const:ti_sysbios_gates_GateMutex_Object__DESC__C)
                  c0ae9028    00000020     bk_fr_c6748_pe674.oe674 (.const:ti_sysbios_hal_Hwi_Object__DESC__C)
                  c0ae9048    00000020     bk_fr_c6748_pe674.oe674 (.const:ti_sysbios_heaps_HeapMem_Object__DESC__C)
                  c0ae9068    00000020     bk_fr_c6748_pe674.oe674 (.const:ti_sysbios_io_GIO_Object__DESC__C)
                  c0ae9088    00000020     bk_fr_c6748_pe674.oe674 (.const:ti_sysbios_knl_Clock_Object__DESC__C)
                  c0ae90a8    00000020     bk_fr_c6748_pe674.oe674 (.const:ti_sysbios_knl_Queue_Object__DESC__C)
                  c0ae90c8    00000020     bk_fr_c6748_pe674.oe674 (.const:ti_sysbios_knl_Semaphore_Object__DESC__C)
                  c0ae90e8    00000020     bk_fr_c6748_pe674.oe674 (.const:ti_sysbios_knl_Swi_Object__DESC__C)
                  c0ae9108    00000020     bk_fr_c6748_pe674.oe674 (.const:ti_sysbios_knl_Task_Object__DESC__C)
                  c0ae9128    00000020     bk_fr_c6748_pe674.oe674 (.const:ti_sysbios_xdcruntime_SemThreadSupport_Object__DESC__C)
                  c0ae9148    00000020     bk_fr_c6748_pe674.oe674 (.const:xdc_runtime_knl_SemThread_Module__FXNS__C)
                  c0ae9168    00000020     bk_fr_c6748_pe674.oe674 (.const:xdc_runtime_knl_SemThread_Object__DESC__C)
                  c0ae9188    00000020     bk_fr_c6748_pe674.oe674 (.const:xdc_runtime_knl_SyncSemThread_Object__DESC__C)
                  c0ae91a8    0000001e     nettool.ae674 : daemon.oe674 (.const:.string)
                  c0ae91c6    0000001d     stk6_ppp_pppoe.ae674 : lli.oe674 (.const:.string)
                  c0ae91e3    00000001     --HOLE-- [fill = 0]
                  c0ae91e4    0000001c     bk_fr_c6748_pe674.oe674 (.const:ti_sysbios_xdcruntime_SemThreadSupport_Object__PARAMS__C)
                  c0ae9200    0000001c     bk_fr_c6748_pe674.oe674 (.const:xdc_runtime_Startup_sfxnRts__A)
                  c0ae921c    0000001c     bk_fr_c6748_pe674.oe674 (.const:xdc_runtime_knl_SemThread_Object__PARAMS__C)
                  c0ae9238    00000018     nettool.ae674 : config.oe674 (.const:.string)
                  c0ae9250    00000018     stk6_ppp_pppoe.ae674 : exec.oe674 (.const:.string)
                  c0ae9268    00000018     bk_fr_c6748_pe674.oe674 (.const:ti_sdo_utils_List_Object__PARAMS__C)
                  c0ae9280    00000018     bk_fr_c6748_pe674.oe674 (.const:ti_sysbios_gates_GateHwi_Object__PARAMS__C)
                  c0ae9298    00000018     bk_fr_c6748_pe674.oe674 (.const:ti_sysbios_gates_GateMutex_Object__PARAMS__C)
                  c0ae92b0    00000018     bk_fr_c6748_pe674.oe674 (.const:ti_sysbios_knl_Queue_Object__PARAMS__C)
                  c0ae92c8    00000018     bk_fr_c6748_pe674.oe674 (.const:xdc_runtime_knl_SyncSemThread_Object__PARAMS__C)
                  c0ae92e0    00000017     stk6_ppp_pppoe.ae674 : ipout.oe674 (.const:.string)
                  c0ae92f7    00000016                          : ipv6out.oe674 (.const:.string)
                  c0ae930d    00000003     --HOLE-- [fill = 0]
                  c0ae9310    00000014     Tvp5150.obj (.const:.string:$P$T1$3)
                  c0ae9324    00000004     bk_fr_c6748_pe674.oe674 (.const:ti_sysbios_BIOS_Module__diagsMask__C)
                  c0ae9328    00000014     Tvp5150.obj (.const:.string:$P$T2$4)
                  c0ae933c    00000004     bk_fr_c6748_pe674.oe674 (.const:ti_sysbios_BIOS_installedErrorHook__C)
                  c0ae9340    00000014     Adv7391.obj (.const:.string:$P$T3$5)
                  c0ae9354    00000013     stk6_ppp_pppoe.ae674 : fileuser.oe674 (.const:.string)
                  c0ae9367    00000011                          : tcp6prot.oe674 (.const:.string)
                  c0ae9378    00000011                          : tcpprot.oe674 (.const:.string)
                  c0ae9389    00000003     --HOLE-- [fill = 0]
                  c0ae938c    00000004     bk_fr_c6748_pe674.oe674 (.const:ti_sysbios_family_c62_TaskSupport_stackAlignment__C)
                  c0ae9390    00000011     ti.targets.rts6000.ae674 : System.oe674 (.const:digtohex)
                  c0ae93a1    00000003     --HOLE-- [fill = 0]
                  c0ae93a4    00000004     bk_fr_c6748_pe674.oe674 (.const:ti_sysbios_family_c64p_Cache_EMIFA_BASE__C)
                  c0ae93a8    00000010     bk_fr_c6748_pe674.oe674 (.const:ti_sysbios_family_c64p_EventCombiner_EVTMASK__C)
                  c0ae93b8    0000000e     stk6_ppp_pppoe.ae674 : timer.oe674 (.const:.string)
                  c0ae93c6    0000000d     os.ae674 : ossys.oe674 (.const:.string)
                  c0ae93d3    0000000c              : efs.oe674 (.const:.string)
                  c0ae93df    00000001     --HOLE-- [fill = 0]
                  c0ae93e0    0000000c     bk_fr_c6748_pe674.oe674 (.const:ti_sysbios_family_c64p_Cache_initSize__C)
                  c0ae93ec    0000000b     stk6_ppp_pppoe.ae674 : route.oe674 (.const:.string)
                  c0ae93f7    00000001     --HOLE-- [fill = 0]
                  c0ae93f8    0000000a     Tvp5150.obj (.const:$P$T0$1)
                  c0ae9402    00000002     --HOLE-- [fill = 0]
                  c0ae9404    00000008     ti.targets.rts6000.ae674 : System.oe674 (.const:.string)
                  c0ae940c    00000004     bk_fr_c6748_pe674.oe674 (.const:ti_sysbios_family_c64p_Cache_EMIFA_CFG__C)
                  c0ae9410    00000008     bk_fr_c6748_pe674.oe674 (.const:ti_sysbios_knl_Idle_coreList__A)
                  c0ae9418    00000008     bk_fr_c6748_pe674.oe674 (.const:ti_sysbios_knl_Idle_coreList__C)
                  c0ae9420    00000008     bk_fr_c6748_pe674.oe674 (.const:ti_sysbios_knl_Idle_funcList__A)
                  c0ae9428    00000008     bk_fr_c6748_pe674.oe674 (.const:ti_sysbios_knl_Idle_funcList__C)
                  c0ae9430    00000008     bk_fr_c6748_pe674.oe674 (.const:ti_sysbios_knl_Task_hooks__C)
                  c0ae9438    00000008     bk_fr_c6748_pe674.oe674 (.const:xdc_runtime_Startup_firstFxns__A)
                  c0ae9440    00000008     bk_fr_c6748_pe674.oe674 (.const:xdc_runtime_Startup_firstFxns__C)
                  c0ae9448    00000008     bk_fr_c6748_pe674.oe674 (.const:xdc_runtime_Startup_lastFxns__C)
                  c0ae9450    00000004     bk_fr_c6748_pe674.oe674 (.const:ti_sysbios_family_c64p_Cache_EMIFA_LENGTH__C)
                  c0ae9454    00000004     bk_fr_c6748_pe674.oe674 (.const:ti_sysbios_family_c64p_Cache_EMIFB_BASE__C)
                  c0ae9458    00000004     bk_fr_c6748_pe674.oe674 (.const:ti_sysbios_family_c64p_Cache_EMIFB_CFG__C)
                  c0ae945c    00000004     bk_fr_c6748_pe674.oe674 (.const:ti_sysbios_family_c64p_Cache_EMIFB_LENGTH__C)
                  c0ae9460    00000004     bk_fr_c6748_pe674.oe674 (.const:ti_sysbios_family_c64p_Cache_EMIFC_BASE__C)
                  c0ae9464    00000004     bk_fr_c6748_pe674.oe674 (.const:ti_sysbios_family_c64p_Cache_EMIFC_CFG__C)
                  c0ae9468    00000004     bk_fr_c6748_pe674.oe674 (.const:ti_sysbios_family_c64p_Cache_EMIFC_LENGTH__C)
                  c0ae946c    00000004     bk_fr_c6748_pe674.oe674 (.const:ti_sysbios_family_c64p_Cache_MAR0_31__C)
                  c0ae9470    00000004     bk_fr_c6748_pe674.oe674 (.const:ti_sysbios_family_c64p_Cache_MAR128_159__C)
                  c0ae9474    00000004     bk_fr_c6748_pe674.oe674 (.const:ti_sysbios_family_c64p_Cache_MAR160_191__C)
                  c0ae9478    00000004     bk_fr_c6748_pe674.oe674 (.const:ti_sysbios_family_c64p_Cache_MAR192_223__C)
                  c0ae947c    00000004     bk_fr_c6748_pe674.oe674 (.const:ti_sysbios_family_c64p_Cache_MAR224_255__C)
                  c0ae9480    00000004     bk_fr_c6748_pe674.oe674 (.const:ti_sysbios_family_c64p_Cache_MAR32_63__C)
                  c0ae9484    00000004     bk_fr_c6748_pe674.oe674 (.const:ti_sysbios_family_c64p_Cache_MAR64_95__C)
                  c0ae9488    00000004     bk_fr_c6748_pe674.oe674 (.const:ti_sysbios_family_c64p_Cache_MAR96_127__C)
                  c0ae948c    00000004     bk_fr_c6748_pe674.oe674 (.const:ti_sysbios_family_c64p_EventCombiner_E_unpluggedEvent__C)
                  c0ae9490    00000004     bk_fr_c6748_pe674.oe674 (.const:ti_sysbios_family_c64p_Exception_E_exceptionMin__C)
                  c0ae9494    00000004     bk_fr_c6748_pe674.oe674 (.const:ti_sysbios_family_c64p_Exception_exceptionHook__C)
                  c0ae9498    00000004     bk_fr_c6748_pe674.oe674 (.const:ti_sysbios_family_c64p_Exception_externalHook__C)
                  c0ae949c    00000004     bk_fr_c6748_pe674.oe674 (.const:ti_sysbios_family_c64p_Exception_internalHook__C)
                  c0ae94a0    00000004     bk_fr_c6748_pe674.oe674 (.const:ti_sysbios_family_c64p_Exception_nmiHook__C)
                  c0ae94a4    00000004     bk_fr_c6748_pe674.oe674 (.const:ti_sysbios_family_c64p_Hwi_E_alreadyDefined__C)
                  c0ae94a8    00000004     bk_fr_c6748_pe674.oe674 (.const:ti_sysbios_family_c64p_Hwi_E_handleNotFound__C)
                  c0ae94ac    00000004     bk_fr_c6748_pe674.oe674 (.const:ti_sysbios_family_c64p_Hwi_LD_end__C)
                  c0ae94b0    00000004     bk_fr_c6748_pe674.oe674 (.const:ti_sysbios_family_c64p_Hwi_LM_begin__C)
                  c0ae94b4    00000004     bk_fr_c6748_pe674.oe674 (.const:ti_sysbios_family_c64p_Hwi_Module__diagsEnabled__C)
                  c0ae94b8    00000004     bk_fr_c6748_pe674.oe674 (.const:ti_sysbios_family_c64p_Hwi_Module__diagsIncluded__C)
                  c0ae94bc    00000004     bk_fr_c6748_pe674.oe674 (.const:ti_sysbios_family_c64p_Hwi_Module__diagsMask__C)
                  c0ae94c0    00000004     bk_fr_c6748_pe674.oe674 (.const:ti_sysbios_family_c64p_Hwi_Module__loggerFxn1__C)
                  c0ae94c4    00000004     bk_fr_c6748_pe674.oe674 (.const:ti_sysbios_family_c64p_Hwi_Module__loggerFxn8__C)
                  c0ae94c8    00000004     bk_fr_c6748_pe674.oe674 (.const:ti_sysbios_family_c64p_Hwi_Module__loggerObj__C)
                  c0ae94cc    00000004     bk_fr_c6748_pe674.oe674 (.const:ti_sysbios_gates_GateMutex_A_badContext__C)
                  c0ae94d0    00000004     bk_fr_c6748_pe674.oe674 (.const:ti_sysbios_gates_GateMutex_Instance_State_sem__O)
                  c0ae94d4    00000004     bk_fr_c6748_pe674.oe674 (.const:ti_sysbios_gates_GateMutex_Module__diagsEnabled__C)
                  c0ae94d8    00000004     bk_fr_c6748_pe674.oe674 (.const:ti_sysbios_gates_GateMutex_Module__diagsIncluded__C)
                  c0ae94dc    00000004     bk_fr_c6748_pe674.oe674 (.const:ti_sysbios_gates_GateMutex_Module__diagsMask__C)
                  c0ae94e0    00000004     bk_fr_c6748_pe674.oe674 (.const:ti_sysbios_hal_Hwi_E_stackOverflow__C)
                  c0ae94e4    00000004     bk_fr_c6748_pe674.oe674 (.const:ti_sysbios_heaps_HeapMem_A_align__C)
                  c0ae94e8    00000004     bk_fr_c6748_pe674.oe674 (.const:ti_sysbios_heaps_HeapMem_A_heapSize__C)
                  c0ae94ec    00000004     bk_fr_c6748_pe674.oe674 (.const:ti_sysbios_heaps_HeapMem_A_invalidFree__C)
                  c0ae94f0    00000004     bk_fr_c6748_pe674.oe674 (.const:ti_sysbios_heaps_HeapMem_A_zeroBlock__C)
                  c0ae94f4    00000004     bk_fr_c6748_pe674.oe674 (.const:ti_sysbios_heaps_HeapMem_E_memory__C)
                  c0ae94f8    00000004     bk_fr_c6748_pe674.oe674 (.const:ti_sysbios_heaps_HeapMem_Module__diagsEnabled__C)
                  c0ae94fc    00000004     bk_fr_c6748_pe674.oe674 (.const:ti_sysbios_heaps_HeapMem_Module__diagsIncluded__C)
                  c0ae9500    00000004     bk_fr_c6748_pe674.oe674 (.const:ti_sysbios_heaps_HeapMem_Module__diagsMask__C)
                  c0ae9504    00000004     bk_fr_c6748_pe674.oe674 (.const:ti_sysbios_heaps_HeapMem_Module__gateObj__C)
                  c0ae9508    00000004     bk_fr_c6748_pe674.oe674 (.const:ti_sysbios_heaps_HeapMem_Object__count__C)
                  c0ae950c    00000004     bk_fr_c6748_pe674.oe674 (.const:ti_sysbios_heaps_HeapMem_reqAlign__C)
                  c0ae9510    00000004     bk_fr_c6748_pe674.oe674 (.const:ti_sysbios_io_DEV_Object__count__C)
                  c0ae9514    00000004     bk_fr_c6748_pe674.oe674 (.const:ti_sysbios_io_DEV_tableSize__C)
                  c0ae9518    00000004     bk_fr_c6748_pe674.oe674 (.const:ti_sysbios_io_GIO_A_badModel__C)
                  c0ae951c    00000004     bk_fr_c6748_pe674.oe674 (.const:ti_sysbios_io_GIO_E_createFailed__C)
                  c0ae9520    00000004     bk_fr_c6748_pe674.oe674 (.const:ti_sysbios_io_GIO_E_notFound__C)
                  c0ae9524    00000004     bk_fr_c6748_pe674.oe674 (.const:ti_sysbios_io_GIO_Instance_State_doneList__O)
                  c0ae9528    00000004     bk_fr_c6748_pe674.oe674 (.const:ti_sysbios_io_GIO_Instance_State_freeList__O)
                  c0ae952c    00000004     bk_fr_c6748_pe674.oe674 (.const:ti_sysbios_io_GIO_Module__diagsEnabled__C)
                  c0ae9530    00000004     bk_fr_c6748_pe674.oe674 (.const:ti_sysbios_io_GIO_Module__diagsIncluded__C)
                  c0ae9534    00000004     bk_fr_c6748_pe674.oe674 (.const:ti_sysbios_io_GIO_Module__diagsMask__C)
                  c0ae9538    00000004     bk_fr_c6748_pe674.oe674 (.const:ti_sysbios_knl_Clock_A_badThreadType__C)
                  c0ae953c    00000004     bk_fr_c6748_pe674.oe674 (.const:ti_sysbios_knl_Clock_LM_begin__C)
                  c0ae9540    00000004     bk_fr_c6748_pe674.oe674 (.const:ti_sysbios_knl_Clock_LM_tick__C)
                  c0ae9544    00000004     bk_fr_c6748_pe674.oe674 (.const:ti_sysbios_knl_Clock_LW_delayed__C)
                  c0ae9548    00000004     bk_fr_c6748_pe674.oe674 (.const:ti_sysbios_knl_Clock_Module_State_clockQ__O)
                  c0ae954c    00000004     bk_fr_c6748_pe674.oe674 (.const:ti_sysbios_knl_Clock_Module__diagsEnabled__C)
                  c0ae9550    00000004     bk_fr_c6748_pe674.oe674 (.const:ti_sysbios_knl_Clock_Module__diagsIncluded__C)
                  c0ae9554    00000004     bk_fr_c6748_pe674.oe674 (.const:ti_sysbios_knl_Clock_Module__diagsMask__C)
                  c0ae9558    00000004     bk_fr_c6748_pe674.oe674 (.const:ti_sysbios_knl_Clock_Module__loggerFxn1__C)
                  c0ae955c    00000004     bk_fr_c6748_pe674.oe674 (.const:ti_sysbios_knl_Clock_Module__loggerFxn2__C)
                  c0ae9560    00000004     bk_fr_c6748_pe674.oe674 (.const:ti_sysbios_knl_Clock_Module__loggerObj__C)
                  c0ae9564    00000004     bk_fr_c6748_pe674.oe674 (.const:ti_sysbios_knl_Clock_tickMode__C)
                  c0ae9568    00000004     bk_fr_c6748_pe674.oe674 (.const:ti_sysbios_knl_Clock_tickPeriod__C)
                  c0ae956c    00000004     bk_fr_c6748_pe674.oe674 (.const:ti_sysbios_knl_Clock_tickSource__C)
                  c0ae9570    00000004     bk_fr_c6748_pe674.oe674 (.const:ti_sysbios_knl_Semaphore_A_badContext__C)
                  c0ae9574    00000004     bk_fr_c6748_pe674.oe674 (.const:ti_sysbios_knl_Semaphore_A_noEvents__C)
                  c0ae9578    00000004     bk_fr_c6748_pe674.oe674 (.const:ti_sysbios_knl_Semaphore_A_overflow__C)
                  c0ae957c    00000004     bk_fr_c6748_pe674.oe674 (.const:ti_sysbios_knl_Semaphore_Instance_State_pendQ__O)
                  c0ae9580    00000004     bk_fr_c6748_pe674.oe674 (.const:ti_sysbios_knl_Semaphore_LM_pend__C)
                  c0ae9584    00000004     bk_fr_c6748_pe674.oe674 (.const:ti_sysbios_knl_Semaphore_LM_post__C)
                  c0ae9588    00000004     bk_fr_c6748_pe674.oe674 (.const:ti_sysbios_knl_Semaphore_Module__diagsEnabled__C)
                  c0ae958c    00000004     bk_fr_c6748_pe674.oe674 (.const:ti_sysbios_knl_Semaphore_Module__diagsIncluded__C)
                  c0ae9590    00000004     bk_fr_c6748_pe674.oe674 (.const:ti_sysbios_knl_Semaphore_Module__diagsMask__C)
                  c0ae9594    00000004     bk_fr_c6748_pe674.oe674 (.const:ti_sysbios_knl_Semaphore_Module__loggerFxn2__C)
                  c0ae9598    00000004     bk_fr_c6748_pe674.oe674 (.const:ti_sysbios_knl_Semaphore_Module__loggerFxn4__C)
                  c0ae959c    00000004     bk_fr_c6748_pe674.oe674 (.const:ti_sysbios_knl_Semaphore_Module__loggerObj__C)
                  c0ae95a0    00000004     bk_fr_c6748_pe674.oe674 (.const:ti_sysbios_knl_Swi_A_badPriority__C)
                  c0ae95a4    00000004     bk_fr_c6748_pe674.oe674 (.const:ti_sysbios_knl_Swi_LD_end__C)
                  c0ae95a8    00000004     bk_fr_c6748_pe674.oe674 (.const:ti_sysbios_knl_Swi_LM_begin__C)
                  c0ae95ac    00000004     bk_fr_c6748_pe674.oe674 (.const:ti_sysbios_knl_Swi_LM_post__C)
                  c0ae95b0    00000004     bk_fr_c6748_pe674.oe674 (.const:ti_sysbios_knl_Swi_Module__diagsEnabled__C)
                  c0ae95b4    00000004     bk_fr_c6748_pe674.oe674 (.const:ti_sysbios_knl_Swi_Module__diagsIncluded__C)
                  c0ae95b8    00000004     bk_fr_c6748_pe674.oe674 (.const:ti_sysbios_knl_Swi_Module__diagsMask__C)
                  c0ae95bc    00000004     bk_fr_c6748_pe674.oe674 (.const:ti_sysbios_knl_Swi_Module__loggerFxn1__C)
                  c0ae95c0    00000004     bk_fr_c6748_pe674.oe674 (.const:ti_sysbios_knl_Swi_Module__loggerFxn4__C)
                  c0ae95c4    00000004     bk_fr_c6748_pe674.oe674 (.const:ti_sysbios_knl_Swi_Module__loggerObj__C)
                  c0ae95c8    00000004     bk_fr_c6748_pe674.oe674 (.const:ti_sysbios_knl_Swi_Object__count__C)
                  c0ae95cc    00000004     bk_fr_c6748_pe674.oe674 (.const:ti_sysbios_knl_Task_A_badPriority__C)
                  c0ae95d0    00000004     bk_fr_c6748_pe674.oe674 (.const:ti_sysbios_knl_Task_A_badTaskState__C)
                  c0ae95d4    00000004     bk_fr_c6748_pe674.oe674 (.const:ti_sysbios_knl_Task_A_badThreadType__C)
                  c0ae95d8    00000004     bk_fr_c6748_pe674.oe674 (.const:ti_sysbios_knl_Task_A_badTimeout__C)
                  c0ae95dc    00000004     bk_fr_c6748_pe674.oe674 (.const:ti_sysbios_knl_Task_A_noPendElem__C)
                  c0ae95e0    00000004     bk_fr_c6748_pe674.oe674 (.const:ti_sysbios_knl_Task_E_deleteNotAllowed__C)
                  c0ae95e4    00000004     bk_fr_c6748_pe674.oe674 (.const:ti_sysbios_knl_Task_E_spOutOfBounds__C)
                  c0ae95e8    00000004     bk_fr_c6748_pe674.oe674 (.const:ti_sysbios_knl_Task_E_stackOverflow__C)
                  c0ae95ec    00000004     bk_fr_c6748_pe674.oe674 (.const:ti_sysbios_knl_Task_LD_block__C)
                  c0ae95f0    00000004     bk_fr_c6748_pe674.oe674 (.const:ti_sysbios_knl_Task_LD_exit__C)
                  c0ae95f4    00000004     bk_fr_c6748_pe674.oe674 (.const:ti_sysbios_knl_Task_LD_ready__C)
                  c0ae95f8    00000004     bk_fr_c6748_pe674.oe674 (.const:ti_sysbios_knl_Task_LM_setPri__C)
                  c0ae95fc    00000004     bk_fr_c6748_pe674.oe674 (.const:ti_sysbios_knl_Task_LM_sleep__C)
                  c0ae9600    00000004     bk_fr_c6748_pe674.oe674 (.const:ti_sysbios_knl_Task_LM_switch__C)
                  c0ae9604    00000004     bk_fr_c6748_pe674.oe674 (.const:ti_sysbios_knl_Task_Module_State_inactiveQ__O)
                  c0ae9608    00000004     bk_fr_c6748_pe674.oe674 (.const:ti_sysbios_knl_Task_Module_State_terminatedQ__O)
                  c0ae960c    00000004     bk_fr_c6748_pe674.oe674 (.const:ti_sysbios_knl_Task_Module__diagsEnabled__C)
                  c0ae9610    00000004     bk_fr_c6748_pe674.oe674 (.const:ti_sysbios_knl_Task_Module__diagsIncluded__C)
                  c0ae9614    00000004     bk_fr_c6748_pe674.oe674 (.const:ti_sysbios_knl_Task_Module__diagsMask__C)
                  c0ae9618    00000004     bk_fr_c6748_pe674.oe674 (.const:ti_sysbios_knl_Task_Module__loggerFxn2__C)
                  c0ae961c    00000004     bk_fr_c6748_pe674.oe674 (.const:ti_sysbios_knl_Task_Module__loggerFxn4__C)
                  c0ae9620    00000004     bk_fr_c6748_pe674.oe674 (.const:ti_sysbios_knl_Task_Module__loggerObj__C)
                  c0ae9624    00000004     bk_fr_c6748_pe674.oe674 (.const:ti_sysbios_knl_Task_Object__count__C)
                  c0ae9628    00000004     bk_fr_c6748_pe674.oe674 (.const:ti_sysbios_knl_Task_Object__heap__C)
                  c0ae962c    00000004     bk_fr_c6748_pe674.oe674 (.const:ti_sysbios_knl_Task_allBlockedFunc__C)
                  c0ae9630    00000004     bk_fr_c6748_pe674.oe674 (.const:ti_sysbios_knl_Task_defaultStackHeap__C)
                  c0ae9634    00000004     bk_fr_c6748_pe674.oe674 (.const:ti_sysbios_knl_Task_defaultStackSize__C)
                  c0ae9638    00000004     bk_fr_c6748_pe674.oe674 (.const:ti_sysbios_knl_Task_numConstructedTasks__C)
                  c0ae963c    00000004     bk_fr_c6748_pe674.oe674 (.const:ti_sysbios_knl_Task_numPriorities__C)
                  c0ae9640    00000004     bk_fr_c6748_pe674.oe674 (.const:ti_sysbios_timers_timer64_Timer_A_notAvailable__C)
                  c0ae9644    00000004     bk_fr_c6748_pe674.oe674 (.const:ti_sysbios_timers_timer64_Timer_E_cannotSupport__C)
                  c0ae9648    00000004     bk_fr_c6748_pe674.oe674 (.const:ti_sysbios_timers_timer64_Timer_Module__diagsEnabled__C)
                  c0ae964c    00000004     bk_fr_c6748_pe674.oe674 (.const:ti_sysbios_timers_timer64_Timer_Module__diagsIncluded__C)
                  c0ae9650    00000004     bk_fr_c6748_pe674.oe674 (.const:ti_sysbios_timers_timer64_Timer_Module__diagsMask__C)
                  c0ae9654    00000004     bk_fr_c6748_pe674.oe674 (.const:ti_sysbios_timers_timer64_Timer_anyMask__C)
                  c0ae9658    00000004     bk_fr_c6748_pe674.oe674 (.const:ti_sysbios_timers_timer64_Timer_freqDivisor__C)
                  c0ae965c    00000004     bk_fr_c6748_pe674.oe674 (.const:ti_sysbios_timers_timer64_Timer_numLocalTimers__C)
                  c0ae9660    00000004     bk_fr_c6748_pe674.oe674 (.const:ti_sysbios_timers_timer64_Timer_numTimerDevices__C)
                  c0ae9664    00000004     bk_fr_c6748_pe674.oe674 (.const:ti_sysbios_xdcruntime_SemThreadSupport_Instance_State_sem__O)
                  c0ae9668    00000004     bk_fr_c6748_pe674.oe674 (.const:xdc_runtime_Assert_E_assertFailed__C)
                  c0ae966c    00000004     bk_fr_c6748_pe674.oe674 (.const:xdc_runtime_Core_A_initializedParams__C)
                  c0ae9670    00000004     bk_fr_c6748_pe674.oe674 (.const:xdc_runtime_Core_Module__diagsEnabled__C)
                  c0ae9674    00000004     bk_fr_c6748_pe674.oe674 (.const:xdc_runtime_Core_Module__diagsIncluded__C)
                  c0ae9678    00000004     bk_fr_c6748_pe674.oe674 (.const:xdc_runtime_Core_Module__diagsMask__C)
                  c0ae967c    00000004     bk_fr_c6748_pe674.oe674 (.const:xdc_runtime_Error_E_generic__C)
                  c0ae9680    00000004     bk_fr_c6748_pe674.oe674 (.const:xdc_runtime_Error_E_memory__C)
                  c0ae9684    00000004     bk_fr_c6748_pe674.oe674 (.const:xdc_runtime_Error_Module__diagsEnabled__C)
                  c0ae9688    00000004     bk_fr_c6748_pe674.oe674 (.const:xdc_runtime_Error_Module__diagsIncluded__C)
                  c0ae968c    00000004     bk_fr_c6748_pe674.oe674 (.const:xdc_runtime_Error_Module__diagsMask__C)
                  c0ae9690    00000004     bk_fr_c6748_pe674.oe674 (.const:xdc_runtime_Error_Module__loggerFxn8__C)
                  c0ae9694    00000004     bk_fr_c6748_pe674.oe674 (.const:xdc_runtime_Error_Module__loggerObj__C)
                  c0ae9698    00000004     bk_fr_c6748_pe674.oe674 (.const:xdc_runtime_Error_policy__C)
                  c0ae969c    00000004     bk_fr_c6748_pe674.oe674 (.const:xdc_runtime_Error_raiseHook__C)
                  c0ae96a0    00000004     bk_fr_c6748_pe674.oe674 (.const:xdc_runtime_IGateProvider_Interface__BASE__C)
                  c0ae96a4    00000004     bk_fr_c6748_pe674.oe674 (.const:xdc_runtime_IHeap_Interface__BASE__C)
                  c0ae96a8    00000004     bk_fr_c6748_pe674.oe674 (.const:xdc_runtime_IModule_Interface__BASE__C)
                  c0ae96ac    00000004     bk_fr_c6748_pe674.oe674 (.const:xdc_runtime_Log_L_error__C)
                  c0ae96b0    00000004     bk_fr_c6748_pe674.oe674 (.const:xdc_runtime_LoggerBuf_Object__count__C)
                  c0ae96b4    00000004     bk_fr_c6748_pe674.oe674 (.const:xdc_runtime_Main_Module__diagsEnabled__C)
                  c0ae96b8    00000004     bk_fr_c6748_pe674.oe674 (.const:xdc_runtime_Main_Module__diagsIncluded__C)
                  c0ae96bc    00000004     bk_fr_c6748_pe674.oe674 (.const:xdc_runtime_Main_Module__diagsMask__C)
                  c0ae96c0    00000004     bk_fr_c6748_pe674.oe674 (.const:xdc_runtime_Main_Module__loggerFxn4__C)
                  c0ae96c4    00000004     bk_fr_c6748_pe674.oe674 (.const:xdc_runtime_Main_Module__loggerObj__C)
                  c0ae96c8    00000004     bk_fr_c6748_pe674.oe674 (.const:xdc_runtime_Memory_defaultHeapInstance__C)
                  c0ae96cc    00000004     bk_fr_c6748_pe674.oe674 (.const:xdc_runtime_Startup_execImpl__C)
                  c0ae96d0    00000004     bk_fr_c6748_pe674.oe674 (.const:xdc_runtime_Startup_lastFxns__A)
                  c0ae96d4    00000004     bk_fr_c6748_pe674.oe674 (.const:xdc_runtime_Startup_maxPasses__C)
                  c0ae96d8    00000004     bk_fr_c6748_pe674.oe674 (.const:xdc_runtime_Startup_sfxnRts__C)
                  c0ae96dc    00000004     bk_fr_c6748_pe674.oe674 (.const:xdc_runtime_Startup_sfxnTab__C)
                  c0ae96e0    00000004     bk_fr_c6748_pe674.oe674 (.const:xdc_runtime_System_Module__gateObj__C)
                  c0ae96e4    00000004     bk_fr_c6748_pe674.oe674 (.const:xdc_runtime_System_extendFxn__C)
                  c0ae96e8    00000004     bk_fr_c6748_pe674.oe674 (.const:xdc_runtime_System_maxAtexitHandlers__C)
                  c0ae96ec    00000004     bk_fr_c6748_pe674.oe674 (.const:xdc_runtime_Text_charTab__C)
                  c0ae96f0    00000004     bk_fr_c6748_pe674.oe674 (.const:xdc_runtime_Text_nameEmpty__C)
                  c0ae96f4    00000004     bk_fr_c6748_pe674.oe674 (.const:xdc_runtime_Text_nameStatic__C)
                  c0ae96f8    00000004     bk_fr_c6748_pe674.oe674 (.const:xdc_runtime_Text_nameUnknown__C)
                  c0ae96fc    00000004     bk_fr_c6748_pe674.oe674 (.const:xdc_runtime_Text_nodeTab__C)
                  c0ae9700    00000004     bk_fr_c6748_pe674.oe674 (.const:xdc_runtime_Text_visitRopeFxn__C)
                  c0ae9704    00000004     bk_fr_c6748_pe674.oe674 (.const:xdc_runtime_knl_ISemaphore_Interface__BASE__C)
                  c0ae9708    00000004     bk_fr_c6748_pe674.oe674 (.const:xdc_runtime_knl_ISync_Interface__BASE__C)
                  c0ae970c    00000002     bk_fr_c6748_pe674.oe674 (.const:ti_sysbios_BIOS_Module__id__C)
                  c0ae970e    00000002     --HOLE-- [fill = 0]
                  c0ae9710    00000002     bk_fr_c6748_pe674.oe674 (.const:ti_sysbios_family_c64p_EventCombiner_Module__id__C)
                  c0ae9712    00000002     --HOLE-- [fill = 0]
                  c0ae9714    00000002     bk_fr_c6748_pe674.oe674 (.const:ti_sysbios_family_c64p_Exception_Module__id__C)
                  c0ae9716    00000002     --HOLE-- [fill = 0]
                  c0ae9718    00000002     bk_fr_c6748_pe674.oe674 (.const:ti_sysbios_family_c64p_Hwi_Module__id__C)
                  c0ae971a    00000002     --HOLE-- [fill = 0]
                  c0ae971c    00000002     bk_fr_c6748_pe674.oe674 (.const:ti_sysbios_family_c64p_Hwi_Module__loggerDefined__C)
                  c0ae971e    00000002     --HOLE-- [fill = 0]
                  c0ae9720    00000002     bk_fr_c6748_pe674.oe674 (.const:ti_sysbios_gates_GateMutex_Module__id__C)
                  c0ae9722    00000002     --HOLE-- [fill = 0]
                  c0ae9724    00000002     bk_fr_c6748_pe674.oe674 (.const:ti_sysbios_hal_Hwi_Module__id__C)
                  c0ae9726    00000002     --HOLE-- [fill = 0]
                  c0ae9728    00000002     bk_fr_c6748_pe674.oe674 (.const:ti_sysbios_heaps_HeapMem_Module__id__C)
                  c0ae972a    00000002     --HOLE-- [fill = 0]
                  c0ae972c    00000002     bk_fr_c6748_pe674.oe674 (.const:ti_sysbios_io_DEV_Module__id__C)
                  c0ae972e    00000002     --HOLE-- [fill = 0]
                  c0ae9730    00000002     bk_fr_c6748_pe674.oe674 (.const:ti_sysbios_io_GIO_Module__id__C)
                  c0ae9732    00000002     --HOLE-- [fill = 0]
                  c0ae9734    00000002     bk_fr_c6748_pe674.oe674 (.const:ti_sysbios_knl_Clock_Module__id__C)
                  c0ae9736    00000002     --HOLE-- [fill = 0]
                  c0ae9738    00000002     bk_fr_c6748_pe674.oe674 (.const:ti_sysbios_knl_Clock_Module__loggerDefined__C)
                  c0ae973a    00000002     --HOLE-- [fill = 0]
                  c0ae973c    00000002     bk_fr_c6748_pe674.oe674 (.const:ti_sysbios_knl_Semaphore_Module__id__C)
                  c0ae973e    00000002     --HOLE-- [fill = 0]
                  c0ae9740    00000002     bk_fr_c6748_pe674.oe674 (.const:ti_sysbios_knl_Semaphore_Module__loggerDefined__C)
                  c0ae9742    00000002     --HOLE-- [fill = 0]
                  c0ae9744    00000002     bk_fr_c6748_pe674.oe674 (.const:ti_sysbios_knl_Swi_Module__id__C)
                  c0ae9746    00000002     --HOLE-- [fill = 0]
                  c0ae9748    00000002     bk_fr_c6748_pe674.oe674 (.const:ti_sysbios_knl_Swi_Module__loggerDefined__C)
                  c0ae974a    00000002     --HOLE-- [fill = 0]
                  c0ae974c    00000002     bk_fr_c6748_pe674.oe674 (.const:ti_sysbios_knl_Task_Module__id__C)
                  c0ae974e    00000002     --HOLE-- [fill = 0]
                  c0ae9750    00000002     bk_fr_c6748_pe674.oe674 (.const:ti_sysbios_knl_Task_Module__loggerDefined__C)
                  c0ae9752    00000002     --HOLE-- [fill = 0]
                  c0ae9754    00000002     bk_fr_c6748_pe674.oe674 (.const:ti_sysbios_knl_Task_deleteTerminatedTasks__C)
                  c0ae9756    00000002     --HOLE-- [fill = 0]
                  c0ae9758    00000002     bk_fr_c6748_pe674.oe674 (.const:ti_sysbios_knl_Task_initStackFlag__C)
                  c0ae975a    00000002     --HOLE-- [fill = 0]
                  c0ae975c    00000002     bk_fr_c6748_pe674.oe674 (.const:ti_sysbios_timers_timer64_Timer_Module__id__C)
                  c0ae975e    00000002     --HOLE-- [fill = 0]
                  c0ae9760    00000002     bk_fr_c6748_pe674.oe674 (.const:ti_sysbios_timers_timer64_Timer_startupNeeded__C)
                  c0ae9762    00000002     --HOLE-- [fill = 0]
                  c0ae9764    00000002     bk_fr_c6748_pe674.oe674 (.const:xdc_runtime_Core_Module__id__C)
                  c0ae9766    00000002     --HOLE-- [fill = 0]
                  c0ae9768    00000002     bk_fr_c6748_pe674.oe674 (.const:xdc_runtime_Error_Module__loggerDefined__C)
                  c0ae976a    00000002     --HOLE-- [fill = 0]
                  c0ae976c    00000002     bk_fr_c6748_pe674.oe674 (.const:xdc_runtime_Error_maxDepth__C)
                  c0ae976e    00000002     --HOLE-- [fill = 0]
                  c0ae9770    00000002     bk_fr_c6748_pe674.oe674 (.const:xdc_runtime_Main_Module__id__C)
                  c0ae9772    00000002     --HOLE-- [fill = 0]
                  c0ae9774    00000002     bk_fr_c6748_pe674.oe674 (.const:xdc_runtime_Main_Module__loggerDefined__C)
                  c0ae9776    00000002     --HOLE-- [fill = 0]
                  c0ae9778    00000002     bk_fr_c6748_pe674.oe674 (.const:xdc_runtime_Memory_Module__id__C)
                  c0ae977a    00000002     --HOLE-- [fill = 0]
                  c0ae977c    00000002     bk_fr_c6748_pe674.oe674 (.const:xdc_runtime_Text_charCnt__C)
                  c0ae977e    00000002     --HOLE-- [fill = 0]
                  c0ae9780    00000002     bk_fr_c6748_pe674.oe674 (.const:xdc_runtime_Text_isLoaded__C)
                  c0ae9782    00000002     --HOLE-- [fill = 0]
                  c0ae9784    00000002     bk_fr_c6748_pe674.oe674 (.const:xdc_runtime_Text_registryModsLastId__C)
                  c0ae9786    00000002     --HOLE-- [fill = 0]
                  c0ae9788    00000002     bk_fr_c6748_pe674.oe674 (.const:xdc_runtime_Text_unnamedModsLastId__C)

.fardata   0    c0ae9790    00001cec     
                  c0ae9790    00000888     edma3_lld_rm.ae674 : edma3_c6748_cfg.oe674 (.fardata:edma3GblCfgParams)
                  c0aea018    00000640     bk_fr_c6748_pe674.oe674 (.fardata)
                  c0aea658    000001e0     rts6740_elf.lib : defs.obj (.fardata:_ftable)
                  c0aea838    0000017c     bk_fr_c6748_pe674.oe674 (.fardata:ti_sysbios_knl_Task_Object__table__V)
                  c0aea9b4    000000b4     stk6_ppp_pppoe.ae674 : exec.oe674 (.fardata)
                  c0aeaa68    000000a0     rts6740_elf.lib : lowlev.obj (.fardata:_stream)
                  c0aeab08    00000080     Tvp5150.obj (.fardata:decObj)
                  c0aeab88    00000080     bk_fr_c6748_pe674.oe674 (.fardata:ti_sysbios_knl_Swi_Module_State_0_readyQ__A)
                  c0aeac08    00000080     bk_fr_c6748_pe674.oe674 (.fardata:ti_sysbios_knl_Task_Module_State_0_readyQ__A)
                  c0aeac88    00000078     rts6740_elf.lib : lowlev.obj (.fardata:_device)
                  c0aead00    00000078     bk_fr_c6748_pe674.oe674 (.fardata:ti_sysbios_family_c64p_Hwi_Object__table__V)
                  c0aead78    00000064     Adv7391.obj (.fardata)
                  c0aeaddc    00000004     I2c.obj (.fardata)
                  c0aeade0    00000060     bk_fr_c6748_pe674.oe674 (.fardata:ti_sysbios_timers_timer64_Timer_Module_State_0_device__A)
                  c0aeae40    00000050     stk6_ppp_pppoe.ae674 : exec.oe674 (.fardata:tasks)
                  c0aeae90    0000004d     nettool.ae674 : dhcptags.oe674 (.fardata:DHCPTypeCode)
                  c0aeaedd    00000003     --HOLE--
                  c0aeaee0    0000004c     bk_fr_c6748_pe674.oe674 (.fardata:ti_sysbios_timers_timer64_Timer_Object__table__V)
                  c0aeaf2c    00000004     rts6740_elf.lib : defs.obj (.fardata)
                  c0aeaf30    00000040     netctrl.ae674 : netsrv.oe674 (.fardata:CloseOrder)
                  c0aeaf70    00000040                   : netsrv.oe674 (.fardata:OpenOrder)
                  c0aeafb0    00000040     stk6_ppp_pppoe.ae674 : md5.oe674 (.fardata:PADDING)
                  c0aeaff0    00000040     edma3_lld_drv_sample.ae674 : sample_c6748_cfg.oe674 (.fardata:ccXferCompInt)
                  c0aeb030    00000040     nettool.ae674 : httpsend.oe674 (.fardata:codestr)
                  c0aeb070    00000040     os.ae674 : intmgmt.oe674 (.fardata:hwiTable)
                  c0aeb0b0    00000040     edma3_lld_drv_sample.ae674 : sample_c6748_cfg.oe674 (.fardata:tcErrorInt)
                  c0aeb0f0    00000040     bk_fr_c6748_pe674.oe674 (.fardata:ti_sysbios_gates_GateMutex_Object__table__V)
                  c0aeb130    00000034     stk6_ppp_pppoe.ae674 : tcp6time.oe674 (.fardata:tcp_backoff)
                  c0aeb164    00000004     rts6740_elf.lib : dtor_list.obj (.fardata)
                  c0aeb168    00000034     stk6_ppp_pppoe.ae674 : tcptime.oe674 (.fardata:tcp_backoff)
                  c0aeb19c    00000004     rts6740_elf.lib : errno.obj (.fardata)
                  c0aeb1a0    00000030     bk_fr_c6748_pe674.oe674 (.fardata:ti_sysbios_io_DEV_Object__table__V)
                  c0aeb1d0    00000030     bk_fr_c6748_pe674.oe674 (.fardata:ti_sysbios_knl_Swi_Object__table__V)
                  c0aeb200    00000024     os.ae674 : ossys.oe674 (.fardata)
                  c0aeb224    00000020     Tvp5150.obj (.fardata)
                  c0aeb244    00000004     --HOLE--
                  c0aeb248    00000020     stk6_ppp_pppoe.ae674 : rtc.oe674 (.fardata:pstrMsgName)
                  c0aeb268    00000020     bk_fr_c6748_pe674.oe674 (.fardata:ti_sysbios_io_DEV_Module_State_0_table__A)
                  c0aeb288    00000020     bk_fr_c6748_pe674.oe674 (.fardata:ti_sysbios_timers_timer64_Timer_Module_State_0_gctrl__A)
                  c0aeb2a8    00000020     bk_fr_c6748_pe674.oe674 (.fardata:ti_sysbios_timers_timer64_Timer_Module_State_0_handles__A)
                  c0aeb2c8    00000020     bk_fr_c6748_pe674.oe674 (.fardata:ti_sysbios_timers_timer64_Timer_Module_State_0_intFreqs__A)
                  c0aeb2e8    00000020     bk_fr_c6748_pe674.oe674 (.fardata:xdc_runtime_System_Module_State_0_atexitHandlers__A)
                  c0aeb308    0000001c     Vpif.obj (.fardata)
                  c0aeb324    00000004     --HOLE--
                  c0aeb328    0000001c     os.ae674 : mem_data.oe674 (.fardata:ti_ndk_config_Global_Id2Size)
                  c0aeb344    00000004     --HOLE--
                  c0aeb348    00000018     ti.drv.omapl138.ae674 : csl_mdio.oe674 (.fardata:PhyStateTimeout)
                  c0aeb360    00000018     edma3_lld_rm.ae674 : edma3resmgr.oe674 (.fardata:allocatedTCCs)
                  c0aeb378    00000018     bk_fr_c6748_pe674.oe674 (.fardata:ti_sysbios_heaps_HeapMem_Object__table__V)
                  c0aeb390    00000014     emacHooks.obj (.fardata:LinkStr)
                  c0aeb3a4    00000004     --HOLE--
                  c0aeb3a8    00000014     stk6_ppp_pppoe.ae674 : sock6pcb.oe674 (.fardata:pSockList)
                  c0aeb3bc    00000004     --HOLE--
                  c0aeb3c0    00000014                          : sockpcb.oe674 (.fardata:pSockList)
                  c0aeb3d4    00000004     --HOLE--
                  c0aeb3d8    00000010     Vpif.obj (.fardata:vpifConfigParams)
                  c0aeb3e8    0000000c     rts6740_elf.lib : exit.obj (.fardata)
                  c0aeb3f4    00000004     --HOLE--
                  c0aeb3f8    0000000b     stk6_ppp_pppoe.ae674 : tcp6out.oe674 (.fardata:tcp_outflags)
                  c0aeb403    00000005     --HOLE--
                  c0aeb408    0000000b                          : tcpout.oe674 (.fardata:tcp_outflags)
                  c0aeb413    00000005     --HOLE--
                  c0aeb418    00000008     ti.drv.omapl138.ae674 : nimu_eth.oe674 (.fardata:NIMUDeviceTable)
                  c0aeb420    00000008     emacHooks.obj (.fardata:bMacAddr)
                  c0aeb428    00000008     edma3_lld_drv_sample.ae674 : sample_c6748_cfg.oe674 (.fardata:ccErrorInt)
                  c0aeb430    00000008     rts6740_elf.lib : _lock.obj (.fardata)
                  c0aeb438    00000008     bk_fr_c6748_pe674.oe674 (.fardata:ti_sysbios_family_c64p_primus_TimerSupport_Module_State_0_suspSrc__A)
                  c0aeb440    00000008     bk_fr_c6748_pe674.oe674 (.fardata:ti_sysbios_hal_Hwi_Object__table__V)
                  c0aeb448    00000008     bk_fr_c6748_pe674.oe674 (.fardata:ti_sysbios_hal_Timer_Object__table__V)
                  c0aeb450    00000006     stk6_ppp_pppoe.ae674 : nimupppoe.oe674 (.fardata:MacBCast)
                  c0aeb456    00000002     --HOLE--
                  c0aeb458    00000006                          : lliout.oe674 (.fardata:bEtherBCast)
                  c0aeb45e    00000002     --HOLE--
                  c0aeb460    00000006     ti.drv.omapl138.ae674 : ethdriver.oe674 (.fardata:bMacAddr)
                  c0aeb466    00000002     --HOLE--
                  c0aeb468    00000004     Vpif.obj (.fardata:channelFirstInt)
                  c0aeb46c    00000004     --HOLE--
                  c0aeb470    00000004     bk_fr_c6748_pe674.oe674 (.fardata:ti_sysbios_gates_GateHwi_Object__table__V)
                  c0aeb474    00000004     --HOLE--
                  c0aeb478    00000004     bk_fr_c6748_pe674.oe674 (.fardata:ti_sysbios_knl_Task_Module_State_0_idleTask__A)

.switch.1 
*          0    c0aeb47c    0000037c     
                  c0aeb47c    00000060     nettool.ae674 : telnetd.oe674 (.switch:telnet_netdata)
                  c0aeb4dc    0000003c     stk6_ppp_pppoe.ae674 : sock.oe674 (.switch:SockSet)
                  c0aeb518    00000038                          : icmpin.oe674 (.switch:ICMPInput)
                  c0aeb550    00000038                          : icmpv6in.oe674 (.switch:ICMPv6RxPacket)
                  c0aeb588    00000034                          : rawethsock.oe674 (.switch:RawEthSockSet)
                  c0aeb5bc    0000002c                          : sock6.oe674 (.switch:Sock6Set)
                  c0aeb5e8    00000028                          : lcp.oe674 (.switch:lcpInput)
                  c0aeb610    00000020                          : tcp6prot.oe674 (.switch:TCP6PrSetOption)
                  c0aeb630    00000020                          : tcpprot.oe674 (.switch:TcpPrSetOption)
                  c0aeb650    00000020     I2c.obj (.switch:i2cIntrHandler)
                  c0aeb670    00000020     stk6_ppp_pppoe.ae674 : ipcp.oe674 (.switch:ipcpInput)
                  c0aeb690    00000020     Vpif.obj (.switch:vpifEnableChannel)
                  c0aeb6b0    0000001c     stk6_ppp_pppoe.ae674 : sock6int.oe674 (.switch:Sock6Notify)
                  c0aeb6cc    0000001c                          : sockint.oe674 (.switch:SockNotify)
                  c0aeb6e8    0000001c     nettool.ae674 : dhcpsm.oe674 (.switch:dhcpState)
                  c0aeb704    00000018     stk6_ppp_pppoe.ae674 : nimuppp.oe674 (.switch:pppEvent)
                  c0aeb71c    00000014                          : icmpv6in.oe674 (.switch:ICMPv6RecvDstUnreachable)
                  c0aeb730    00000014                          : lli6.oe674 (.switch:LLI6TimerCheck)
                  c0aeb744    00000014     ti.drv.omapl138.ae674 : csl_mdio.oe674 (.switch:MDIO_timerTick)
                  c0aeb758    00000014     stk6_ppp_pppoe.ae674 : nimu.oe674 (.switch:NIMUIoctl)
                  c0aeb76c    00000014     edma3_lld_drv_sample.ae674 : sample_cs.oe674 (.switch:edma3OsProtectEntry)
                  c0aeb780    00000014                                : sample_cs.oe674 (.switch:edma3OsProtectExit)
                  c0aeb794    00000014     stk6_ppp_pppoe.ae674 : lcp.oe674 (.switch:lcpSendCfg)
                  c0aeb7a8    00000010     edma3_lld_rm.ae674 : edma3resmgr.oe674 (.switch:EDMA3_RM_allocResource)
                  c0aeb7b8    00000010                        : edma3resmgr.oe674 (.switch:EDMA3_RM_freeResource)
                  c0aeb7c8    00000010     stk6_ppp_pppoe.ae674 : ipv6_exthdrs.oe674 (.switch:IPv6ParseHopOptions)
                  c0aeb7d8    00000010                          : auth.oe674 (.switch:chapInput)
                  c0aeb7e8    00000010     nettool.ae674 : inetaddr.oe674 (.switch:inet_aton)

.vecs      0    c0aeb800    00000200     
                  c0aeb800    00000200     bk_fr_c6748_pe674.oe674 (.vecs)

.switch.2 
*          0    c0aeba00    000000a0     
                  c0aeba00    00000010     stk6_ppp_pppoe.ae674 : ipcp.oe674 (.switch:ipcpSendCfg)
                  c0aeba10    00000010                          : nimupppoe.oe674 (.switch:pppoeCtrlMsg)
                  c0aeba20    00000010     Vpif.obj (.switch:vpifChannelIntrEnable)
                  c0aeba30    00000010     Vpif.obj (.switch:vpifGetFieldId)
                  c0aeba40    00000010     Vpif.obj (.switch:vpifMdBindDev)
                  c0aeba50    00000010     Vpif.obj (.switch:vpifMdCreateChan)
                  c0aeba60    00000010     Vpif.obj (.switch:vpifProcessErrFrm)
                  c0aeba70    00000010     Vpif.obj (.switch:vpifSetRawParams)
                  c0aeba80    00000010     Vpif.obj (.switch:vpifSetResolution)
                  c0aeba90    00000010     Vpif.obj (.switch:vpifSetVideoParams)

.bss       0    c0aebaa0    000000b8     UNINITIALIZED
                  c0aebaa0    00000028     fr_main.obj (.bss)
                  c0aebac8    00000024     CodecInterface.obj (.bss)
                  c0aebaec    00000018     hal_timer_bios.ae674 : lltimer.oe674 (.bss)
                  c0aebb04    00000014     stk6_ppp_pppoe.ae674 : igmp.oe674 (.bss)
                  c0aebb18    00000008     edma3_lld_drv_sample.ae674 : sample_init.oe674 (.bss)
                  c0aebb20    00000008     netctrl.ae674 : netctrl.oe674 (.bss)
                  c0aebb28    00000008     nettool.ae674 : daemon.oe674 (.bss)
                  c0aebb30    00000008     stk6_ppp_pppoe.ae674 : ip.oe674 (.bss)
                  c0aebb38    00000008                          : nimupppoe.oe674 (.bss)
                  c0aebb40    00000004     nettool.ae674 : ipaddr.oe674 (.bss)
                  c0aebb44    00000004     scom.obj (.bss)
                  c0aebb48    00000004     stk6_ppp_pppoe.ae674 : ipv6_frag.oe674 (.bss)
                  c0aebb4c    00000004                          : lli6.oe674 (.bss)
                  c0aebb50    00000004                          : rtable.oe674 (.bss)
                  c0aebb54    00000004     ti.drv.omapl138.ae674 : ethdriver.oe674 (.bss)

.neardata 
*          0    c0aebb58    00000224     
                  c0aebb58    00000044     nettool.ae674 : httpstr.oe674 (.neardata)
                  c0aebb9c    0000002c     fr_uart.obj (.neardata)
                  c0aebbc8    00000028     networkmain.obj (.neardata)
                  c0aebbf0    00000024     os.ae674 : mem.oe674 (.neardata)
                  c0aebc14    00000020     ti.drv.omapl138.ae674 : ethdriver.oe674 (.neardata)
                  c0aebc34    00000018     netctrl.ae674 : netctrl.oe674 (.neardata)
                  c0aebc4c    00000018     os.ae674 : task.oe674 (.neardata)
                  c0aebc64    00000014     stk6_ppp_pppoe.ae674 : rtable.oe674 (.neardata)
                  c0aebc78    00000010     edma3_lld_rm.ae674 : edma3_rm_gbl_data.oe674 (.neardata)
                  c0aebc88    00000010     nettool.ae674 : daemon.oe674 (.neardata)
                  c0aebc98    00000010     stk6_ppp_pppoe.ae674 : bind6.oe674 (.neardata)
                  c0aebca8    00000010                          : igmp.oe674 (.neardata)
                  c0aebcb8    00000010     ti.drv.omapl138.ae674 : csl_emac.oe674 (.neardata)
                  c0aebcc8    0000000c     stk6_ppp_pppoe.ae674 : route6.oe674 (.neardata)
                  c0aebcd4    0000000a     edma3_lld_rm.ae674 : edma3resmgr.oe674 (.neardata)
                  c0aebcde    00000002     --HOLE-- [fill = 0]
                  c0aebce0    00000008     CodecInterface.obj (.neardata)
                  c0aebce8    00000008     stk6_ppp_pppoe.ae674 : exec.oe674 (.neardata)
                  c0aebcf0    00000008                          : icmp.oe674 (.neardata)
                  c0aebcf8    00000008                          : ip.oe674 (.neardata)
                  c0aebd00    00000008                          : ipin.oe674 (.neardata)
                  c0aebd08    00000008                          : ipv6_frag.oe674 (.neardata)
                  c0aebd10    00000008                          : lli.oe674 (.neardata)
                  c0aebd18    00000008                          : nimupppoe.oe674 (.neardata)
                  c0aebd20    00000008                          : rtc.oe674 (.neardata)
                  c0aebd28    00000008                          : tcp.oe674 (.neardata)
                  c0aebd30    00000008                          : tcp6.oe674 (.neardata)
                  c0aebd38    00000008                          : timer.oe674 (.neardata)
                  c0aebd40    00000004     back_taskImageInput.obj (.neardata)
                  c0aebd44    00000004     hal_timer_bios.ae674 : lltimer.oe674 (.neardata)
                  c0aebd48    00000004     netctrl.ae674 : netsrv.oe674 (.neardata)
                  c0aebd4c    00000004     nettool.ae674 : config.oe674 (.neardata)
                  c0aebd50    00000004                   : httpsend.oe674 (.neardata)
                  c0aebd54    00000004     os.ae674 : efs.oe674 (.neardata)
                  c0aebd58    00000004     stk6_ppp_pppoe.ae674 : bind.oe674 (.neardata)
                  c0aebd5c    00000004                          : ipfrag.oe674 (.neardata)
                  c0aebd60    00000004                          : lli6.oe674 (.neardata)
                  c0aebd64    00000004                          : mld.oe674 (.neardata)
                  c0aebd68    00000004                          : node.oe674 (.neardata)
                  c0aebd6c    00000004                          : pbm.oe674 (.neardata)
                  c0aebd70    00000004                          : sock6pcb.oe674 (.neardata)
                  c0aebd74    00000004                          : sockpcb.oe674 (.neardata)
                  c0aebd78    00000004     ti.drv.omapl138.ae674 : csl_mdio.oe674 (.neardata)

.rodata    0    c0aebd7c    00000040     
                  c0aebd7c    00000024     stk6_ppp_pppoe.ae674 : ipv6.oe674 (.rodata)
                  c0aebda0    00000010     os.ae674 : mem_data.oe674 (.rodata)
                  c0aebdb0    00000008     stk6_ppp_pppoe.ae674 : pbm_data.oe674 (.rodata)
                  c0aebdb8    00000004     edma3_lld_rm.ae674 : edma3_rm_gbl_data.oe674 (.rodata)

.cio       0    c0aebdbc    00000120     UNINITIALIZED
                  c0aebdbc    00000120     rts6740_elf.lib : trgmsg.obj (.cio)

.cinit     0    c0aebedc    0000129c     
                  c0aebedc    00001159     (.cinit..fardata.load) [load image, compression = rle]
                  c0aed035    00000003     --HOLE-- [fill = 0]
                  c0aed038    000000b6     (.cinit..neardata.load) [load image, compression = rle]
                  c0aed0ee    00000002     --HOLE-- [fill = 0]
                  c0aed0f0    00000044     (.cinit..rodata.load) [load image, compression = rle]
                  c0aed134    0000000c     (__TI_handler_table)
                  c0aed140    00000008     (.cinit..bss.load) [load image, compression = zero_init]
                  c0aed148    00000008     (.cinit..far.load) [load image, compression = zero_init]
                  c0aed150    00000028     (__TI_cinit_table)

my_boot_sect 
*          0    c3000000    00000040     
                  c3000000    00000020     myboot.obj (my_boot_sect)
                  c3000020    00000020     boot.ae674 : boot.oe674 ($Tramp$S$$_c_int00)


LINKER GENERATED COPY TABLES

__TI_cinit_table @ c0aed150 records: 5, size/record: 8, table size: 40
	.fardata: load addr=c0aebedc, load size=00001159 bytes, run addr=c0ae9790, run size=00001cec bytes, compression=rle
	.neardata: load addr=c0aed038, load size=000000b6 bytes, run addr=c0aebb58, run size=00000224 bytes, compression=rle
	.rodata: load addr=c0aed0f0, load size=00000044 bytes, run addr=c0aebd7c, run size=00000040 bytes, compression=rle
	.bss: load addr=c0aed140, load size=00000008 bytes, run addr=c0aebaa0, run size=000000b8 bytes, compression=zero_init
	.far: load addr=c0aed148, load size=00000008 bytes, run addr=c0200000, run size=00876950 bytes, compression=zero_init


LINKER GENERATED HANDLER TABLE

__TI_handler_table @ c0aed134 records: 3, size/record: 4, table size: 12
	index: 0, handler: __TI_zero_init
	index: 1, handler: __TI_decompress_rle24
	index: 2, handler: __TI_decompress_none


FAR CALL TRAMPOLINES

callee name               trampoline name
   callee addr  tramp addr   call addr  call info
--------------  -----------  ---------  ----------------
$.text:_c_int00:boot.ae674<boot.oe674>$0x0  $Tramp$S$$_c_int00
   c0ad5860     c3000020     c3000000   myboot.obj (my_boot_sect)

[1 trampolines]
[1 trampoline calls]


GLOBAL SYMBOLS: SORTED ALPHABETICALLY BY Name 

address    name
--------   ----
c0aead78   ADV7391_Fxns
c0ac86c0   Bind6DADCheck
c0adbd20   Bind6FindByHost
c0ad92c0   Bind6FindByIF
c0adbd60   Bind6FindByNet
c0ac5740   Bind6Free
c0ac15a0   Bind6GetGlobalAddress
c0add3e0   Bind6GetInterfaceHandle
c0add400   Bind6GetLifetime
c0acdfc0   Bind6GetLinkLocalAddress
c0ad9320   Bind6IF2IPHost
c0abf860   Bind6Msg
c0aa0180   Bind6New
c0add420   Bind6SetLifetime
c0ad9380   BindFindByHost
c0ad93e0   BindFindByIF
c0ad9440   BindFindByNet
c0ac8900   BindFree
c0add440   BindGetFirst
c0add460   BindGetIF
c0ad94a0   BindGetIFByDBCast
c0adbda0   BindGetIP
c0add480   BindGetNext
c0ad9500   BindIF2IPHost
c0add4a0   BindIFNet2IPHost
c0add4c0   BindIPHost2IF
c0aaeb80   BindNew
c0a766d8   BlockCount
c0a766b8   BlockMax
c0adde20   C$$EXIT
c0adb958   C$$IO$$
c0aebb88   CONTENT_LENGTH
c0aebb84   CONTENT_TYPE
c0aebb58   CONTENT_TYPE_APPLET
c0aebb5c   CONTENT_TYPE_AU
c0aebb60   CONTENT_TYPE_CSS
c0aebb64   CONTENT_TYPE_DOC
c0aebb68   CONTENT_TYPE_GIF
c0aebb6c   CONTENT_TYPE_HTML
c0aebb70   CONTENT_TYPE_JPG
c0aebb74   CONTENT_TYPE_MPEG
c0aebb78   CONTENT_TYPE_PDF
c0aebb7c   CONTENT_TYPE_WAV
c0aebb80   CONTENT_TYPE_ZIP
c0aebb8c   CRLF
c0aaafe0   CfgAddEntry
c0ad3f60   CfgEntryDeRef
c0ad4000   CfgEntryGetData
c0ad9560   CfgEntryInfo
c0abde20   CfgExecute
c0ac8a20   CfgFree
c0ac3220   CfgGetEntry
c0acbcc0   CfgGetEntryCnt
c0ad40a0   CfgGetImmediate
c0ac3380   CfgGetNextEntry
c0ac34e0   CfgLoad
c0acbdc0   CfgNew
c0abfa00   CfgRemoveEntry
c0ab1e60   CfgSave
c0add4e0   CfgSetDefault
c0acbec0   CfgSetExecuteOrder
c0ad95c0   CfgSetService
c0ae86f0   Code2Err
c0aebb90   DEFAULT_NAME
c0ad16e0   DHCPClose
c0ab0180   DHCPOpen
c0ac8b40   DaemonFree
c0ab69c0   DaemonNew
c0acbfc0   DbgPrintf
c0aebbe4   DomainName
c0abb8a0   EDMA3_DRV_clearErrorBits
c0abdfe0   EDMA3_DRV_disableLogicalChannel
c0a9ea00   EDMA3_DRV_disableTransfer
c0aa8020   EDMA3_DRV_enableTransfer
c0aa4100   EDMA3_DRV_freeChannel
c0ac5880   EDMA3_DRV_getPaRAM
c0a8d3a0   EDMA3_DRV_requestChannel
c0ac59c0   EDMA3_DRV_setPaRAM
c0aebdb8   EDMA3_MAX_RM_INSTANCES
c0a8c6a0   EDMA3_RM_allocResource
c0a98740   EDMA3_RM_create
c0a9b080   EDMA3_RM_freeResource
c0ab6c00   EDMA3_RM_registerTccCb
c0ab6e40   EDMA3_RM_unregisterTccCb
c0ac1720   EMAC_RxServiceCheck
c0ac3640   EMAC_TxServiceCheck
c0aa44c0   EMAC_close
c0abce28   EMAC_getConfig
c0abcda0   EMAC_initialize
c0abced8   EMAC_linkStatus
c0a8e000   EMAC_open
c0abe1a0   EMAC_sendPacket
c0abba80   EMAC_setReceiveFilter
c0adc7a0   EVM_Init
c0abbc60   EmacInit
c0adbde0   ExecClose
c0add520   ExecHRef
c0add540   ExecLowResource
c0ac5b00   ExecOpen
c0adbe20   ExecTimer
c0ad4280   FdSignalEvent
c0ac8c60   FdWaitEvent
c0aebbd8   GatewayIP
c0ad4320   HOSTclose
c0acc0c0   HOSTlseek
c0ace0a0   HOSTopen
c0ad17a0   HOSTread
c0ac18a0   HOSTrename
c0ad1860   HOSTunlink
c0ad1920   HOSTwrite
c0aebb94   HTTP_VER
c0aebbe0   HostName
c0ad43c0   HwPktClose
c0add560   HwPktInit
c0aad480   HwPktOpen
c0ac37a0   HwPktSetRx
c0add580   HwPktShutdown
c0ac3900   HwPktTxNext
c0ad6d40   HwRxInt
c0ad6dc0   HwTxInt
c0aebac0   HwiUart1
c0aebac4   HwiUart2
c0ae8780   I2c_IOMFXNS
c0ae8744   I2c_PARAMS
c0a913f4   I2c_completeIOedmaCallback
c0ae8770   I2c_defaultRxIoParams
c0ae8778   I2c_defaultTxIoParams
c0a7eb98   I2c_init
c0a8264c   I2c_loadPendedIops
c0a9174c   I2c_localEdmaChanRequest
c0a90e90   I2c_localEdmaTransfer
c0a8192c   I2c_localEnsureIsReadyforNext
c0a80e78   I2c_localGetNextChannel
c0a8228c   I2c_localLpscOff
c0a82210   I2c_localLpscOn
c0a807f4   I2c_localPrepareForTransfer
c0ad6e40   ICMPChecksum
c0ab20e0   ICMPGenPacket
c0a9b620   ICMPInput
c0ac5c40   ICMPSendRtAdv
c0ab72c0   ICMPv6RecvNA
c0aad760   ICMPv6RecvNS
c0a97a40   ICMPv6RecvRA
c0ad6f40   ICMPv6RecvRS
c0aab300   ICMPv6RecvRedirect
c0aa83a0   ICMPv6RxPacket
c0aabf80   ICMPv6SendDstUnreachable
c0ab7500   ICMPv6SendNA
c0ab43e0   ICMPv6SendNS
c0aaa620   ICMPv6SendParameterProblem
c0aac280   ICMPv6SendTimeExceeded
c0aa8720   IGMPInput
c0ac5d80   IGMPJoin
c0ace180   IGMPLeave
c0ac8d80   IGMPLeaveHostGroup
c0ac1a20   IGMPMsg
c0ad9800   IGMPTestGroup
c0aebd9c   INFINITE_LT
c0ad9860   IPChecksum
c0abe360   IPGetRoute
c0ac8ea0   IPMsg
c0a99f40   IPReasm
c0ad4500   IPReasmFree
c0ad45a0   IPReasmTimeout
c0add5a0   IPRtChange
c0a8f860   IPRxPacket
c0a91860   IPTxPacket
c0a76388   IPV6_ALL_NODES_ADDRESS
c0a76398   IPV6_ALL_ROUTER_ADDRESS
c0aebd88   IPV6_DELAY_FIRST_PROBE_TIME
c0a76378   IPV6_HOST_MASK
c0a76338   IPV6_LINKLOCALMASK
c0a76368   IPV6_LOOPBACK_ADDRESS
c0aebd7c   IPV6_MAX_MULTICAST_SOLICIT
c0aebd98   IPV6_MAX_RTR_SOLICITATIONS
c0aebd90   IPV6_MAX_RTR_SOLICITATION_DELAY
c0aebd80   IPV6_MAX_UNICAST_SOLICIT
c0a76348   IPV6_MULTICASTMASK
c0aebd8c   IPV6_REACHABLE_TIME
c0aebd84   IPV6_RETRANS_TIME
c0aebd94   IPV6_RTR_SOLICITATION_INTERVAL
c0a76358   IPV6_UNSPECIFIED_ADDRESS
c0ad4640   IPv6CompareAddress
c0ac5ec0   IPv6DisplayIPAddress
c0abfd40   IPv6FragMsg
c0ad7040   IPv6GetRoute
c0acc2c0   IPv6GetSubnetMaskFromBits
c0a9c6e0   IPv6IPAddressToString
c0ac9200   IPv6Init
c0adbea0   IPv6IsLinkLocal
c0adbee0   IPv6IsMulticast
c0ad1aa0   IPv6Layer4ComputeChecksum
c0ab0420   IPv6ParseExtnHeaders
c0aba0a0   IPv6ParseFragHdr
c0ab8b60   IPv6RxPacket
c0aa3d20   IPv6TxFragPacket
c0aa4880   IPv6TxPacket
c0ab4640   Interrupt_add
c0adbf20   Interrupt_delete
c0ac9320   IsICMPv6ErrorPkt
c0add5c0   LED_TOGGLE
c0ad70c0   LLI6Free
c0add5e0   LLI6GetNetDevice
c0add600   LLI6IncRefCount
c0add620   LLI6IsDead
c0add640   LLI6IsRouter
c0adbfa0   LLI6IsValid
c0ace420   LLI6Msg
c0aba2a0   LLI6New
c0add660   LLI6SetIncomplete
c0ab48a0   LLI6TxIPPacket
c0ace500   LLI6Update
c0ad98c0   LLIFree
c0abe6e0   LLIGenArpPacket
c0ad1b60   LLIGetValidTime
c0ad1c20   LLIMsg
c0ac6140   LLINew
c0a9d680   LLIRxPacket
c0aa9c00   LLITxIpPacket
c0ad46e0   LLIValidateRoute
c0aebbd0   LocalIPAddr
c0aebbd4   LocalIPMask
c0ad4780   MD5Final
c0adbfe0   MD5Init
c0ac9440   MD5Update
c0ad71c0   MDIO_close
c0add680   MDIO_getStatus
c0ad1ce0   MDIO_initPHY
c0ad9920   MDIO_open
c0a964c0   MDIO_timerTick
c0ac9560   MLDJoinGroup
c0ad1e60   MLDLeaveGroup
c0adc020   MLDTestGroup
c0a75d10   MainConfig
c0aebbc8   MainConfigSize
c0aebbcc   MainConfigValid
c0adc060   NC_BootComplete
c0add6a0   NC_IPUpdate
c0ac0080   NC_NetStart
c0add6c0   NC_NetStop
c0ad9980   NC_SystemClose
c0ac9680   NC_SystemOpen
c0adc0a0   NDK_hookCreate
c0add6e0   NDK_hookInit
c0adc0e0   NDK_sprintf
c0adeac0   NDK_vsprintf
c0ac97a0   NIMUAddEthernetHeader
c0ad99e0   NIMUAddHeader
c0ad9a40   NIMUCreatePacket
c0aeb418   NIMUDeviceTable
c0ad9aa0   NIMUFindByIndex
c0ad1f20   NIMUFindByName
c0add700   NIMUGetRsvdSizeInfo
c0ad7240   NIMUInit
c0aa6e00   NIMUIoctl
c0ad9b00   NIMUPacketService
c0ad9b60   NIMUPacketServiceCheck
c0ab4b00   NIMUReceivePacket
c0ac1ba0   NIMURegister
c0ad9bc0   NIMUSendPacket
c0add720   NIMUSetRsvdSizeInfo
c0ad4820   NIMUShutdown
c0ad48c0   NIMUUnregister
c0ad1fe0   NS_BootTask
c0ad9c20   NS_PreBoot
c0add740   NatMsg
c0aa5f00   NetworkMain
c0ab06c0   NodeAdd
c0ace880   NodeDeRef
c0ac6280   NodeFind
c0ad9c80   NodeGetRt
c0add760   NodeSetRt
c0ac0220   NodeTreeFree
c0acea40   NodeTreeNew
c0ac63c0   NodeWalk
c0add780   NotifyLowResource
c0ad4960   NtAddNetwork
c0ad2160   NtIfIdx2Ip
c0adc120   NtRemoveNetwork
c0add7a0   OEMCacheClean
c0add7c0   OEMSysCritOff
c0add7e0   OEMSysCritOn
c0ad72c0   PBMQ_deq
c0aceb20   PBMQ_enq
c0a7693c   PBMQ_free
c0ac6500   PBM_alloc
c0add800   PBM_close
c0acec00   PBM_copy
c0ac6640   PBM_free
c0ad4a00   PBM_open
c0aebbf0   PITCount
c0aebbf8   PITHigh
c0aebbf4   PITUsed
c0a76718   PageCount
c0a766f8   PageMax
c0ad4aa0   PipeCheck
c0ad73c0   PipeClose
c0ab7740   PipeRecv
c0ac3d20   PipeSend
c0aa8aa0   Psc_ModuleClkCtrl
c0aa8da8   Psc_getDependencyCount
c0aa8df0   Psc_init
c0ad9ce0   RTCAddHook
c0acc4c0   RTCMsg
c0ad9d40   RTCRemoveHook
c0aba4a0   RTCReport
c0ac03c0   Raw6Input
c0aba6a0   Raw6Output
c0ac98c0   RawEthRxPacket
c0acc5c0   RawEthSockCheck
c0ad7440   RawEthSockClose
c0ab8d80   RawEthSockNew
c0acece0   RawEthSockNotify
c0acedc0   RawEthSockPcbAttach
c0ad9da0   RawEthSockPcbCleanup
c0ad74c0   RawEthSockPcbDetach
c0ad9e00   RawEthSockPcbFind
c0add820   RawEthSockPcbInit
c0add840   RawEthSockPrAttach
c0add860   RawEthSockPrDetach
c0ac99e0   RawEthSockRecvNC
c0aceea0   RawEthSockSend
c0ab4d60   RawEthSockSet
c0ac9b00   RawEthTxPacket
c0ab7980   RawInput
c0ac3e80   RawOutput
c0acef80   Route6Msg
c0ad4b40   RouteMsg
c0a98d40   Rt6Create
c0aada40   Rt6Find
c0ad2220   Rt6FindDefaultRouter
c0ab2860   Rt6Free
c0add880   Rt6GetIF
c0add8a0   Rt6GetLLI
c0add8c0   Rt6GetMTU
c0ad9e60   Rt6GetNetworkAddr
c0add8e0   Rt6IncRefCount
c0adc260   Rt6IsDefaultRoute
c0add900   Rt6IsLocalRoute
c0abc020   Rt6Modify
c0ad7540   Rt6Update
c0aa71a0   RtCreate
c0ad22e0   RtDeRef
c0aaf100   RtFind
c0acc6c0   RtRedirect
c0acf060   RtRemove
c0ad75c0   RtSetFailure
c0ad7640   RtSetTimeout
c0ad23a0   RtWalkBegin
c0ad9ec0   RtWalkEnd
c0ac4140   RtWalkNext
c0aebcc0   RxChanEnable_all
c0ad2460   SB6Flush
c0ad4c80   SB6Free
c0ac68c0   SB6New
c0aaf3c0   SB6Read
c0ad2520   SB6SetMax
c0ab4fc0   SB6Write
c0ad25e0   SBFlush
c0ad4d20   SBFree
c0ac9d40   SBNew
c0aa7540   SBRead
c0acf140   SBReadNC
c0acf220   SBSetMax
c0ab5220   SBWrite
c0abd548   SCOM_create
c0abd614   SCOM_delete
c0abd538   SCOM_exit
c0abd664   SCOM_getMsg
c0abd528   SCOM_init
c0abd5ac   SCOM_open
c0abd634   SCOM_putMsg
c0aebb98   SPACE
c0ad4dc0   SemCreate
c0add920   SemDelete
c0abcf70   SemInit
c0add940   SemPend
c0add960   SemPost
c0add980   SemReset
c0aebbdc   ServerIPAddr
c0ac6b40   Sock6Accept
c0ad76c0   Sock6Bind
c0ac4400   Sock6Check
c0ad4e60   Sock6CleanPcb
c0ab5480   Sock6Close
c0a9eec0   Sock6Connect
c0ac4560   Sock6CreatePacket
c0acc7c0   Sock6Disconnect
c0ad4f00   Sock6GetName
c0acf300   Sock6IntAbort
c0ac6c80   Sock6Listen
c0aa1c00   Sock6New
c0aa9f60   Sock6Notify
c0adc2a0   Sock6PcbAttach
c0aac880   Sock6PcbBind
c0ad7740   Sock6PcbCleanup
c0ac46c0   Sock6PcbConnect
c0ad9f80   Sock6PcbDetach
c0aaf680   Sock6PcbResolve
c0ad26a0   Sock6PcbResolveChain
c0ad2760   Sock6PcbRtChange
c0add9a0   Sock6PrAttach
c0ad9fe0   Sock6PrCtlError
c0ada040   Sock6PrDetach
c0a9f840   Sock6Recv
c0aa3520   Sock6Send
c0a9f380   Sock6Set
c0add9c0   Sock6SetOOBData
c0adc2e0   Sock6SetOOBMark
c0aca0a0   Sock6Shutdown
c0acf3e0   Sock6SpawnAbort
c0acf4c0   Sock6ValidateRoute
c0ac6dc0   SockAccept
c0ad4fa0   SockBind
c0ac4820   SockCheck
c0ad5040   SockCleanPcb
c0ab0c00   SockClose
c0aa8e20   SockConnect
c0ac0700   SockCreatePacket
c0acf5a0   SockDisconnect
c0ad77c0   SockGetName
c0ad2820   SockIntAbort
c0ac6f00   SockListen
c0a9cc40   SockNew
c0aaa2c0   SockNotify
c0adc320   SockPcbAttach
c0ab56e0   SockPcbBind
c0ad7840   SockPcbCleanup
c0ac4980   SockPcbConnect
c0ac7040   SockPcbCtlError
c0ad78c0   SockPcbDetach
c0ab2ae0   SockPcbResolve
c0ad7940   SockPcbResolveChain
c0ad28e0   SockPcbRtChange
c0add9e0   SockPrAttach
c0ada0a0   SockPrCtlError
c0ada100   SockPrDetach
c0a9fce0   SockRecv
c0ab2d60   SockRecvNC
c0aa5000   SockSend
c0a94640   SockSet
c0adda00   SockSetOOBData
c0adc360   SockSetOOBMark
c0aca2e0   SockShutdown
c0acf680   SockSpawnAbort
c0acc8c0   SockValidateRoute
c0ad29a0   TCP6Close
c0ad50e0   TCP6Drop
c0ab2fe0   TCP6GenPacket
c0a862e0   TCP6Input
c0a8a720   TCP6Output
c0aca400   TCP6PrAttach
c0ada160   TCP6PrConnect
c0ad5180   TCP6PrCtlError
c0acf760   TCP6PrDetach
c0acf840   TCP6PrDisconnect
c0accac0   TCP6PrInherit
c0ad79c0   TCP6PrListen
c0adda60   TCP6PrRecv
c0ad5220   TCP6PrSend
c0ad52c0   TCP6PrSendOOB
c0ab0ea0   TCP6PrSetOption
c0ada1c0   TCP6SetPersist
c0adda80   TCP6TimeoutAdd
c0aa53c0   TCP6TimeoutCheck
c0ac4c40   TCP6TimeoutKeep
c0ada220   TCP6TimeoutPersist
c0adc3a0   TCP6TimeoutRemove
c0ac0a40   TCP6TimeoutRexmt
c0acf920   TCP6TimeoutSackRexmt
c0adc3e0   TCP6TimeoutWait2
c0acfa00   TCP6ValidateMetrics
c0accbc0   TCP6XmitTimer
c0aea968   TSK_idle
c0aeb224   TVP5150_Fxns
c0addaa0   TaskBlock
c0ad5360   TaskCreate
c0adc420   TaskDestroy
c0aafec0   TaskExit
c0ad2a60   TaskGetEnv
c0addac0   TaskSelf
c0ad7a40   TaskSetEnv
c0addae0   TaskSetPri
c0ab1bc0   TaskSleep
c0ad2b20   TcpChecksum
c0ad2be0   TcpClose
c0ad5400   TcpDrop
c0abc3e0   TcpGenPacket
c0a848e0   TcpInput
c0a894e0   TcpOutput
c0aca520   TcpPrAttach
c0ada280   TcpPrConnect
c0ad54a0   TcpPrCtlError
c0acfae0   TcpPrDetach
c0acfbc0   TcpPrDisconnect
c0acccc0   TcpPrInherit
c0ad7ac0   TcpPrListen
c0addb00   TcpPrRecv
c0ad5540   TcpPrSend
c0ad55e0   TcpPrSendOOB
c0ab1140   TcpPrSetOption
c0ada2e0   TcpSetPersist
c0addb20   TcpTimeoutAdd
c0aa5780   TcpTimeoutCheck
c0ac4da0   TcpTimeoutKeep
c0ada340   TcpTimeoutPersist
c0adc460   TcpTimeoutRemove
c0abc5c0   TcpTimeoutRexmt
c0acfca0   TcpTimeoutSackRexmt
c0adc4a0   TcpTimeoutWait2
c0acfd80   TcpValidateMetrics
c0accdc0   TcpXmitTimer
c0ac8b40   TelnetClose
c0aca640   TelnetOpen
c0addb40   TimerFree
c0ad7b40   TimerHSTick
c0ad5680   TimerNew
c0aebcbc   TxChanEnable_all
c0aebbb0   UART1_CmdCount
c0aebbac   UART1_CmdReady_Flag
c0aebbc4   UART1_CmdReady_Flag_tim
c0aebba8   UART1_CmdStartChar_flag
c0ad82c0   UART1_isr
c0aebbc0   UART2_CmdCount
c0aebbbc   UART2_CmdReady_Flag
c0aebbb8   UART2_CmdStartChar_flag
c0ad82d0   UART2_isr
c0a95264   UARTBreakCtl
c0a95154   UARTCharGet
c0a95128   UARTCharGetNonBlocking
c0a95190   UARTCharPut
c0a950e8   UARTCharPutNonBlocking
c0a95098   UARTCharsAvail
c0a94e94   UARTConfigGetExpClk
c0a94e00   UARTConfigSetExpClk
c0a94f6c   UARTDMADisable
c0a94f4c   UARTDMAEnable
c0a95014   UARTDisable
c0a94ff8   UARTEnable
c0a95054   UARTFIFODisable
c0a95040   UARTFIFOEnable
c0a94f28   UARTFIFOLevelSet
c0a95210   UARTIntDisable
c0a951e8   UARTIntEnable
c0a95238   UARTIntStatus
c0a952f0   UARTModemControlClear
c0a95324   UARTModemControlGet
c0a95298   UARTModemControlSet
c0a95344   UARTModemStatusGet
c0a94fd4   UARTParityModeGet
c0a94f8c   UARTParityModeSet
c0a950c8   UARTRxErrorGet
c0a9506c   UARTSpaceAvail
c0a95364   UART_init
c0a95470   UART_txArray
c0a95450   UART_txByte
c0a954d4   UART_txString
c0a95514   UART_txUint8
c0aacb80   Udp6Input
c0aaf940   Udp6Output
c0acff40   UdpChecksum
c0a9db60   UdpInput
c0aae000   UdpOutput
c0ad0020   VLANDeinit
c0ada460   VLANInit
c0ad0100   VLANReceivePacket
c0aeb30c   Vpif_IOMFXNS
c0ae87e8   Vpif_PARAMS
c0a76db4   Vpif_init
c0ac4f00   _HwPktPoll
c0a76580   _ICMPIn
c0aebcf0   _ICMPInErrors
c0a765d0   _ICMPOut
c0aebcf4   _ICMPOutErrors
c0aebcb0   _IGMPForceVersion1
c0aebb04   _IGMPInDiscard
c0aebb08   _IGMPInQuery
c0aebb0c   _IGMPInQueryGroup
c0aebb10   _IGMPInResponse
c0aebb14   _IGMPOutResponse
c0aebcf8   _IPExecuting
c0aebd5c   _IPReasmPtr
c0ad02c0   _LLIExpListInsert
c0ad7d40   _LLIExpListRemove
c0abea60   _LLITimeoutCheck
c0ad5720   _LLITimeoutFlush
c0ad03a0   _RtExpListInsert
c0ad7e40   _RtExpListRemove
c0aca760   _RtNodeInsert
c0ad0480   _RtNodeRemove
c0addb60   _TaskInit
c0addb80   _TaskShutdown
c0200000   __ASM__
c0aebdbc   __CIOBUF_
c0200078   __ISA__
c0200090   __PLAT__
c02000a8   __TARG__
c0aed150   __TI_CINIT_Base
c0aed178   __TI_CINIT_Limit
c0aed134   __TI_Handler_Table_Base
c0aed140   __TI_Handler_Table_Limit
UNDEFED    __TI_INITARRAY_Base
UNDEFED    __TI_INITARRAY_Limit
80001000   __TI_STACK_END
00001000   __TI_STACK_SIZE
c0aebaa0   __TI_STATIC_BASE
00000001   __TI_args_main
c0adde60   __TI_decompress_none
c0adde80   __TI_decompress_rle24
c0aeb3f0   __TI_enable_exit_profile_output
ffffffff   __TI_pprof_out_hndl
ffffffff   __TI_prof_data_size
ffffffff   __TI_prof_data_start
c0ad0720   __TI_zero_init
c02000d0   __TRDR__
ffffffff   __binit__
c0ada520   __c6xabi_abort_msg
c0a9bbc0   __c6xabi_divd
c0ad2fa0   __c6xabi_divu
c0ac0be0   __c6xabi_divul
c0ab5940   __c6xabi_divull
c0addba0   __c6xabi_errno_addr
c0adc4e0   __c6xabi_frcmpyd_div
c0adc520   __c6xabi_isinf
c0ad7ec0   __c6xabi_llshl
c0adc5a0   __c6xabi_llshru
c0addbc0   __c6xabi_negll
c0ad3060   __c6xabi_remi
c0ad57c0   __c6xabi_remu
c0adc5e0   __c6xabi_strasgi_64plus
ffffffff   __c_args__
c0addbe0   __cxa_atexit
c0ad2ee0   __cxa_finalize
c0addc00   __cxa_ia64_exit
c0ad2fa0   __divu
c0aeb19c   __errno
c0ad3060   __remi
c0ad57c0   __remu
c0adc5e0   __strasgi_64plus
c0addc20   __xdc__init
c0aea654   __xdc__init__addr
c0adc620   _args_main
00000000   _argsize
c0ac7180   _auto_init_elf
c0ad5860   _c_int00
c0ad5900   _cleanup
c0aeb3e8   _cleanup_ptr
c0aca880   _closefile
c0ae76e8   _ctypes_
c0ad31e0   _doflush
c0aeb3ec   _dtors_ptr
c0aeaf2c   _ft_end
c0aea658   _ftable
c0aea9b4   _ipcfg
c0addc40   _llSerialInit
c0addc60   _llSerialServiceCheck
c0addc80   _llSerialShutdown
c0adc660   _llTimerInit
c0addca0   _llTimerShutdown
c0addcc0   _llUserLedInit
c0addce0   _llUserLedShutdown
c0aeb430   _lock
c0acaac0   _mmInit
c0addd00   _nop
c0aeb200   _oscfg
c0aa0a80   _printfi
c0addda0   _register_lock
c0adddc0   _register_unlock
80000000   _stack
c0ada580   _subcull
c0a75f10   _tmpnams
c0aeb434   _unlock
c0accec0   _wrt_ok
c0adde20   abort
c0abaca0   accept
c0adde40   atexit
c0ad0560   atoi
c0ac5060   authInit
c0ad5c20   authStart
c0ac24a0   bind
ffffffff   binit
c0aebba4   c018_flag
c0aeb428   ccErrorInt
c0aeaff0   ccXferCompInt
c0aa2ce0   chapInput
c0ad0640   close
c0a8c020   codecReadReg
c0a8be0c   codecWriteReg
c0a8c230   codecWriteRegAsync
c0aa5bb8   configureGuaoC6748
c0ac2620   connect
c0aebcc4   corenum
c0a8c404   deInitCodecInterface
c0ad5cc0   dhcpBuildDecline
c0ada5e0   dhcpBuildDiscover
c0ac0d80   dhcpBuildOptions
c0ac27a0   dhcpBuildRequest
c0ac7540   dhcpDecodeType
c0ad32a0   dhcpOptionsClear
c0aa91a0   dhcpPacketProcess
c0ada640   dhcpPacketReceive
c0ada6a0   dhcpPacketSend
c0ada700   dhcpSocketClose
c0abc980   dhcpSocketOpen
c0ab8040   dhcpState
c0ab8280   dhcpVerifyMessage
c0a5f5f0   drvInstance
c0a5ed40   drvObj
c0aebb18   dsp_num
c0a61510   edma3DrvChBoundRes
c0ae9790   edma3GblCfgParams
c0ad3360   edma3MemCpy
c0ad7fc0   edma3MemZero
c0aebcd8   edma3NumPaRAMSets
c0ad0800   edma3OsProtectEntry
c0ad3420   edma3OsProtectExit
c0adc720   edma3OsSemGive
c0ada760   edma3OsSemTake
c0ad8040   edma3ParamCpy
c0a6bf30   edma3_dma_ch_max_val
c0a6bf50   edma3_link_ch_max_val
c0a6bf40   edma3_link_ch_min_val
c0a6bf80   edma3_log_ch_max_val
c0a6bf70   edma3_qdma_ch_max_val
c0a6bf60   edma3_qdma_ch_min_val
c0ad80c0   efs_fclose
c0aa3920   efs_filecheck
c0ad8140   efs_filesend
c0ad34e0   efs_fopen
c0addea0   efs_getfilesize
c0adc760   efs_loadfunction
c0aeb19c   errno
c0ad3660   exit
c0abf160   fdClose
c0ad5e00   fdCloseSession
c0adc7e0   fdError
c0acad00   fdOpenSession
c0a955a0   fdPoll
c0aa2040   fdSelect
c0adc820   fdSelectAbort
c0ada820   fdint_clearevent
c0adc860   fdint_freefdt
c0ada880   fdint_getfdt
c0ad08e0   fdint_lockfd
c0ada8e0   fdint_setevent
c0addec0   fdint_signaltimeout
c0ad09c0   fdint_unlockfd
c0ad8240   fdint_waitevent
c0ada940   fdsetTestEntry
c0ad0aa0   fflush
c0acd0c0   fprintf
c0ab93e0   fputc
c0aa78e0   fputs
c0abd028   fr_ScomSetup
c0adc8a0   free
c0acae20   fseek
c0aebd08   gFragQList
c0aebd64   gMLDNodeList
c0ac0f20   getpeername
c0ac7a40   httpAuthenticationReq
c0a8ec60   httpClientProcess
c0ac8b40   httpClose
c0aebd50   httpErrorResponseHook
c0acaf40   httpOpen
c0ab5e00   httpParseRecv
c0ada9a0   httpSendClientStr
c0ad8340   httpSendEntityLength
c0ad83c0   httpSendErrorResponse
c0ad3720   httpSendFullResponse
c0a9d160   httpSendStatusLine
c0a7fa18   i2cCheckAndClearRsFull
c0a768a8   icmp6stats
c0adc8e0   inet_addr
c0aace80   inet_aton
c0a8b954   initCodecInterface
c0adaa00   ipcpInit
c0a93e60   ipcpInput
c0adaa60   ipcpStart
c0a76734   ips
c0a763a8   ipv6mcb
c0adaac0   lcpClose
c0ad5f40   lcpInit
c0a92220   lcpInput
c0acd2c0   lcpOpen
c0acb060   lcpReject
c0adc920   list_add
c0adab20   list_cat
c0addee0   list_get_head
c0addf00   list_get_next
c0adc960   list_remove
c0adab80   list_remove_node
c0acd3c0   listen
c0ac2920   llEnter
c0ad0c60   llExit
c0addf20   llSerialService
c0addf40   llTimerGetStartTime
c0ad8440   llTimerGetTime
c0ad6080   llTimerTick
c0ad6120   lseek
c0ad0d40   ltoa
c0abd0b4   main
c0ad61c0   malloc
c0adabe0   memccpy
c0ad6260   memcpy
c0aebc30   memory_squeeze_error
c0ad0e20   memset
c0aaa960   mmAlloc
c0ad0f00   mmBulkAlloc
c0ad6300   mmBulkFree
c0ac7b80   mmCopy
c0acd4c0   mmFree
c0ad37e0   mmZeroInit
c3000000   my_boot
c0a7679c   nimu_mcb
c0aa7c80   papInput
c0abcd40   pinmuxConfig
c0aebd40   pktCount
c0a9c160   pppEvent
c0ad0fe0   pppFree
c0aae5c0   pppInput
c0aa1340   pppNew
c0adaca0   pppoeInput
c0aaaca0   pppoeSI
c0ad10c0   printf
c0aeb248   pstrMsgName
c0aebd30   pt6TimeFirst
c0aebd2c   ptTimeFirst
c0aebc84   ptrInitCfgArray
c0aebc80   ptrRMIArray
c0addf80   putc
c0addfa0   putchar
c0a7691c   raw6_stats
c0a75d0c   raweth_pcb
c0a7692c   raweths
c0a7690c   raws
c0ad84c0   readmsg
c0ac7e00   recv
c0abd2e0   recvnc
c0adad00   recvncfree
c0aebb1c   region_id
c0ad8ec0   remove
c0aebc78   resMgrInstance
c0a71860   resMgrInstanceArray
c0a6bf90   resMgrObj
c0aebaa0   semIn2P
c0aebaac   semNet2P
c0aebabc   semNet2UM
c0aebaa4   semP2In
c0aebaa8   semP2Net
c0aebab4   semP2UM
c0aebab8   semUM2Net
c0aebab0   semUM2P
c0ac7f40   send
c0abd6a0   sendto
c0ac5320   setsockopt
c0abb2a0   setvbuf
c0acb2a0   socket
c0a768fc   stkEvent
c0adca60   strcmp
c0adad60   strcpy
c0ad6440   stricmp
c0adcaa0   strlen
c0ad85c0   strncpy
c0ad64e0   strstr
c0aa62c0   strtol
c0aeb0b0   tcErrorInt
c0aebd34   tcp6_iss
c0a764c4   tcp6_stats
c0aebd28   tcp_iss
c0a76400   tcps
c0ac5480   telnetClientProcess
c0aeb328   ti_ndk_config_Global_Id2Size
c0aebdac   ti_ndk_config_Global_largest
c0aebdb0   ti_ndk_config_Global_numFrameBuf
c0a00080   ti_ndk_config_Global_pBufMem
c0a4e080   ti_ndk_config_Global_pHdrMem
c0a52b80   ti_ndk_config_Global_pit
c0a52d40   ti_ndk_config_Global_pitBuffer
c0aebda4   ti_ndk_config_Global_rawPageCount
c0aebda0   ti_ndk_config_Global_rawPageSize
c0aebdb4   ti_ndk_config_Global_sizeFrameBuf
c0aebda8   ti_ndk_config_Global_smallest
c0adadc0   ti_ndk_config_Global_stackThread
c0addfc0   ti_sdo_utils_List_Instance_init__F
c0aea018   ti_sdo_utils_List_Module__root__V
c0ae8fa8   ti_sdo_utils_List_Object__DESC__C
c0ae9268   ti_sdo_utils_List_Object__PARAMS__C
c0ad8640   ti_sdo_utils_List_Object__create__S
c0adae20   ti_sdo_utils_List_Object__delete__S
c0addfe0   ti_sdo_utils_List_Params__init__S
c0ade000   ti_sdo_utils_List_empty__E
c0adcae0   ti_sdo_utils_List_get__E
c0ade020   ti_sdo_utils_List_next__E
c0adcb20   ti_sdo_utils_List_put__E
c0aea020   ti_sdo_utils_NameServerRemoteNull_Module__root__V
c0ae82b4   ti_sysbios_BIOS_Module__diagsEnabled__C
c0ae8e44   ti_sysbios_BIOS_Module__diagsIncluded__C
c0ae9324   ti_sysbios_BIOS_Module__diagsMask__C
c0ae970c   ti_sysbios_BIOS_Module__id__C
c0aea028   ti_sysbios_BIOS_Module__state__V
c0ade040   ti_sysbios_BIOS_RtsGateProxy_enter__E
c0ade060   ti_sysbios_BIOS_RtsGateProxy_leave__E
c0ade2e0   ti_sysbios_BIOS_RtsGateProxy_query__E
c0ad3960   ti_sysbios_BIOS_errorRaiseHook__I
c0ad86c0   ti_sysbios_BIOS_exitFunc__I
c0ade080   ti_sysbios_BIOS_getThreadType__E
c0ae933c   ti_sysbios_BIOS_installedErrorHook__C
c0adae80   ti_sysbios_BIOS_registerRTSLock__I
c0ade0a0   ti_sysbios_BIOS_setThreadType__E
c0adcb60   ti_sysbios_BIOS_startFunc__I
c0ade0c0   ti_sysbios_BIOS_start__E
c0ade0e0   ti_sysbios_family_c62_TaskSupport_Module__startupDone__S
c0adc6a0   ti_sysbios_family_c62_TaskSupport_buildTaskStack
c0ade100   ti_sysbios_family_c62_TaskSupport_checkStack__E
c0ade120   ti_sysbios_family_c62_TaskSupport_getStackAlignment__E
c0addde0   ti_sysbios_family_c62_TaskSupport_glue
c0ae938c   ti_sysbios_family_c62_TaskSupport_stackAlignment__C
c0ad8740   ti_sysbios_family_c62_TaskSupport_start__E
c0ad7f40   ti_sysbios_family_c62_TaskSupport_swap__E
c0ae93a4   ti_sysbios_family_c64p_Cache_EMIFA_BASE__C
c0ae940c   ti_sysbios_family_c64p_Cache_EMIFA_CFG__C
c0ae9450   ti_sysbios_family_c64p_Cache_EMIFA_LENGTH__C
c0ae9454   ti_sysbios_family_c64p_Cache_EMIFB_BASE__C
c0ae9458   ti_sysbios_family_c64p_Cache_EMIFB_CFG__C
c0ae945c   ti_sysbios_family_c64p_Cache_EMIFB_LENGTH__C
c0ae9460   ti_sysbios_family_c64p_Cache_EMIFC_BASE__C
c0ae9464   ti_sysbios_family_c64p_Cache_EMIFC_CFG__C
c0ae9468   ti_sysbios_family_c64p_Cache_EMIFC_LENGTH__C
c0ae946c   ti_sysbios_family_c64p_Cache_MAR0_31__C
c0ae9470   ti_sysbios_family_c64p_Cache_MAR128_159__C
c0ae9474   ti_sysbios_family_c64p_Cache_MAR160_191__C
c0ae9478   ti_sysbios_family_c64p_Cache_MAR192_223__C
c0ae947c   ti_sysbios_family_c64p_Cache_MAR224_255__C
c0ae9480   ti_sysbios_family_c64p_Cache_MAR32_63__C
c0ae9484   ti_sysbios_family_c64p_Cache_MAR64_95__C
c0ae9488   ti_sysbios_family_c64p_Cache_MAR96_127__C
c0aea048   ti_sysbios_family_c64p_Cache_Module__state__V
c0ab3760   ti_sysbios_family_c64p_Cache_Module_startup__E
c0ab3760   ti_sysbios_family_c64p_Cache_Module_startup__F
c0ae93e0   ti_sysbios_family_c64p_Cache_initSize__C
c0ad87c0   ti_sysbios_family_c64p_Cache_invL1pAll__E
c0ade140   ti_sysbios_family_c64p_Cache_inv__E
c0adaee0   ti_sysbios_family_c64p_Cache_setMar__E
c0adaf40   ti_sysbios_family_c64p_Cache_setSize__E
c0ade160   ti_sysbios_family_c64p_Cache_wbInv__E
c0ae93a8   ti_sysbios_family_c64p_EventCombiner_EVTMASK__C
c0ae948c   ti_sysbios_family_c64p_EventCombiner_E_unpluggedEvent__C
c0ae9710   ti_sysbios_family_c64p_EventCombiner_Module__id__C
c0aea04c   ti_sysbios_family_c64p_EventCombiner_Module__state__V
c0adafa0   ti_sysbios_family_c64p_EventCombiner_Module_startup__E
c0adafa0   ti_sysbios_family_c64p_EventCombiner_Module_startup__F
c0adcba0   ti_sysbios_family_c64p_EventCombiner_disableEvent__E
c0adcba0   ti_sysbios_family_c64p_EventCombiner_disableEvent__F
c0adb000   ti_sysbios_family_c64p_EventCombiner_dispatchPlug__E
c0adb000   ti_sysbios_family_c64p_EventCombiner_dispatchPlug__F
c0acd5c0   ti_sysbios_family_c64p_EventCombiner_dispatch__E
c0acd5c0   ti_sysbios_family_c64p_EventCombiner_dispatch__F
c0adcbe0   ti_sysbios_family_c64p_EventCombiner_enableEvent__E
c0adcbe0   ti_sysbios_family_c64p_EventCombiner_enableEvent__F
c0adcc20   ti_sysbios_family_c64p_EventCombiner_unused__E
c0adcc20   ti_sysbios_family_c64p_EventCombiner_unused__F
c0ae9490   ti_sysbios_family_c64p_Exception_E_exceptionMin__C
c0ae9714   ti_sysbios_family_c64p_Exception_Module__id__C
c0aea44c   ti_sysbios_family_c64p_Exception_Module__state__V
c0adb060   ti_sysbios_family_c64p_Exception_Module_startup__E
c0adb060   ti_sysbios_family_c64p_Exception_Module_startup__F
c0ac2c20   ti_sysbios_family_c64p_Exception_dispatch__E
c0ae9494   ti_sysbios_family_c64p_Exception_exceptionHook__C
c0ae9498   ti_sysbios_family_c64p_Exception_externalHook__C
c0a95d40   ti_sysbios_family_c64p_Exception_handler__I
c0ab84c0   ti_sysbios_family_c64p_Exception_internalHandler__I
c0ae949c   ti_sysbios_family_c64p_Exception_internalHook__C
c0ae94a0   ti_sysbios_family_c64p_Exception_nmiHook__C
c0aeb800   ti_sysbios_family_c64p_Hwi0
c0ae94a4   ti_sysbios_family_c64p_Hwi_E_alreadyDefined__C
c0ae94a8   ti_sysbios_family_c64p_Hwi_E_handleNotFound__C
c0ad11a0   ti_sysbios_family_c64p_Hwi_Instance_finalize__F
c0ad1280   ti_sysbios_family_c64p_Hwi_Instance_init__F
c0ae94ac   ti_sysbios_family_c64p_Hwi_LD_end__C
c0ae94b0   ti_sysbios_family_c64p_Hwi_LM_begin__C
c0ae94b4   ti_sysbios_family_c64p_Hwi_Module__diagsEnabled__C
c0ae94b8   ti_sysbios_family_c64p_Hwi_Module__diagsIncluded__C
c0ae94bc   ti_sysbios_family_c64p_Hwi_Module__diagsMask__C
c0ae9718   ti_sysbios_family_c64p_Hwi_Module__id__C
c0ae971c   ti_sysbios_family_c64p_Hwi_Module__loggerDefined__C
c0ae94c0   ti_sysbios_family_c64p_Hwi_Module__loggerFxn1__C
c0ae94c4   ti_sysbios_family_c64p_Hwi_Module__loggerFxn8__C
c0ae94c8   ti_sysbios_family_c64p_Hwi_Module__loggerObj__C
c0aea478   ti_sysbios_family_c64p_Hwi_Module__root__V
c0adcc60   ti_sysbios_family_c64p_Hwi_Module__startupDone__F
c0adcc60   ti_sysbios_family_c64p_Hwi_Module__startupDone__S
c0aea480   ti_sysbios_family_c64p_Hwi_Module__state__V
c0ac8080   ti_sysbios_family_c64p_Hwi_Module_startup__E
c0ac8080   ti_sysbios_family_c64p_Hwi_Module_startup__F
c0ae8fc8   ti_sysbios_family_c64p_Hwi_Object__DESC__C
c0ae8c18   ti_sysbios_family_c64p_Hwi_Object__PARAMS__C
c0acb3c0   ti_sysbios_family_c64p_Hwi_Object__create__S
c0adb0c0   ti_sysbios_family_c64p_Hwi_Object__delete__S
c0aead00   ti_sysbios_family_c64p_Hwi_Object__table__V
c0ade180   ti_sysbios_family_c64p_Hwi_clearInterrupt__E
c0adcca0   ti_sysbios_family_c64p_Hwi_disableInterrupt__E
c0abaaa0   ti_sysbios_family_c64p_Hwi_dispatchAlways
c0aad180   ti_sysbios_family_c64p_Hwi_dispatchC__I
c0adcce0   ti_sysbios_family_c64p_Hwi_enableIER__E
c0adcd20   ti_sysbios_family_c64p_Hwi_enableInterrupt__E
c0ad8840   ti_sysbios_family_c64p_Hwi_eventMap__E
c0aeb800   ti_sysbios_family_c64p_Hwi_int0
c0aeb820   ti_sysbios_family_c64p_Hwi_int1
c0aeb940   ti_sysbios_family_c64p_Hwi_int10
c0aeb960   ti_sysbios_family_c64p_Hwi_int11
c0aeb980   ti_sysbios_family_c64p_Hwi_int12
c0aeb9a0   ti_sysbios_family_c64p_Hwi_int13
c0aeb9c0   ti_sysbios_family_c64p_Hwi_int14
c0aeb9e0   ti_sysbios_family_c64p_Hwi_int15
c0aeb840   ti_sysbios_family_c64p_Hwi_int2
c0aeb860   ti_sysbios_family_c64p_Hwi_int3
c0aeb880   ti_sysbios_family_c64p_Hwi_int4
c0aeb8a0   ti_sysbios_family_c64p_Hwi_int5
c0aeb8c0   ti_sysbios_family_c64p_Hwi_int6
c0aeb8e0   ti_sysbios_family_c64p_Hwi_int7
c0aeb900   ti_sysbios_family_c64p_Hwi_int8
c0aeb920   ti_sysbios_family_c64p_Hwi_int9
c0ad5b80   ti_sysbios_family_c64p_Hwi_plug__E
c0abb4a0   ti_sysbios_family_c64p_Hwi_reconfig__E
c0ade1a0   ti_sysbios_family_c64p_Hwi_startup__E
c0ade1c0   ti_sysbios_family_c64p_Hwi_switchFromBootStack__E
c0ade1e0   ti_sysbios_family_c64p_Hwi_unPluggedInterrupt__I
c0ade200   ti_sysbios_family_c64p_TimestampProvider_Module_startup__E
c0ade200   ti_sysbios_family_c64p_TimestampProvider_Module_startup__F
c0ade220   ti_sysbios_family_c64p_TimestampProvider_get32__E
c0aeb438   ti_sysbios_family_c64p_primus_TimerSupport_Module_State_0_suspSrc__A
c0aea4e8   ti_sysbios_family_c64p_primus_TimerSupport_Module__state__V
c0adb120   ti_sysbios_family_c64p_primus_TimerSupport_enable__E
c0adc6e0   ti_sysbios_family_xxx_Hwi_switchToIsrStack
c0adde00   ti_sysbios_family_xxx_Hwi_switchToTaskStack
c0adb180   ti_sysbios_gates_GateHwi_Handle__label__S
c0ade240   ti_sysbios_gates_GateHwi_Instance_init__F
c0ae8e6c   ti_sysbios_gates_GateHwi_Module__FXNS__C
c0aea4ec   ti_sysbios_gates_GateHwi_Module__root__V
c0ae8fe8   ti_sysbios_gates_GateHwi_Object__DESC__C
c0ae9280   ti_sysbios_gates_GateHwi_Object__PARAMS__C
c0ad88c0   ti_sysbios_gates_GateHwi_Object__create__S
c0adb1e0   ti_sysbios_gates_GateHwi_Object__delete__S
c0aeb470   ti_sysbios_gates_GateHwi_Object__table__V
c0ade260   ti_sysbios_gates_GateHwi_enter__E
c0ade280   ti_sysbios_gates_GateHwi_leave__E
c0ade2a0   ti_sysbios_gates_GateHwi_query__E
c0ade2a0   ti_sysbios_gates_GateHwi_query__F
c0ae94cc   ti_sysbios_gates_GateMutex_A_badContext__C
c0adb240   ti_sysbios_gates_GateMutex_Handle__label__S
c0ae94d0   ti_sysbios_gates_GateMutex_Instance_State_sem__O
c0ade2c0   ti_sysbios_gates_GateMutex_Instance_finalize__F
c0adb2a0   ti_sysbios_gates_GateMutex_Instance_init__F
c0ae8e90   ti_sysbios_gates_GateMutex_Module__FXNS__C
c0ae94d4   ti_sysbios_gates_GateMutex_Module__diagsEnabled__C
c0ae94d8   ti_sysbios_gates_GateMutex_Module__diagsIncluded__C
c0ae94dc   ti_sysbios_gates_GateMutex_Module__diagsMask__C
c0ae9720   ti_sysbios_gates_GateMutex_Module__id__C
c0aea4f4   ti_sysbios_gates_GateMutex_Module__root__V
c0ae9008   ti_sysbios_gates_GateMutex_Object__DESC__C
c0ae9298   ti_sysbios_gates_GateMutex_Object__PARAMS__C
c0ad8940   ti_sysbios_gates_GateMutex_Object__create__S
c0adb300   ti_sysbios_gates_GateMutex_Object__delete__S
c0aeb0f0   ti_sysbios_gates_GateMutex_Object__table__V
c0ac1260   ti_sysbios_gates_GateMutex_enter__E
c0adcd60   ti_sysbios_gates_GateMutex_leave__E
c0ade2e0   ti_sysbios_gates_GateMutex_query__E
c0ade2e0   ti_sysbios_gates_GateMutex_query__F
c0ade140   ti_sysbios_hal_Cache_CacheProxy_inv__E
c0ade160   ti_sysbios_hal_Cache_CacheProxy_wbInv__E
c0ade140   ti_sysbios_hal_Cache_inv__E
c0ade160   ti_sysbios_hal_Cache_wbInv__E
c0ae94e0   ti_sysbios_hal_Hwi_E_stackOverflow__C
c0ade300   ti_sysbios_hal_Hwi_HwiProxy_Module__startupDone__S
c0ade320   ti_sysbios_hal_Hwi_HwiProxy_Object__create__S
c0ade340   ti_sysbios_hal_Hwi_HwiProxy_Object__delete__S
c0ade180   ti_sysbios_hal_Hwi_HwiProxy_clearInterrupt__E
c0adcca0   ti_sysbios_hal_Hwi_HwiProxy_disableInterrupt__E
c0adcd20   ti_sysbios_hal_Hwi_HwiProxy_enableInterrupt__E
c0ade1a0   ti_sysbios_hal_Hwi_HwiProxy_startup__E
c0ade1c0   ti_sysbios_hal_Hwi_HwiProxy_switchFromBootStack__E
c0adcda0   ti_sysbios_hal_Hwi_Instance_finalize__F
c0adb360   ti_sysbios_hal_Hwi_Instance_init__F
c0ae9724   ti_sysbios_hal_Hwi_Module__id__C
c0aea4fc   ti_sysbios_hal_Hwi_Module__root__V
c0ade360   ti_sysbios_hal_Hwi_Module_startup__E
c0ade360   ti_sysbios_hal_Hwi_Module_startup__F
c0ae9028   ti_sysbios_hal_Hwi_Object__DESC__C
c0ae8d00   ti_sysbios_hal_Hwi_Object__PARAMS__C
c0acb4e0   ti_sysbios_hal_Hwi_Object__create__S
c0adb3c0   ti_sysbios_hal_Hwi_Object__delete__S
c0aeb440   ti_sysbios_hal_Hwi_Object__table__V
c0ade380   ti_sysbios_hal_Hwi_Params__init__S
c0adb420   ti_sysbios_hal_Hwi_checkStack
c0ade180   ti_sysbios_hal_Hwi_clearInterrupt__E
c0adcca0   ti_sysbios_hal_Hwi_disableInterrupt__E
c0adcd20   ti_sysbios_hal_Hwi_enableInterrupt__E
c0adb480   ti_sysbios_hal_Hwi_initStack
c0ade1a0   ti_sysbios_hal_Hwi_startup__E
c0ade1c0   ti_sysbios_hal_Hwi_switchFromBootStack__E
c0aea504   ti_sysbios_hal_Timer_Module__root__V
c0adcde0   ti_sysbios_hal_Timer_Module__startupDone__F
c0adcde0   ti_sysbios_hal_Timer_Module__startupDone__S
c0ade3a0   ti_sysbios_hal_Timer_Module_startup__E
c0ade3a0   ti_sysbios_hal_Timer_Module_startup__F
c0aeb448   ti_sysbios_hal_Timer_Object__table__V
c0ade3c0   ti_sysbios_hal_Timer_TimerProxy_Module__startupDone__S
c0ade3e0   ti_sysbios_hal_Timer_TimerProxy_getExpiredCounts__E
c0ade400   ti_sysbios_hal_Timer_TimerProxy_getPeriod__E
c0ade420   ti_sysbios_hal_Timer_TimerProxy_setNextTick__E
c0ad1440   ti_sysbios_hal_Timer_TimerProxy_startup__E
c0ad1440   ti_sysbios_hal_Timer_startup__E
c0ae94e4   ti_sysbios_heaps_HeapMem_A_align__C
c0ae94e8   ti_sysbios_heaps_HeapMem_A_heapSize__C
c0ae94ec   ti_sysbios_heaps_HeapMem_A_invalidFree__C
c0ae94f0   ti_sysbios_heaps_HeapMem_A_zeroBlock__C
c0ae94f4   ti_sysbios_heaps_HeapMem_E_memory__C
c0adb4e0   ti_sysbios_heaps_HeapMem_Handle__label__S
c0200000   ti_sysbios_heaps_HeapMem_Instance_State_0_buf__A
c0aae8a0   ti_sysbios_heaps_HeapMem_Instance_init__F
c0ade440   ti_sysbios_heaps_HeapMem_Module_GateProxy_enter__E
c0ade460   ti_sysbios_heaps_HeapMem_Module_GateProxy_leave__E
c0ade2e0   ti_sysbios_heaps_HeapMem_Module_GateProxy_query__E
c0ae8da8   ti_sysbios_heaps_HeapMem_Module__FXNS__C
c0ae94f8   ti_sysbios_heaps_HeapMem_Module__diagsEnabled__C
c0ae94fc   ti_sysbios_heaps_HeapMem_Module__diagsIncluded__C
c0ae9500   ti_sysbios_heaps_HeapMem_Module__diagsMask__C
c0ae9504   ti_sysbios_heaps_HeapMem_Module__gateObj__C
c0ae9728   ti_sysbios_heaps_HeapMem_Module__id__C
c0aea50c   ti_sysbios_heaps_HeapMem_Module__root__V
c0ae9048   ti_sysbios_heaps_HeapMem_Object__DESC__C
c0ae8eb4   ti_sysbios_heaps_HeapMem_Object__PARAMS__C
c0ae9508   ti_sysbios_heaps_HeapMem_Object__count__C
c0ad89c0   ti_sysbios_heaps_HeapMem_Object__create__S
c0adb540   ti_sysbios_heaps_HeapMem_Object__delete__S
c0adce20   ti_sysbios_heaps_HeapMem_Object__get__S
c0aeb378   ti_sysbios_heaps_HeapMem_Object__table__V
c0a99340   ti_sysbios_heaps_HeapMem_alloc__E
c0a99940   ti_sysbios_heaps_HeapMem_free__E
c0ad3a20   ti_sysbios_heaps_HeapMem_getStats__E
c0ad6620   ti_sysbios_heaps_HeapMem_init__I
c0ade480   ti_sysbios_heaps_HeapMem_isBlocking__E
c0ae950c   ti_sysbios_heaps_HeapMem_reqAlign__C
c0aeb268   ti_sysbios_io_DEV_Module_State_0_table__A
c0ae972c   ti_sysbios_io_DEV_Module__id__C
c0aea514   ti_sysbios_io_DEV_Module__root__V
c0aea51c   ti_sysbios_io_DEV_Module__state__V
c0abb6a0   ti_sysbios_io_DEV_Module_startup__E
c0abb6a0   ti_sysbios_io_DEV_Module_startup__F
c0ae9510   ti_sysbios_io_DEV_Object__count__C
c0adce60   ti_sysbios_io_DEV_Object__get__S
c0aeb1a0   ti_sysbios_io_DEV_Object__table__V
c0ade4a0   ti_sysbios_io_DEV_getDevp__E
c0ade4c0   ti_sysbios_io_DEV_getFxns__E
c0acd6c0   ti_sysbios_io_DEV_match__E
c0ae9514   ti_sysbios_io_DEV_tableSize__C
c0ae9518   ti_sysbios_io_GIO_A_badModel__C
c0ae951c   ti_sysbios_io_GIO_E_createFailed__C
c0ae9520   ti_sysbios_io_GIO_E_notFound__C
c0ae9524   ti_sysbios_io_GIO_Instance_State_doneList__O
c0ae9528   ti_sysbios_io_GIO_Instance_State_freeList__O
c0acb600   ti_sysbios_io_GIO_Instance_finalize__F
c0aa9520   ti_sysbios_io_GIO_Instance_init__F
c0ae952c   ti_sysbios_io_GIO_Module__diagsEnabled__C
c0ae9530   ti_sysbios_io_GIO_Module__diagsIncluded__C
c0ae9534   ti_sysbios_io_GIO_Module__diagsMask__C
c0ae9730   ti_sysbios_io_GIO_Module__id__C
c0aea520   ti_sysbios_io_GIO_Module__root__V
c0ae9068   ti_sysbios_io_GIO_Object__DESC__C
c0ae8d2c   ti_sysbios_io_GIO_Object__PARAMS__C
c0acb720   ti_sysbios_io_GIO_Object__create__S
c0ade4e0   ti_sysbios_io_GIO_Params__init__S
c0adcea0   ti_sysbios_io_GIO_control__E
c0ab9820   ti_sysbios_io_GIO_issue__E
c0ac55e0   ti_sysbios_io_GIO_reclaim__E
c0abd880   ti_sysbios_io_GIO_submit__E
c0ae9538   ti_sysbios_knl_Clock_A_badThreadType__C
c0ac81c0   ti_sysbios_knl_Clock_Instance_finalize__F
c0ab39e0   ti_sysbios_knl_Clock_Instance_init__F
c0ae953c   ti_sysbios_knl_Clock_LM_begin__C
c0ae9540   ti_sysbios_knl_Clock_LM_tick__C
c0ae9544   ti_sysbios_knl_Clock_LW_delayed__C
c0ae9548   ti_sysbios_knl_Clock_Module_State_clockQ__O
c0ae954c   ti_sysbios_knl_Clock_Module__diagsEnabled__C
c0ae9550   ti_sysbios_knl_Clock_Module__diagsIncluded__C
c0ae9554   ti_sysbios_knl_Clock_Module__diagsMask__C
c0ae9734   ti_sysbios_knl_Clock_Module__id__C
c0ae9738   ti_sysbios_knl_Clock_Module__loggerDefined__C
c0ae9558   ti_sysbios_knl_Clock_Module__loggerFxn1__C
c0ae955c   ti_sysbios_knl_Clock_Module__loggerFxn2__C
c0ae9560   ti_sysbios_knl_Clock_Module__loggerObj__C
c0aea528   ti_sysbios_knl_Clock_Module__root__V
c0aea530   ti_sysbios_knl_Clock_Module__state__V
c0ad8a40   ti_sysbios_knl_Clock_Module_startup__E
c0ad8a40   ti_sysbios_knl_Clock_Module_startup__F
c0ae9088   ti_sysbios_knl_Clock_Object__DESC__C
c0ae8ed8   ti_sysbios_knl_Clock_Object__PARAMS__C
c0ad66c0   ti_sysbios_knl_Clock_Object__create__S
c0adcee0   ti_sysbios_knl_Clock_Object__destruct__S
c0ade500   ti_sysbios_knl_Clock_Params__init__S
c0ad8ac0   ti_sysbios_knl_Clock_doTick__I
c0ad8b40   ti_sysbios_knl_Clock_getTicks__E
c0ad3ae0   ti_sysbios_knl_Clock_logTick__E
c0acd7c0   ti_sysbios_knl_Clock_startI__E
c0ad1360   ti_sysbios_knl_Clock_start__E
c0ae9564   ti_sysbios_knl_Clock_tickMode__C
c0ae9568   ti_sysbios_knl_Clock_tickPeriod__C
c0ae956c   ti_sysbios_knl_Clock_tickSource__C
c0ab1920   ti_sysbios_knl_Clock_workFunc__E
c0ae9410   ti_sysbios_knl_Idle_coreList__A
c0ae9418   ti_sysbios_knl_Idle_coreList__C
c0ae9420   ti_sysbios_knl_Idle_funcList__A
c0ae9428   ti_sysbios_knl_Idle_funcList__C
c0ade520   ti_sysbios_knl_Idle_loop__E
c0ad6760   ti_sysbios_knl_Idle_run__E
c0ade540   ti_sysbios_knl_Queue_Instance_init__F
c0aea558   ti_sysbios_knl_Queue_Module__root__V
c0ae90a8   ti_sysbios_knl_Queue_Object__DESC__C
c0ae92b0   ti_sysbios_knl_Queue_Object__PARAMS__C
c0ad8bc0   ti_sysbios_knl_Queue_Object__create__S
c0adb5a0   ti_sysbios_knl_Queue_Object__delete__S
c0ade560   ti_sysbios_knl_Queue_Object__destruct__S
c0ade580   ti_sysbios_knl_Queue_Object__get__S
c0ade5a0   ti_sysbios_knl_Queue_empty__E
c0adcf20   ti_sysbios_knl_Queue_get__E
c0ade5c0   ti_sysbios_knl_Queue_head__E
c0ade5e0   ti_sysbios_knl_Queue_next__E
c0adcf60   ti_sysbios_knl_Queue_put__E
c0ade600   ti_sysbios_knl_Queue_remove__E
c0ae9570   ti_sysbios_knl_Semaphore_A_badContext__C
c0ae9574   ti_sysbios_knl_Semaphore_A_noEvents__C
c0ae9578   ti_sysbios_knl_Semaphore_A_overflow__C
c0ae957c   ti_sysbios_knl_Semaphore_Instance_State_pendQ__O
c0ade620   ti_sysbios_knl_Semaphore_Instance_finalize__F
c0ac8300   ti_sysbios_knl_Semaphore_Instance_init__F
c0ae9580   ti_sysbios_knl_Semaphore_LM_pend__C
c0ae9584   ti_sysbios_knl_Semaphore_LM_post__C
c0ae9588   ti_sysbios_knl_Semaphore_Module__diagsEnabled__C
c0ae958c   ti_sysbios_knl_Semaphore_Module__diagsIncluded__C
c0ae9590   ti_sysbios_knl_Semaphore_Module__diagsMask__C
c0ae973c   ti_sysbios_knl_Semaphore_Module__id__C
c0ae9740   ti_sysbios_knl_Semaphore_Module__loggerDefined__C
c0ae9594   ti_sysbios_knl_Semaphore_Module__loggerFxn2__C
c0ae9598   ti_sysbios_knl_Semaphore_Module__loggerFxn4__C
c0ae959c   ti_sysbios_knl_Semaphore_Module__loggerObj__C
c0aea560   ti_sysbios_knl_Semaphore_Module__root__V
c0ae90c8   ti_sysbios_knl_Semaphore_Object__DESC__C
c0ae8efc   ti_sysbios_knl_Semaphore_Object__PARAMS__C
c0ad6800   ti_sysbios_knl_Semaphore_Object__create__S
c0adb600   ti_sysbios_knl_Semaphore_Object__delete__S
c0adcfa0   ti_sysbios_knl_Semaphore_Object__destruct__S
c0ade640   ti_sysbios_knl_Semaphore_Params__init__S
c0adb660   ti_sysbios_knl_Semaphore_pendTimeout__I
c0a9e520   ti_sysbios_knl_Semaphore_pend__E
c0ab8700   ti_sysbios_knl_Semaphore_post__E
c0ade660   ti_sysbios_knl_Semaphore_reset__E
c0ae95a0   ti_sysbios_knl_Swi_A_badPriority__C
c0ad3ba0   ti_sysbios_knl_Swi_Instance_finalize__F
c0abf320   ti_sysbios_knl_Swi_Instance_init__F
c0ae95a4   ti_sysbios_knl_Swi_LD_end__C
c0ae95a8   ti_sysbios_knl_Swi_LM_begin__C
c0ae95ac   ti_sysbios_knl_Swi_LM_post__C
c0aeab88   ti_sysbios_knl_Swi_Module_State_0_readyQ__A
c0ae95b0   ti_sysbios_knl_Swi_Module__diagsEnabled__C
c0ae95b4   ti_sysbios_knl_Swi_Module__diagsIncluded__C
c0ae95b8   ti_sysbios_knl_Swi_Module__diagsMask__C
c0ae9744   ti_sysbios_knl_Swi_Module__id__C
c0ae9748   ti_sysbios_knl_Swi_Module__loggerDefined__C
c0ae95bc   ti_sysbios_knl_Swi_Module__loggerFxn1__C
c0ae95c0   ti_sysbios_knl_Swi_Module__loggerFxn4__C
c0ae95c4   ti_sysbios_knl_Swi_Module__loggerObj__C
c0aea568   ti_sysbios_knl_Swi_Module__root__V
c0aea570   ti_sysbios_knl_Swi_Module__state__V
c0adb6c0   ti_sysbios_knl_Swi_Module_startup__E
c0adb6c0   ti_sysbios_knl_Swi_Module_startup__F
c0ae90e8   ti_sysbios_knl_Swi_Object__DESC__C
c0ae8dd0   ti_sysbios_knl_Swi_Object__PARAMS__C
c0ae95c8   ti_sysbios_knl_Swi_Object__count__C
c0acb840   ti_sysbios_knl_Swi_Object__create__S
c0adb720   ti_sysbios_knl_Swi_Object__delete__S
c0adcfe0   ti_sysbios_knl_Swi_Object__get__S
c0aeb1d0   ti_sysbios_knl_Swi_Object__table__V
c0ade680   ti_sysbios_knl_Swi_Params__init__S
c0ade6a0   ti_sysbios_knl_Swi_disable__E
c0ac8440   ti_sysbios_knl_Swi_post__E
c0acd8c0   ti_sysbios_knl_Swi_restoreHwi__E
c0ab9a40   ti_sysbios_knl_Swi_run__I
c0ac2da0   ti_sysbios_knl_Swi_schedule__I
c0ad8c40   ti_sysbios_knl_Swi_startup__E
c0ae95cc   ti_sysbios_knl_Task_A_badPriority__C
c0ae95d0   ti_sysbios_knl_Task_A_badTaskState__C
c0ae95d4   ti_sysbios_knl_Task_A_badThreadType__C
c0ae95d8   ti_sysbios_knl_Task_A_badTimeout__C
c0ae95dc   ti_sysbios_knl_Task_A_noPendElem__C
c0ae95e0   ti_sysbios_knl_Task_E_deleteNotAllowed__C
c0ae95e4   ti_sysbios_knl_Task_E_spOutOfBounds__C
c0ae95e8   ti_sysbios_knl_Task_E_stackOverflow__C
c0a00000   ti_sysbios_knl_Task_Instance_State_0_hookEnv__A
c0a66730   ti_sysbios_knl_Task_Instance_State_0_stack__A
c0a00008   ti_sysbios_knl_Task_Instance_State_1_hookEnv__A
c0a68730   ti_sysbios_knl_Task_Instance_State_1_stack__A
c0a00010   ti_sysbios_knl_Task_Instance_State_2_hookEnv__A
c0a68f30   ti_sysbios_knl_Task_Instance_State_2_stack__A
c0a00018   ti_sysbios_knl_Task_Instance_State_3_hookEnv__A
c0a69730   ti_sysbios_knl_Task_Instance_State_3_stack__A
c0a00020   ti_sysbios_knl_Task_Instance_State_4_hookEnv__A
c0a6b730   ti_sysbios_knl_Task_Instance_State_4_stack__A
c0a980c0   ti_sysbios_knl_Task_Instance_finalize__F
c0aa6680   ti_sysbios_knl_Task_Instance_init__F
c0ae95ec   ti_sysbios_knl_Task_LD_block__C
c0ae95f0   ti_sysbios_knl_Task_LD_exit__C
c0ae95f4   ti_sysbios_knl_Task_LD_ready__C
c0ae95f8   ti_sysbios_knl_Task_LM_setPri__C
c0ae95fc   ti_sysbios_knl_Task_LM_sleep__C
c0ae9600   ti_sysbios_knl_Task_LM_switch__C
c0aeb478   ti_sysbios_knl_Task_Module_State_0_idleTask__A
c0aeac08   ti_sysbios_knl_Task_Module_State_0_readyQ__A
c0ae9604   ti_sysbios_knl_Task_Module_State_inactiveQ__O
c0ae9608   ti_sysbios_knl_Task_Module_State_terminatedQ__O
c0ae960c   ti_sysbios_knl_Task_Module__diagsEnabled__C
c0ae9610   ti_sysbios_knl_Task_Module__diagsIncluded__C
c0ae9614   ti_sysbios_knl_Task_Module__diagsMask__C
c0ae974c   ti_sysbios_knl_Task_Module__id__C
c0ae9750   ti_sysbios_knl_Task_Module__loggerDefined__C
c0ae9618   ti_sysbios_knl_Task_Module__loggerFxn2__C
c0ae961c   ti_sysbios_knl_Task_Module__loggerFxn4__C
c0ae9620   ti_sysbios_knl_Task_Module__loggerObj__C
c0aea58c   ti_sysbios_knl_Task_Module__root__V
c0aea594   ti_sysbios_knl_Task_Module__state__V
c0aa0600   ti_sysbios_knl_Task_Module_startup__E
c0aa0600   ti_sysbios_knl_Task_Module_startup__F
c0ae9108   ti_sysbios_knl_Task_Object__DESC__C
c0ae8a98   ti_sysbios_knl_Task_Object__PARAMS__C
c0ae9624   ti_sysbios_knl_Task_Object__count__C
c0acb960   ti_sysbios_knl_Task_Object__create__S
c0adb780   ti_sysbios_knl_Task_Object__delete__S
c0ade6c0   ti_sysbios_knl_Task_Object__first__S
c0add020   ti_sysbios_knl_Task_Object__get__S
c0ae9628   ti_sysbios_knl_Task_Object__heap__C
c0ade6e0   ti_sysbios_knl_Task_Object__next__S
c0aea838   ti_sysbios_knl_Task_Object__table__V
c0ade700   ti_sysbios_knl_Task_Params__init__S
c0ade720   ti_sysbios_knl_Task_SupportProxy_Module__startupDone__S
c0ade100   ti_sysbios_knl_Task_SupportProxy_checkStack__E
c0ade120   ti_sysbios_knl_Task_SupportProxy_getStackAlignment__E
c0ad8740   ti_sysbios_knl_Task_SupportProxy_start__E
c0ad7f40   ti_sysbios_knl_Task_SupportProxy_swap__E
c0ae962c   ti_sysbios_knl_Task_allBlockedFunc__C
c0ad3c60   ti_sysbios_knl_Task_allBlockedFunction__I
c0ac8580   ti_sysbios_knl_Task_blockI__E
c0abf4e0   ti_sysbios_knl_Task_checkStacks__E
c0ae9630   ti_sysbios_knl_Task_defaultStackHeap__C
c0ae9634   ti_sysbios_knl_Task_defaultStackSize__C
c0ad68a0   ti_sysbios_knl_Task_deleteTerminatedTasksFunc__I
c0ae9754   ti_sysbios_knl_Task_deleteTerminatedTasks__C
c0ade740   ti_sysbios_knl_Task_disable__E
c0ade760   ti_sysbios_knl_Task_enable__E
c0adb7e0   ti_sysbios_knl_Task_enter__I
c0aafec0   ti_sysbios_knl_Task_exit__E
c0ade780   ti_sysbios_knl_Task_getHookContext__E
c0adb840   ti_sysbios_knl_Task_getMode__E
c0ade7a0   ti_sysbios_knl_Task_getPri__E
c0ae8c48   ti_sysbios_knl_Task_hooks__A
c0ae9430   ti_sysbios_knl_Task_hooks__C
c0ae9758   ti_sysbios_knl_Task_initStackFlag__C
c0ae9638   ti_sysbios_knl_Task_numConstructedTasks__C
c0ae963c   ti_sysbios_knl_Task_numPriorities__C
c0abda60   ti_sysbios_knl_Task_postInit__I
c0ad8cc0   ti_sysbios_knl_Task_restore__E
c0ab9c60   ti_sysbios_knl_Task_schedule__I
c0ade7c0   ti_sysbios_knl_Task_self__E
c0ade7e0   ti_sysbios_knl_Task_setHookContext__E
c0aa6a40   ti_sysbios_knl_Task_setPri__E
c0add060   ti_sysbios_knl_Task_sleepTimeout__I
c0ab1bc0   ti_sysbios_knl_Task_sleep__E
c0ab9e80   ti_sysbios_knl_Task_startCore__E
c0ade800   ti_sysbios_knl_Task_startup__E
c0ac2f20   ti_sysbios_knl_Task_unblockI__E
c0ae9640   ti_sysbios_timers_timer64_Timer_A_notAvailable__C
c0ae9644   ti_sysbios_timers_timer64_Timer_E_cannotSupport__C
c0aeade0   ti_sysbios_timers_timer64_Timer_Module_State_0_device__A
c0aeb288   ti_sysbios_timers_timer64_Timer_Module_State_0_gctrl__A
c0aeb2a8   ti_sysbios_timers_timer64_Timer_Module_State_0_handles__A
c0aeb2c8   ti_sysbios_timers_timer64_Timer_Module_State_0_intFreqs__A
c0ae9648   ti_sysbios_timers_timer64_Timer_Module__diagsEnabled__C
c0ae964c   ti_sysbios_timers_timer64_Timer_Module__diagsIncluded__C
c0ae9650   ti_sysbios_timers_timer64_Timer_Module__diagsMask__C
c0ae975c   ti_sysbios_timers_timer64_Timer_Module__id__C
c0aea5dc   ti_sysbios_timers_timer64_Timer_Module__root__V
c0add0a0   ti_sysbios_timers_timer64_Timer_Module__startupDone__F
c0add0a0   ti_sysbios_timers_timer64_Timer_Module__startupDone__S
c0aea5e4   ti_sysbios_timers_timer64_Timer_Module__state__V
c0a9aac0   ti_sysbios_timers_timer64_Timer_Module_startup__E
c0a9aac0   ti_sysbios_timers_timer64_Timer_Module_startup__F
c0aeaee0   ti_sysbios_timers_timer64_Timer_Object__table__V
c0adb120   ti_sysbios_timers_timer64_Timer_TimerSupportProxy_enable__E
c0ae9654   ti_sysbios_timers_timer64_Timer_anyMask__C
c0ae9658   ti_sysbios_timers_timer64_Timer_freqDivisor__C
c0ad8d40   ti_sysbios_timers_timer64_Timer_getCount__E
c0ad8d40   ti_sysbios_timers_timer64_Timer_getExpiredCounts__E
c0abdc40   ti_sysbios_timers_timer64_Timer_getFreq__E
c0ad8dc0   ti_sysbios_timers_timer64_Timer_getPeriod__E
c0ae965c   ti_sysbios_timers_timer64_Timer_numLocalTimers__C
c0ae9660   ti_sysbios_timers_timer64_Timer_numTimerDevices__C
c0ade820   ti_sysbios_timers_timer64_Timer_setNextTick__E
c0abf6a0   ti_sysbios_timers_timer64_Timer_setPeriodMicroSecs__E
c0ac1400   ti_sysbios_timers_timer64_Timer_start__E
c0ae9760   ti_sysbios_timers_timer64_Timer_startupNeeded__C
c0ad1440   ti_sysbios_timers_timer64_Timer_startup__E
c0ad3d20   ti_sysbios_timers_timer64_Timer_stop__E
c0ae9664   ti_sysbios_xdcruntime_SemThreadSupport_Instance_State_sem__O
c0ade840   ti_sysbios_xdcruntime_SemThreadSupport_Instance_finalize__F
c0ad8e40   ti_sysbios_xdcruntime_SemThreadSupport_Instance_init__F
c0aea5f8   ti_sysbios_xdcruntime_SemThreadSupport_Module__root__V
c0ae9128   ti_sysbios_xdcruntime_SemThreadSupport_Object__DESC__C
c0ae91e4   ti_sysbios_xdcruntime_SemThreadSupport_Object__PARAMS__C
c0ad6940   ti_sysbios_xdcruntime_SemThreadSupport_Object__create__S
c0adb8a0   ti_sysbios_xdcruntime_SemThreadSupport_Object__delete__S
c0ade860   ti_sysbios_xdcruntime_SemThreadSupport_Params__init__S
c0ad3de0   ti_sysbios_xdcruntime_SemThreadSupport_pend__E
c0ad3de0   ti_sysbios_xdcruntime_SemThreadSupport_pend__F
c0add0e0   ti_sysbios_xdcruntime_SemThreadSupport_post__E
c0add0e0   ti_sysbios_xdcruntime_SemThreadSupport_post__F
c0a764b8   tpseudo
c0a96f18   tskImageInput
c0ad6580   tskImageProcess
c0aa1a0c   tskTcpClient
c0aa17a0   tskTcpServer
c0aebbb4   tuichao1
c0aebbb5   tuichao2
c0aebae0   txFreeQ
c0aebae4   txPendingQ
c0aebb9c   uartRegs1
c0aebba0   uartRegs2
c0a76884   udp6_stats
c0a76800   udps
c0ad8ec0   unlink
c0a76824   upseudo
c0aebc7c   userInitConfig
c0a708a0   userInstInitConfigArray
c0a96ee0   userVpif0Init
c0a768e0   vbiData
c0a7685c   vlan_mcb
c0a76830   vpifI2cParams
c0a7a474   vpifIsr
c0a768ec   vpifParams
c0aa5b40   vpifUserI2cInit
c0a768d8   wrCbData
c0ad69e0   write
c0a76620   writeBuf
c0a76648   writeBuffer
c0a76678   writeIoPacket
c0adb900   writemsg
c0ae9668   xdc_runtime_Assert_E_assertFailed__C
c0ad6a80   xdc_runtime_Assert_raise__I
c0ae966c   xdc_runtime_Core_A_initializedParams__C
c0ae9670   xdc_runtime_Core_Module__diagsEnabled__C
c0ae9674   xdc_runtime_Core_Module__diagsIncluded__C
c0ae9678   xdc_runtime_Core_Module__diagsMask__C
c0ae9764   xdc_runtime_Core_Module__id__C
c0ad8f40   xdc_runtime_Core_assignLabel__I
c0ad8fc0   xdc_runtime_Core_assignParams__I
c0ab3c60   xdc_runtime_Core_createObject__I
c0acdac0   xdc_runtime_Core_deleteObject__I
c0ae967c   xdc_runtime_Error_E_generic__C
c0ae9680   xdc_runtime_Error_E_memory__C
c0ae9684   xdc_runtime_Error_Module__diagsEnabled__C
c0ae9688   xdc_runtime_Error_Module__diagsIncluded__C
c0ae968c   xdc_runtime_Error_Module__diagsMask__C
c0ae9768   xdc_runtime_Error_Module__loggerDefined__C
c0ae9690   xdc_runtime_Error_Module__loggerFxn8__C
c0ae9694   xdc_runtime_Error_Module__loggerObj__C
c0aea600   xdc_runtime_Error_Module__state__V
c0add120   xdc_runtime_Error_check__E
c0add120   xdc_runtime_Error_check__F
c0ade880   xdc_runtime_Error_getMsg__E
c0ade880   xdc_runtime_Error_getMsg__F
c0add160   xdc_runtime_Error_init__E
c0add160   xdc_runtime_Error_init__F
c0ae976c   xdc_runtime_Error_maxDepth__C
c0ae9698   xdc_runtime_Error_policy__C
c0ad1520   xdc_runtime_Error_print__E
c0ad1520   xdc_runtime_Error_print__F
c0ae969c   xdc_runtime_Error_raiseHook__C
c0ab3ee0   xdc_runtime_Error_raiseX__E
c0ab3ee0   xdc_runtime_Error_raiseX__F
c0ade8a0   xdc_runtime_Gate_enterSystem__E
c0ade8a0   xdc_runtime_Gate_enterSystem__F
c0ade8c0   xdc_runtime_Gate_leaveSystem__E
c0ade8c0   xdc_runtime_Gate_leaveSystem__F
c0ae96a0   xdc_runtime_IGateProvider_Interface__BASE__C
c0ae96a4   xdc_runtime_IHeap_Interface__BASE__C
c0ae96a8   xdc_runtime_IModule_Interface__BASE__C
c0ae96ac   xdc_runtime_Log_L_error__C
c0ade2a0   xdc_runtime_LoggerBuf_Module_GateProxy_query__E
c0aea604   xdc_runtime_LoggerBuf_Module__root__V
c0aea60c   xdc_runtime_LoggerBuf_Module__state__V
c0ad6b20   xdc_runtime_LoggerBuf_Module_startup__E
c0ad6b20   xdc_runtime_LoggerBuf_Module_startup__F
c0ae96b0   xdc_runtime_LoggerBuf_Object__count__C
c0ade920   xdc_runtime_LoggerBuf_Object__get__S
c0ade220   xdc_runtime_LoggerBuf_TimestampProxy_get32__E
c0ade2a0   xdc_runtime_Main_Module_GateProxy_query__E
c0ae96b4   xdc_runtime_Main_Module__diagsEnabled__C
c0ae96b8   xdc_runtime_Main_Module__diagsIncluded__C
c0ae96bc   xdc_runtime_Main_Module__diagsMask__C
c0ae9770   xdc_runtime_Main_Module__id__C
c0ae9774   xdc_runtime_Main_Module__loggerDefined__C
c0ae96c0   xdc_runtime_Main_Module__loggerFxn4__C
c0ae96c4   xdc_runtime_Main_Module__loggerObj__C
c0ade940   xdc_runtime_Memory_HeapProxy_alloc__E
c0ade960   xdc_runtime_Memory_HeapProxy_free__E
c0ae9778   xdc_runtime_Memory_Module__id__C
c0aea614   xdc_runtime_Memory_Module__state__V
c0ad1600   xdc_runtime_Memory_alloc__E
c0ad1600   xdc_runtime_Memory_alloc__F
c0adb960   xdc_runtime_Memory_calloc__E
c0adb960   xdc_runtime_Memory_calloc__F
c0ae96c8   xdc_runtime_Memory_defaultHeapInstance__C
c0add1a0   xdc_runtime_Memory_free__E
c0add1a0   xdc_runtime_Memory_free__F
c0aea618   xdc_runtime_Registry_Module__state__V
c0add1e0   xdc_runtime_Registry_findById__E
c0add1e0   xdc_runtime_Registry_findById__F
c0aea620   xdc_runtime_Startup_Module__state__V
00000001   xdc_runtime_Startup__EXECFXN__C
00000001   xdc_runtime_Startup__RESETFXN__C
c0ae96cc   xdc_runtime_Startup_execImpl__C
c0acdbc0   xdc_runtime_Startup_exec__E
c0acdbc0   xdc_runtime_Startup_exec__F
c0ade980   xdc_runtime_Startup_exec__I
c0ae9438   xdc_runtime_Startup_firstFxns__A
c0ae9440   xdc_runtime_Startup_firstFxns__C
c0ae96d0   xdc_runtime_Startup_lastFxns__A
c0ae9448   xdc_runtime_Startup_lastFxns__C
c0ae96d4   xdc_runtime_Startup_maxPasses__C
c0ade9a0   xdc_runtime_Startup_reset__I
c0ae9200   xdc_runtime_Startup_sfxnRts__A
c0ae96d8   xdc_runtime_Startup_sfxnRts__C
c0ae8b10   xdc_runtime_Startup_sfxnTab__A
c0ae96dc   xdc_runtime_Startup_sfxnTab__C
c0ab6520   xdc_runtime_Startup_startMods__I
c0adb9c0   xdc_runtime_SysStd_abort__E
c0adb9c0   xdc_runtime_SysStd_abort__F
c0ade9c0   xdc_runtime_SysStd_exit__E
c0ade9c0   xdc_runtime_SysStd_exit__F
c0ade9e0   xdc_runtime_SysStd_putch__E
c0ade9e0   xdc_runtime_SysStd_putch__F
c0adea00   xdc_runtime_SysStd_ready__E
c0adea00   xdc_runtime_SysStd_ready__F
c0adea20   xdc_runtime_System_Module_GateProxy_enter__E
c0adea40   xdc_runtime_System_Module_GateProxy_leave__E
c0ade2a0   xdc_runtime_System_Module_GateProxy_query__E
c0aeb2e8   xdc_runtime_System_Module_State_0_atexitHandlers__A
c0ae96e0   xdc_runtime_System_Module__gateObj__C
c0aea628   xdc_runtime_System_Module__state__V
c0adea60   xdc_runtime_System_Module_startup__E
c0adea60   xdc_runtime_System_Module_startup__F
c0adb9c0   xdc_runtime_System_SupportProxy_abort__E
c0ade9c0   xdc_runtime_System_SupportProxy_exit__E
c0ade9e0   xdc_runtime_System_SupportProxy_putch__E
c0adea00   xdc_runtime_System_SupportProxy_ready__E
c0add220   xdc_runtime_System_abort__E
c0add220   xdc_runtime_System_abort__F
c0add260   xdc_runtime_System_aprintf__E
c0adba20   xdc_runtime_System_aprintf_va__E
c0adba20   xdc_runtime_System_aprintf_va__F
c0ad9040   xdc_runtime_System_atexit__E
c0ad9040   xdc_runtime_System_atexit__F
c0adba20   xdc_runtime_System_avprintf__E
c0adba20   xdc_runtime_System_avprintf__F
c0a92bc0   xdc_runtime_System_doPrint__I
c0adea80   xdc_runtime_System_exit__E
c0adea80   xdc_runtime_System_exit__F
c0ae96e4   xdc_runtime_System_extendFxn__C
c0ad3ea0   xdc_runtime_System_formatNum__I
c0adeaa0   xdc_runtime_System_lastFxn__I
c0ae96e8   xdc_runtime_System_maxAtexitHandlers__C
c0ab4160   xdc_runtime_System_printfExtend__I
c0add2a0   xdc_runtime_System_printf__E
c0adba80   xdc_runtime_System_printf_va__E
c0adba80   xdc_runtime_System_printf_va__F
c0ad90c0   xdc_runtime_System_rtsExit__I
c0adeac0   xdc_runtime_System_sprintf_va__E
c0adeac0   xdc_runtime_System_sprintf_va__F
c0adba80   xdc_runtime_System_vprintf__E
c0adba80   xdc_runtime_System_vprintf__F
c0adeac0   xdc_runtime_System_vsprintf__E
c0adeac0   xdc_runtime_System_vsprintf__F
c0aea634   xdc_runtime_Text_Module__state__V
c0ae977c   xdc_runtime_Text_charCnt__C
c0ae1870   xdc_runtime_Text_charTab__A
c0ae96ec   xdc_runtime_Text_charTab__C
c0adbae0   xdc_runtime_Text_cordText__E
c0adbae0   xdc_runtime_Text_cordText__F
c0ae9780   xdc_runtime_Text_isLoaded__C
c0ae96f0   xdc_runtime_Text_nameEmpty__C
c0ae96f4   xdc_runtime_Text_nameStatic__C
c0ae96f8   xdc_runtime_Text_nameUnknown__C
c0ae72b0   xdc_runtime_Text_nodeTab__A
c0ae96fc   xdc_runtime_Text_nodeTab__C
c0ad9140   xdc_runtime_Text_printVisFxn__I
c0acba80   xdc_runtime_Text_putLab__E
c0acba80   xdc_runtime_Text_putLab__F
c0acdcc0   xdc_runtime_Text_putMod__E
c0acdcc0   xdc_runtime_Text_putMod__F
c0ac30a0   xdc_runtime_Text_putSite__E
c0ac30a0   xdc_runtime_Text_putSite__F
c0ae9784   xdc_runtime_Text_registryModsLastId__C
c0add2e0   xdc_runtime_Text_ropeText__E
c0add2e0   xdc_runtime_Text_ropeText__F
c0ae9788   xdc_runtime_Text_unnamedModsLastId__C
c0acddc0   xdc_runtime_Text_visitRope2__I
c0ae9700   xdc_runtime_Text_visitRopeFxn__C
c0adeae0   xdc_runtime_Text_visitRope__I
c0ad91c0   xdc_runtime_Text_xprintf__I
c0ade220   xdc_runtime_Timestamp_SupportProxy_get32__E
c0ade220   xdc_runtime_Timestamp_get32__E
c0ade220   xdc_runtime_Timestamp_get32__F
c0ae9704   xdc_runtime_knl_ISemaphore_Interface__BASE__C
c0ae9708   xdc_runtime_knl_ISync_Interface__BASE__C
c0adbb40   xdc_runtime_knl_SemThread_Handle__label__S
c0add320   xdc_runtime_knl_SemThread_Instance_finalize__F
c0ad9240   xdc_runtime_knl_SemThread_Instance_init__F
c0ae9148   xdc_runtime_knl_SemThread_Module__FXNS__C
c0aea63c   xdc_runtime_knl_SemThread_Module__root__V
c0ae9168   xdc_runtime_knl_SemThread_Object__DESC__C
c0ae921c   xdc_runtime_knl_SemThread_Object__PARAMS__C
c0acbba0   xdc_runtime_knl_SemThread_Object__create__S
c0adbba0   xdc_runtime_knl_SemThread_Object__delete__S
c0adeb40   xdc_runtime_knl_SemThread_Params__init__S
c0adeb60   xdc_runtime_knl_SemThread_Proxy_Object__create__S
c0adeb80   xdc_runtime_knl_SemThread_Proxy_Object__delete__S
c0adeba0   xdc_runtime_knl_SemThread_Proxy_Params__init__S
c0adebc0   xdc_runtime_knl_SemThread_Proxy_pend__E
c0adebe0   xdc_runtime_knl_SemThread_Proxy_post__E
c0adec00   xdc_runtime_knl_SemThread_pend__E
c0adec00   xdc_runtime_knl_SemThread_pend__F
c0adec20   xdc_runtime_knl_SemThread_post__E
c0adec20   xdc_runtime_knl_SemThread_post__F
c0aea644   xdc_runtime_knl_SyncNull_Module__root__V
c0adbc00   xdc_runtime_knl_SyncSemThread_Handle__label__S
c0add360   xdc_runtime_knl_SyncSemThread_Instance_finalize__F
c0adbc60   xdc_runtime_knl_SyncSemThread_Instance_init__F
c0ae8f20   xdc_runtime_knl_SyncSemThread_Module__FXNS__C
c0aea64c   xdc_runtime_knl_SyncSemThread_Module__root__V
c0ae9188   xdc_runtime_knl_SyncSemThread_Object__DESC__C
c0ae92c8   xdc_runtime_knl_SyncSemThread_Object__PARAMS__C
c0acdec0   xdc_runtime_knl_SyncSemThread_Object__create__S
c0adbcc0   xdc_runtime_knl_SyncSemThread_Object__delete__S
c0adec40   xdc_runtime_knl_SyncSemThread_query__E
c0adec40   xdc_runtime_knl_SyncSemThread_query__F
c0adec60   xdc_runtime_knl_SyncSemThread_signal__E
c0adec60   xdc_runtime_knl_SyncSemThread_signal__F
c0add3a0   xdc_runtime_knl_SyncSemThread_wait__E
c0add3a0   xdc_runtime_knl_SyncSemThread_wait__F
c0adec80   xdc_runtime_knl_Sync_Proxy_signal__E
c0adeca0   xdc_runtime_knl_Sync_Proxy_wait__E
c0adec80   xdc_runtime_knl_Sync_signal__E
c0adec80   xdc_runtime_knl_Sync_signal__F
c0adeca0   xdc_runtime_knl_Sync_wait__E
c0adeca0   xdc_runtime_knl_Sync_wait__F


GLOBAL SYMBOLS: SORTED BY Symbol Address 

address    name
--------   ----
00000000   _argsize
00000001   __TI_args_main
00000001   xdc_runtime_Startup__EXECFXN__C
00000001   xdc_runtime_Startup__RESETFXN__C
00001000   __TI_STACK_SIZE
80000000   _stack
80001000   __TI_STACK_END
c0200000   __ASM__
c0200000   ti_sysbios_heaps_HeapMem_Instance_State_0_buf__A
c0200078   __ISA__
c0200090   __PLAT__
c02000a8   __TARG__
c02000d0   __TRDR__
c0a00000   ti_sysbios_knl_Task_Instance_State_0_hookEnv__A
c0a00008   ti_sysbios_knl_Task_Instance_State_1_hookEnv__A
c0a00010   ti_sysbios_knl_Task_Instance_State_2_hookEnv__A
c0a00018   ti_sysbios_knl_Task_Instance_State_3_hookEnv__A
c0a00020   ti_sysbios_knl_Task_Instance_State_4_hookEnv__A
c0a00080   ti_ndk_config_Global_pBufMem
c0a4e080   ti_ndk_config_Global_pHdrMem
c0a52b80   ti_ndk_config_Global_pit
c0a52d40   ti_ndk_config_Global_pitBuffer
c0a5ed40   drvObj
c0a5f5f0   drvInstance
c0a61510   edma3DrvChBoundRes
c0a66730   ti_sysbios_knl_Task_Instance_State_0_stack__A
c0a68730   ti_sysbios_knl_Task_Instance_State_1_stack__A
c0a68f30   ti_sysbios_knl_Task_Instance_State_2_stack__A
c0a69730   ti_sysbios_knl_Task_Instance_State_3_stack__A
c0a6b730   ti_sysbios_knl_Task_Instance_State_4_stack__A
c0a6bf30   edma3_dma_ch_max_val
c0a6bf40   edma3_link_ch_min_val
c0a6bf50   edma3_link_ch_max_val
c0a6bf60   edma3_qdma_ch_min_val
c0a6bf70   edma3_qdma_ch_max_val
c0a6bf80   edma3_log_ch_max_val
c0a6bf90   resMgrObj
c0a708a0   userInstInitConfigArray
c0a71860   resMgrInstanceArray
c0a75d0c   raweth_pcb
c0a75d10   MainConfig
c0a75f10   _tmpnams
c0a76338   IPV6_LINKLOCALMASK
c0a76348   IPV6_MULTICASTMASK
c0a76358   IPV6_UNSPECIFIED_ADDRESS
c0a76368   IPV6_LOOPBACK_ADDRESS
c0a76378   IPV6_HOST_MASK
c0a76388   IPV6_ALL_NODES_ADDRESS
c0a76398   IPV6_ALL_ROUTER_ADDRESS
c0a763a8   ipv6mcb
c0a76400   tcps
c0a764b8   tpseudo
c0a764c4   tcp6_stats
c0a76580   _ICMPIn
c0a765d0   _ICMPOut
c0a76620   writeBuf
c0a76648   writeBuffer
c0a76678   writeIoPacket
c0a766b8   BlockMax
c0a766d8   BlockCount
c0a766f8   PageMax
c0a76718   PageCount
c0a76734   ips
c0a7679c   nimu_mcb
c0a76800   udps
c0a76824   upseudo
c0a76830   vpifI2cParams
c0a7685c   vlan_mcb
c0a76884   udp6_stats
c0a768a8   icmp6stats
c0a768d8   wrCbData
c0a768e0   vbiData
c0a768ec   vpifParams
c0a768fc   stkEvent
c0a7690c   raws
c0a7691c   raw6_stats
c0a7692c   raweths
c0a7693c   PBMQ_free
c0a76db4   Vpif_init
c0a7a474   vpifIsr
c0a7eb98   I2c_init
c0a7fa18   i2cCheckAndClearRsFull
c0a807f4   I2c_localPrepareForTransfer
c0a80e78   I2c_localGetNextChannel
c0a8192c   I2c_localEnsureIsReadyforNext
c0a82210   I2c_localLpscOn
c0a8228c   I2c_localLpscOff
c0a8264c   I2c_loadPendedIops
c0a848e0   TcpInput
c0a862e0   TCP6Input
c0a894e0   TcpOutput
c0a8a720   TCP6Output
c0a8b954   initCodecInterface
c0a8be0c   codecWriteReg
c0a8c020   codecReadReg
c0a8c230   codecWriteRegAsync
c0a8c404   deInitCodecInterface
c0a8c6a0   EDMA3_RM_allocResource
c0a8d3a0   EDMA3_DRV_requestChannel
c0a8e000   EMAC_open
c0a8ec60   httpClientProcess
c0a8f860   IPRxPacket
c0a90e90   I2c_localEdmaTransfer
c0a913f4   I2c_completeIOedmaCallback
c0a9174c   I2c_localEdmaChanRequest
c0a91860   IPTxPacket
c0a92220   lcpInput
c0a92bc0   xdc_runtime_System_doPrint__I
c0a93e60   ipcpInput
c0a94640   SockSet
c0a94e00   UARTConfigSetExpClk
c0a94e94   UARTConfigGetExpClk
c0a94f28   UARTFIFOLevelSet
c0a94f4c   UARTDMAEnable
c0a94f6c   UARTDMADisable
c0a94f8c   UARTParityModeSet
c0a94fd4   UARTParityModeGet
c0a94ff8   UARTEnable
c0a95014   UARTDisable
c0a95040   UARTFIFOEnable
c0a95054   UARTFIFODisable
c0a9506c   UARTSpaceAvail
c0a95098   UARTCharsAvail
c0a950c8   UARTRxErrorGet
c0a950e8   UARTCharPutNonBlocking
c0a95128   UARTCharGetNonBlocking
c0a95154   UARTCharGet
c0a95190   UARTCharPut
c0a951e8   UARTIntEnable
c0a95210   UARTIntDisable
c0a95238   UARTIntStatus
c0a95264   UARTBreakCtl
c0a95298   UARTModemControlSet
c0a952f0   UARTModemControlClear
c0a95324   UARTModemControlGet
c0a95344   UARTModemStatusGet
c0a95364   UART_init
c0a95450   UART_txByte
c0a95470   UART_txArray
c0a954d4   UART_txString
c0a95514   UART_txUint8
c0a955a0   fdPoll
c0a95d40   ti_sysbios_family_c64p_Exception_handler__I
c0a964c0   MDIO_timerTick
c0a96ee0   userVpif0Init
c0a96f18   tskImageInput
c0a97a40   ICMPv6RecvRA
c0a980c0   ti_sysbios_knl_Task_Instance_finalize__F
c0a98740   EDMA3_RM_create
c0a98d40   Rt6Create
c0a99340   ti_sysbios_heaps_HeapMem_alloc__E
c0a99940   ti_sysbios_heaps_HeapMem_free__E
c0a99f40   IPReasm
c0a9aac0   ti_sysbios_timers_timer64_Timer_Module_startup__E
c0a9aac0   ti_sysbios_timers_timer64_Timer_Module_startup__F
c0a9b080   EDMA3_RM_freeResource
c0a9b620   ICMPInput
c0a9bbc0   __c6xabi_divd
c0a9c160   pppEvent
c0a9c6e0   IPv6IPAddressToString
c0a9cc40   SockNew
c0a9d160   httpSendStatusLine
c0a9d680   LLIRxPacket
c0a9db60   UdpInput
c0a9e520   ti_sysbios_knl_Semaphore_pend__E
c0a9ea00   EDMA3_DRV_disableTransfer
c0a9eec0   Sock6Connect
c0a9f380   Sock6Set
c0a9f840   Sock6Recv
c0a9fce0   SockRecv
c0aa0180   Bind6New
c0aa0600   ti_sysbios_knl_Task_Module_startup__E
c0aa0600   ti_sysbios_knl_Task_Module_startup__F
c0aa0a80   _printfi
c0aa1340   pppNew
c0aa17a0   tskTcpServer
c0aa1a0c   tskTcpClient
c0aa1c00   Sock6New
c0aa2040   fdSelect
c0aa2ce0   chapInput
c0aa3520   Sock6Send
c0aa3920   efs_filecheck
c0aa3d20   IPv6TxFragPacket
c0aa4100   EDMA3_DRV_freeChannel
c0aa44c0   EMAC_close
c0aa4880   IPv6TxPacket
c0aa5000   SockSend
c0aa53c0   TCP6TimeoutCheck
c0aa5780   TcpTimeoutCheck
c0aa5b40   vpifUserI2cInit
c0aa5bb8   configureGuaoC6748
c0aa5f00   NetworkMain
c0aa62c0   strtol
c0aa6680   ti_sysbios_knl_Task_Instance_init__F
c0aa6a40   ti_sysbios_knl_Task_setPri__E
c0aa6e00   NIMUIoctl
c0aa71a0   RtCreate
c0aa7540   SBRead
c0aa78e0   fputs
c0aa7c80   papInput
c0aa8020   EDMA3_DRV_enableTransfer
c0aa83a0   ICMPv6RxPacket
c0aa8720   IGMPInput
c0aa8aa0   Psc_ModuleClkCtrl
c0aa8da8   Psc_getDependencyCount
c0aa8df0   Psc_init
c0aa8e20   SockConnect
c0aa91a0   dhcpPacketProcess
c0aa9520   ti_sysbios_io_GIO_Instance_init__F
c0aa9c00   LLITxIpPacket
c0aa9f60   Sock6Notify
c0aaa2c0   SockNotify
c0aaa620   ICMPv6SendParameterProblem
c0aaa960   mmAlloc
c0aaaca0   pppoeSI
c0aaafe0   CfgAddEntry
c0aab300   ICMPv6RecvRedirect
c0aabf80   ICMPv6SendDstUnreachable
c0aac280   ICMPv6SendTimeExceeded
c0aac880   Sock6PcbBind
c0aacb80   Udp6Input
c0aace80   inet_aton
c0aad180   ti_sysbios_family_c64p_Hwi_dispatchC__I
c0aad480   HwPktOpen
c0aad760   ICMPv6RecvNS
c0aada40   Rt6Find
c0aae000   UdpOutput
c0aae5c0   pppInput
c0aae8a0   ti_sysbios_heaps_HeapMem_Instance_init__F
c0aaeb80   BindNew
c0aaf100   RtFind
c0aaf3c0   SB6Read
c0aaf680   Sock6PcbResolve
c0aaf940   Udp6Output
c0aafec0   TaskExit
c0aafec0   ti_sysbios_knl_Task_exit__E
c0ab0180   DHCPOpen
c0ab0420   IPv6ParseExtnHeaders
c0ab06c0   NodeAdd
c0ab0c00   SockClose
c0ab0ea0   TCP6PrSetOption
c0ab1140   TcpPrSetOption
c0ab1920   ti_sysbios_knl_Clock_workFunc__E
c0ab1bc0   TaskSleep
c0ab1bc0   ti_sysbios_knl_Task_sleep__E
c0ab1e60   CfgSave
c0ab20e0   ICMPGenPacket
c0ab2860   Rt6Free
c0ab2ae0   SockPcbResolve
c0ab2d60   SockRecvNC
c0ab2fe0   TCP6GenPacket
c0ab3760   ti_sysbios_family_c64p_Cache_Module_startup__E
c0ab3760   ti_sysbios_family_c64p_Cache_Module_startup__F
c0ab39e0   ti_sysbios_knl_Clock_Instance_init__F
c0ab3c60   xdc_runtime_Core_createObject__I
c0ab3ee0   xdc_runtime_Error_raiseX__E
c0ab3ee0   xdc_runtime_Error_raiseX__F
c0ab4160   xdc_runtime_System_printfExtend__I
c0ab43e0   ICMPv6SendNS
c0ab4640   Interrupt_add
c0ab48a0   LLI6TxIPPacket
c0ab4b00   NIMUReceivePacket
c0ab4d60   RawEthSockSet
c0ab4fc0   SB6Write
c0ab5220   SBWrite
c0ab5480   Sock6Close
c0ab56e0   SockPcbBind
c0ab5940   __c6xabi_divull
c0ab5e00   httpParseRecv
c0ab6520   xdc_runtime_Startup_startMods__I
c0ab69c0   DaemonNew
c0ab6c00   EDMA3_RM_registerTccCb
c0ab6e40   EDMA3_RM_unregisterTccCb
c0ab72c0   ICMPv6RecvNA
c0ab7500   ICMPv6SendNA
c0ab7740   PipeRecv
c0ab7980   RawInput
c0ab8040   dhcpState
c0ab8280   dhcpVerifyMessage
c0ab84c0   ti_sysbios_family_c64p_Exception_internalHandler__I
c0ab8700   ti_sysbios_knl_Semaphore_post__E
c0ab8b60   IPv6RxPacket
c0ab8d80   RawEthSockNew
c0ab93e0   fputc
c0ab9820   ti_sysbios_io_GIO_issue__E
c0ab9a40   ti_sysbios_knl_Swi_run__I
c0ab9c60   ti_sysbios_knl_Task_schedule__I
c0ab9e80   ti_sysbios_knl_Task_startCore__E
c0aba0a0   IPv6ParseFragHdr
c0aba2a0   LLI6New
c0aba4a0   RTCReport
c0aba6a0   Raw6Output
c0abaaa0   ti_sysbios_family_c64p_Hwi_dispatchAlways
c0abaca0   accept
c0abb2a0   setvbuf
c0abb4a0   ti_sysbios_family_c64p_Hwi_reconfig__E
c0abb6a0   ti_sysbios_io_DEV_Module_startup__E
c0abb6a0   ti_sysbios_io_DEV_Module_startup__F
c0abb8a0   EDMA3_DRV_clearErrorBits
c0abba80   EMAC_setReceiveFilter
c0abbc60   EmacInit
c0abc020   Rt6Modify
c0abc3e0   TcpGenPacket
c0abc5c0   TcpTimeoutRexmt
c0abc980   dhcpSocketOpen
c0abcd40   pinmuxConfig
c0abcda0   EMAC_initialize
c0abce28   EMAC_getConfig
c0abced8   EMAC_linkStatus
c0abcf70   SemInit
c0abd028   fr_ScomSetup
c0abd0b4   main
c0abd2e0   recvnc
c0abd528   SCOM_init
c0abd538   SCOM_exit
c0abd548   SCOM_create
c0abd5ac   SCOM_open
c0abd614   SCOM_delete
c0abd634   SCOM_putMsg
c0abd664   SCOM_getMsg
c0abd6a0   sendto
c0abd880   ti_sysbios_io_GIO_submit__E
c0abda60   ti_sysbios_knl_Task_postInit__I
c0abdc40   ti_sysbios_timers_timer64_Timer_getFreq__E
c0abde20   CfgExecute
c0abdfe0   EDMA3_DRV_disableLogicalChannel
c0abe1a0   EMAC_sendPacket
c0abe360   IPGetRoute
c0abe6e0   LLIGenArpPacket
c0abea60   _LLITimeoutCheck
c0abf160   fdClose
c0abf320   ti_sysbios_knl_Swi_Instance_init__F
c0abf4e0   ti_sysbios_knl_Task_checkStacks__E
c0abf6a0   ti_sysbios_timers_timer64_Timer_setPeriodMicroSecs__E
c0abf860   Bind6Msg
c0abfa00   CfgRemoveEntry
c0abfd40   IPv6FragMsg
c0ac0080   NC_NetStart
c0ac0220   NodeTreeFree
c0ac03c0   Raw6Input
c0ac0700   SockCreatePacket
c0ac0a40   TCP6TimeoutRexmt
c0ac0be0   __c6xabi_divul
c0ac0d80   dhcpBuildOptions
c0ac0f20   getpeername
c0ac1260   ti_sysbios_gates_GateMutex_enter__E
c0ac1400   ti_sysbios_timers_timer64_Timer_start__E
c0ac15a0   Bind6GetGlobalAddress
c0ac1720   EMAC_RxServiceCheck
c0ac18a0   HOSTrename
c0ac1a20   IGMPMsg
c0ac1ba0   NIMURegister
c0ac24a0   bind
c0ac2620   connect
c0ac27a0   dhcpBuildRequest
c0ac2920   llEnter
c0ac2c20   ti_sysbios_family_c64p_Exception_dispatch__E
c0ac2da0   ti_sysbios_knl_Swi_schedule__I
c0ac2f20   ti_sysbios_knl_Task_unblockI__E
c0ac30a0   xdc_runtime_Text_putSite__E
c0ac30a0   xdc_runtime_Text_putSite__F
c0ac3220   CfgGetEntry
c0ac3380   CfgGetNextEntry
c0ac34e0   CfgLoad
c0ac3640   EMAC_TxServiceCheck
c0ac37a0   HwPktSetRx
c0ac3900   HwPktTxNext
c0ac3d20   PipeSend
c0ac3e80   RawOutput
c0ac4140   RtWalkNext
c0ac4400   Sock6Check
c0ac4560   Sock6CreatePacket
c0ac46c0   Sock6PcbConnect
c0ac4820   SockCheck
c0ac4980   SockPcbConnect
c0ac4c40   TCP6TimeoutKeep
c0ac4da0   TcpTimeoutKeep
c0ac4f00   _HwPktPoll
c0ac5060   authInit
c0ac5320   setsockopt
c0ac5480   telnetClientProcess
c0ac55e0   ti_sysbios_io_GIO_reclaim__E
c0ac5740   Bind6Free
c0ac5880   EDMA3_DRV_getPaRAM
c0ac59c0   EDMA3_DRV_setPaRAM
c0ac5b00   ExecOpen
c0ac5c40   ICMPSendRtAdv
c0ac5d80   IGMPJoin
c0ac5ec0   IPv6DisplayIPAddress
c0ac6140   LLINew
c0ac6280   NodeFind
c0ac63c0   NodeWalk
c0ac6500   PBM_alloc
c0ac6640   PBM_free
c0ac68c0   SB6New
c0ac6b40   Sock6Accept
c0ac6c80   Sock6Listen
c0ac6dc0   SockAccept
c0ac6f00   SockListen
c0ac7040   SockPcbCtlError
c0ac7180   _auto_init_elf
c0ac7540   dhcpDecodeType
c0ac7a40   httpAuthenticationReq
c0ac7b80   mmCopy
c0ac7e00   recv
c0ac7f40   send
c0ac8080   ti_sysbios_family_c64p_Hwi_Module_startup__E
c0ac8080   ti_sysbios_family_c64p_Hwi_Module_startup__F
c0ac81c0   ti_sysbios_knl_Clock_Instance_finalize__F
c0ac8300   ti_sysbios_knl_Semaphore_Instance_init__F
c0ac8440   ti_sysbios_knl_Swi_post__E
c0ac8580   ti_sysbios_knl_Task_blockI__E
c0ac86c0   Bind6DADCheck
c0ac8900   BindFree
c0ac8a20   CfgFree
c0ac8b40   DaemonFree
c0ac8b40   TelnetClose
c0ac8b40   httpClose
c0ac8c60   FdWaitEvent
c0ac8d80   IGMPLeaveHostGroup
c0ac8ea0   IPMsg
c0ac9200   IPv6Init
c0ac9320   IsICMPv6ErrorPkt
c0ac9440   MD5Update
c0ac9560   MLDJoinGroup
c0ac9680   NC_SystemOpen
c0ac97a0   NIMUAddEthernetHeader
c0ac98c0   RawEthRxPacket
c0ac99e0   RawEthSockRecvNC
c0ac9b00   RawEthTxPacket
c0ac9d40   SBNew
c0aca0a0   Sock6Shutdown
c0aca2e0   SockShutdown
c0aca400   TCP6PrAttach
c0aca520   TcpPrAttach
c0aca640   TelnetOpen
c0aca760   _RtNodeInsert
c0aca880   _closefile
c0acaac0   _mmInit
c0acad00   fdOpenSession
c0acae20   fseek
c0acaf40   httpOpen
c0acb060   lcpReject
c0acb2a0   socket
c0acb3c0   ti_sysbios_family_c64p_Hwi_Object__create__S
c0acb4e0   ti_sysbios_hal_Hwi_Object__create__S
c0acb600   ti_sysbios_io_GIO_Instance_finalize__F
c0acb720   ti_sysbios_io_GIO_Object__create__S
c0acb840   ti_sysbios_knl_Swi_Object__create__S
c0acb960   ti_sysbios_knl_Task_Object__create__S
c0acba80   xdc_runtime_Text_putLab__E
c0acba80   xdc_runtime_Text_putLab__F
c0acbba0   xdc_runtime_knl_SemThread_Object__create__S
c0acbcc0   CfgGetEntryCnt
c0acbdc0   CfgNew
c0acbec0   CfgSetExecuteOrder
c0acbfc0   DbgPrintf
c0acc0c0   HOSTlseek
c0acc2c0   IPv6GetSubnetMaskFromBits
c0acc4c0   RTCMsg
c0acc5c0   RawEthSockCheck
c0acc6c0   RtRedirect
c0acc7c0   Sock6Disconnect
c0acc8c0   SockValidateRoute
c0accac0   TCP6PrInherit
c0accbc0   TCP6XmitTimer
c0acccc0   TcpPrInherit
c0accdc0   TcpXmitTimer
c0accec0   _wrt_ok
c0acd0c0   fprintf
c0acd2c0   lcpOpen
c0acd3c0   listen
c0acd4c0   mmFree
c0acd5c0   ti_sysbios_family_c64p_EventCombiner_dispatch__E
c0acd5c0   ti_sysbios_family_c64p_EventCombiner_dispatch__F
c0acd6c0   ti_sysbios_io_DEV_match__E
c0acd7c0   ti_sysbios_knl_Clock_startI__E
c0acd8c0   ti_sysbios_knl_Swi_restoreHwi__E
c0acdac0   xdc_runtime_Core_deleteObject__I
c0acdbc0   xdc_runtime_Startup_exec__E
c0acdbc0   xdc_runtime_Startup_exec__F
c0acdcc0   xdc_runtime_Text_putMod__E
c0acdcc0   xdc_runtime_Text_putMod__F
c0acddc0   xdc_runtime_Text_visitRope2__I
c0acdec0   xdc_runtime_knl_SyncSemThread_Object__create__S
c0acdfc0   Bind6GetLinkLocalAddress
c0ace0a0   HOSTopen
c0ace180   IGMPLeave
c0ace420   LLI6Msg
c0ace500   LLI6Update
c0ace880   NodeDeRef
c0acea40   NodeTreeNew
c0aceb20   PBMQ_enq
c0acec00   PBM_copy
c0acece0   RawEthSockNotify
c0acedc0   RawEthSockPcbAttach
c0aceea0   RawEthSockSend
c0acef80   Route6Msg
c0acf060   RtRemove
c0acf140   SBReadNC
c0acf220   SBSetMax
c0acf300   Sock6IntAbort
c0acf3e0   Sock6SpawnAbort
c0acf4c0   Sock6ValidateRoute
c0acf5a0   SockDisconnect
c0acf680   SockSpawnAbort
c0acf760   TCP6PrDetach
c0acf840   TCP6PrDisconnect
c0acf920   TCP6TimeoutSackRexmt
c0acfa00   TCP6ValidateMetrics
c0acfae0   TcpPrDetach
c0acfbc0   TcpPrDisconnect
c0acfca0   TcpTimeoutSackRexmt
c0acfd80   TcpValidateMetrics
c0acff40   UdpChecksum
c0ad0020   VLANDeinit
c0ad0100   VLANReceivePacket
c0ad02c0   _LLIExpListInsert
c0ad03a0   _RtExpListInsert
c0ad0480   _RtNodeRemove
c0ad0560   atoi
c0ad0640   close
c0ad0720   __TI_zero_init
c0ad0800   edma3OsProtectEntry
c0ad08e0   fdint_lockfd
c0ad09c0   fdint_unlockfd
c0ad0aa0   fflush
c0ad0c60   llExit
c0ad0d40   ltoa
c0ad0e20   memset
c0ad0f00   mmBulkAlloc
c0ad0fe0   pppFree
c0ad10c0   printf
c0ad11a0   ti_sysbios_family_c64p_Hwi_Instance_finalize__F
c0ad1280   ti_sysbios_family_c64p_Hwi_Instance_init__F
c0ad1360   ti_sysbios_knl_Clock_start__E
c0ad1440   ti_sysbios_hal_Timer_TimerProxy_startup__E
c0ad1440   ti_sysbios_hal_Timer_startup__E
c0ad1440   ti_sysbios_timers_timer64_Timer_startup__E
c0ad1520   xdc_runtime_Error_print__E
c0ad1520   xdc_runtime_Error_print__F
c0ad1600   xdc_runtime_Memory_alloc__E
c0ad1600   xdc_runtime_Memory_alloc__F
c0ad16e0   DHCPClose
c0ad17a0   HOSTread
c0ad1860   HOSTunlink
c0ad1920   HOSTwrite
c0ad1aa0   IPv6Layer4ComputeChecksum
c0ad1b60   LLIGetValidTime
c0ad1c20   LLIMsg
c0ad1ce0   MDIO_initPHY
c0ad1e60   MLDLeaveGroup
c0ad1f20   NIMUFindByName
c0ad1fe0   NS_BootTask
c0ad2160   NtIfIdx2Ip
c0ad2220   Rt6FindDefaultRouter
c0ad22e0   RtDeRef
c0ad23a0   RtWalkBegin
c0ad2460   SB6Flush
c0ad2520   SB6SetMax
c0ad25e0   SBFlush
c0ad26a0   Sock6PcbResolveChain
c0ad2760   Sock6PcbRtChange
c0ad2820   SockIntAbort
c0ad28e0   SockPcbRtChange
c0ad29a0   TCP6Close
c0ad2a60   TaskGetEnv
c0ad2b20   TcpChecksum
c0ad2be0   TcpClose
c0ad2ee0   __cxa_finalize
c0ad2fa0   __c6xabi_divu
c0ad2fa0   __divu
c0ad3060   __c6xabi_remi
c0ad3060   __remi
c0ad31e0   _doflush
c0ad32a0   dhcpOptionsClear
c0ad3360   edma3MemCpy
c0ad3420   edma3OsProtectExit
c0ad34e0   efs_fopen
c0ad3660   exit
c0ad3720   httpSendFullResponse
c0ad37e0   mmZeroInit
c0ad3960   ti_sysbios_BIOS_errorRaiseHook__I
c0ad3a20   ti_sysbios_heaps_HeapMem_getStats__E
c0ad3ae0   ti_sysbios_knl_Clock_logTick__E
c0ad3ba0   ti_sysbios_knl_Swi_Instance_finalize__F
c0ad3c60   ti_sysbios_knl_Task_allBlockedFunction__I
c0ad3d20   ti_sysbios_timers_timer64_Timer_stop__E
c0ad3de0   ti_sysbios_xdcruntime_SemThreadSupport_pend__E
c0ad3de0   ti_sysbios_xdcruntime_SemThreadSupport_pend__F
c0ad3ea0   xdc_runtime_System_formatNum__I
c0ad3f60   CfgEntryDeRef
c0ad4000   CfgEntryGetData
c0ad40a0   CfgGetImmediate
c0ad4280   FdSignalEvent
c0ad4320   HOSTclose
c0ad43c0   HwPktClose
c0ad4500   IPReasmFree
c0ad45a0   IPReasmTimeout
c0ad4640   IPv6CompareAddress
c0ad46e0   LLIValidateRoute
c0ad4780   MD5Final
c0ad4820   NIMUShutdown
c0ad48c0   NIMUUnregister
c0ad4960   NtAddNetwork
c0ad4a00   PBM_open
c0ad4aa0   PipeCheck
c0ad4b40   RouteMsg
c0ad4c80   SB6Free
c0ad4d20   SBFree
c0ad4dc0   SemCreate
c0ad4e60   Sock6CleanPcb
c0ad4f00   Sock6GetName
c0ad4fa0   SockBind
c0ad5040   SockCleanPcb
c0ad50e0   TCP6Drop
c0ad5180   TCP6PrCtlError
c0ad5220   TCP6PrSend
c0ad52c0   TCP6PrSendOOB
c0ad5360   TaskCreate
c0ad5400   TcpDrop
c0ad54a0   TcpPrCtlError
c0ad5540   TcpPrSend
c0ad55e0   TcpPrSendOOB
c0ad5680   TimerNew
c0ad5720   _LLITimeoutFlush
c0ad57c0   __c6xabi_remu
c0ad57c0   __remu
c0ad5860   _c_int00
c0ad5900   _cleanup
c0ad5b80   ti_sysbios_family_c64p_Hwi_plug__E
c0ad5c20   authStart
c0ad5cc0   dhcpBuildDecline
c0ad5e00   fdCloseSession
c0ad5f40   lcpInit
c0ad6080   llTimerTick
c0ad6120   lseek
c0ad61c0   malloc
c0ad6260   memcpy
c0ad6300   mmBulkFree
c0ad6440   stricmp
c0ad64e0   strstr
c0ad6580   tskImageProcess
c0ad6620   ti_sysbios_heaps_HeapMem_init__I
c0ad66c0   ti_sysbios_knl_Clock_Object__create__S
c0ad6760   ti_sysbios_knl_Idle_run__E
c0ad6800   ti_sysbios_knl_Semaphore_Object__create__S
c0ad68a0   ti_sysbios_knl_Task_deleteTerminatedTasksFunc__I
c0ad6940   ti_sysbios_xdcruntime_SemThreadSupport_Object__create__S
c0ad69e0   write
c0ad6a80   xdc_runtime_Assert_raise__I
c0ad6b20   xdc_runtime_LoggerBuf_Module_startup__E
c0ad6b20   xdc_runtime_LoggerBuf_Module_startup__F
c0ad6d40   HwRxInt
c0ad6dc0   HwTxInt
c0ad6e40   ICMPChecksum
c0ad6f40   ICMPv6RecvRS
c0ad7040   IPv6GetRoute
c0ad70c0   LLI6Free
c0ad71c0   MDIO_close
c0ad7240   NIMUInit
c0ad72c0   PBMQ_deq
c0ad73c0   PipeClose
c0ad7440   RawEthSockClose
c0ad74c0   RawEthSockPcbDetach
c0ad7540   Rt6Update
c0ad75c0   RtSetFailure
c0ad7640   RtSetTimeout
c0ad76c0   Sock6Bind
c0ad7740   Sock6PcbCleanup
c0ad77c0   SockGetName
c0ad7840   SockPcbCleanup
c0ad78c0   SockPcbDetach
c0ad7940   SockPcbResolveChain
c0ad79c0   TCP6PrListen
c0ad7a40   TaskSetEnv
c0ad7ac0   TcpPrListen
c0ad7b40   TimerHSTick
c0ad7d40   _LLIExpListRemove
c0ad7e40   _RtExpListRemove
c0ad7ec0   __c6xabi_llshl
c0ad7f40   ti_sysbios_family_c62_TaskSupport_swap__E
c0ad7f40   ti_sysbios_knl_Task_SupportProxy_swap__E
c0ad7fc0   edma3MemZero
c0ad8040   edma3ParamCpy
c0ad80c0   efs_fclose
c0ad8140   efs_filesend
c0ad8240   fdint_waitevent
c0ad82c0   UART1_isr
c0ad82d0   UART2_isr
c0ad8340   httpSendEntityLength
c0ad83c0   httpSendErrorResponse
c0ad8440   llTimerGetTime
c0ad84c0   readmsg
c0ad85c0   strncpy
c0ad8640   ti_sdo_utils_List_Object__create__S
c0ad86c0   ti_sysbios_BIOS_exitFunc__I
c0ad8740   ti_sysbios_family_c62_TaskSupport_start__E
c0ad8740   ti_sysbios_knl_Task_SupportProxy_start__E
c0ad87c0   ti_sysbios_family_c64p_Cache_invL1pAll__E
c0ad8840   ti_sysbios_family_c64p_Hwi_eventMap__E
c0ad88c0   ti_sysbios_gates_GateHwi_Object__create__S
c0ad8940   ti_sysbios_gates_GateMutex_Object__create__S
c0ad89c0   ti_sysbios_heaps_HeapMem_Object__create__S
c0ad8a40   ti_sysbios_knl_Clock_Module_startup__E
c0ad8a40   ti_sysbios_knl_Clock_Module_startup__F
c0ad8ac0   ti_sysbios_knl_Clock_doTick__I
c0ad8b40   ti_sysbios_knl_Clock_getTicks__E
c0ad8bc0   ti_sysbios_knl_Queue_Object__create__S
c0ad8c40   ti_sysbios_knl_Swi_startup__E
c0ad8cc0   ti_sysbios_knl_Task_restore__E
c0ad8d40   ti_sysbios_timers_timer64_Timer_getCount__E
c0ad8d40   ti_sysbios_timers_timer64_Timer_getExpiredCounts__E
c0ad8dc0   ti_sysbios_timers_timer64_Timer_getPeriod__E
c0ad8e40   ti_sysbios_xdcruntime_SemThreadSupport_Instance_init__F
c0ad8ec0   remove
c0ad8ec0   unlink
c0ad8f40   xdc_runtime_Core_assignLabel__I
c0ad8fc0   xdc_runtime_Core_assignParams__I
c0ad9040   xdc_runtime_System_atexit__E
c0ad9040   xdc_runtime_System_atexit__F
c0ad90c0   xdc_runtime_System_rtsExit__I
c0ad9140   xdc_runtime_Text_printVisFxn__I
c0ad91c0   xdc_runtime_Text_xprintf__I
c0ad9240   xdc_runtime_knl_SemThread_Instance_init__F
c0ad92c0   Bind6FindByIF
c0ad9320   Bind6IF2IPHost
c0ad9380   BindFindByHost
c0ad93e0   BindFindByIF
c0ad9440   BindFindByNet
c0ad94a0   BindGetIFByDBCast
c0ad9500   BindIF2IPHost
c0ad9560   CfgEntryInfo
c0ad95c0   CfgSetService
c0ad9800   IGMPTestGroup
c0ad9860   IPChecksum
c0ad98c0   LLIFree
c0ad9920   MDIO_open
c0ad9980   NC_SystemClose
c0ad99e0   NIMUAddHeader
c0ad9a40   NIMUCreatePacket
c0ad9aa0   NIMUFindByIndex
c0ad9b00   NIMUPacketService
c0ad9b60   NIMUPacketServiceCheck
c0ad9bc0   NIMUSendPacket
c0ad9c20   NS_PreBoot
c0ad9c80   NodeGetRt
c0ad9ce0   RTCAddHook
c0ad9d40   RTCRemoveHook
c0ad9da0   RawEthSockPcbCleanup
c0ad9e00   RawEthSockPcbFind
c0ad9e60   Rt6GetNetworkAddr
c0ad9ec0   RtWalkEnd
c0ad9f80   Sock6PcbDetach
c0ad9fe0   Sock6PrCtlError
c0ada040   Sock6PrDetach
c0ada0a0   SockPrCtlError
c0ada100   SockPrDetach
c0ada160   TCP6PrConnect
c0ada1c0   TCP6SetPersist
c0ada220   TCP6TimeoutPersist
c0ada280   TcpPrConnect
c0ada2e0   TcpSetPersist
c0ada340   TcpTimeoutPersist
c0ada460   VLANInit
c0ada520   __c6xabi_abort_msg
c0ada580   _subcull
c0ada5e0   dhcpBuildDiscover
c0ada640   dhcpPacketReceive
c0ada6a0   dhcpPacketSend
c0ada700   dhcpSocketClose
c0ada760   edma3OsSemTake
c0ada820   fdint_clearevent
c0ada880   fdint_getfdt
c0ada8e0   fdint_setevent
c0ada940   fdsetTestEntry
c0ada9a0   httpSendClientStr
c0adaa00   ipcpInit
c0adaa60   ipcpStart
c0adaac0   lcpClose
c0adab20   list_cat
c0adab80   list_remove_node
c0adabe0   memccpy
c0adaca0   pppoeInput
c0adad00   recvncfree
c0adad60   strcpy
c0adadc0   ti_ndk_config_Global_stackThread
c0adae20   ti_sdo_utils_List_Object__delete__S
c0adae80   ti_sysbios_BIOS_registerRTSLock__I
c0adaee0   ti_sysbios_family_c64p_Cache_setMar__E
c0adaf40   ti_sysbios_family_c64p_Cache_setSize__E
c0adafa0   ti_sysbios_family_c64p_EventCombiner_Module_startup__E
c0adafa0   ti_sysbios_family_c64p_EventCombiner_Module_startup__F
c0adb000   ti_sysbios_family_c64p_EventCombiner_dispatchPlug__E
c0adb000   ti_sysbios_family_c64p_EventCombiner_dispatchPlug__F
c0adb060   ti_sysbios_family_c64p_Exception_Module_startup__E
c0adb060   ti_sysbios_family_c64p_Exception_Module_startup__F
c0adb0c0   ti_sysbios_family_c64p_Hwi_Object__delete__S
c0adb120   ti_sysbios_family_c64p_primus_TimerSupport_enable__E
c0adb120   ti_sysbios_timers_timer64_Timer_TimerSupportProxy_enable__E
c0adb180   ti_sysbios_gates_GateHwi_Handle__label__S
c0adb1e0   ti_sysbios_gates_GateHwi_Object__delete__S
c0adb240   ti_sysbios_gates_GateMutex_Handle__label__S
c0adb2a0   ti_sysbios_gates_GateMutex_Instance_init__F
c0adb300   ti_sysbios_gates_GateMutex_Object__delete__S
c0adb360   ti_sysbios_hal_Hwi_Instance_init__F
c0adb3c0   ti_sysbios_hal_Hwi_Object__delete__S
c0adb420   ti_sysbios_hal_Hwi_checkStack
c0adb480   ti_sysbios_hal_Hwi_initStack
c0adb4e0   ti_sysbios_heaps_HeapMem_Handle__label__S
c0adb540   ti_sysbios_heaps_HeapMem_Object__delete__S
c0adb5a0   ti_sysbios_knl_Queue_Object__delete__S
c0adb600   ti_sysbios_knl_Semaphore_Object__delete__S
c0adb660   ti_sysbios_knl_Semaphore_pendTimeout__I
c0adb6c0   ti_sysbios_knl_Swi_Module_startup__E
c0adb6c0   ti_sysbios_knl_Swi_Module_startup__F
c0adb720   ti_sysbios_knl_Swi_Object__delete__S
c0adb780   ti_sysbios_knl_Task_Object__delete__S
c0adb7e0   ti_sysbios_knl_Task_enter__I
c0adb840   ti_sysbios_knl_Task_getMode__E
c0adb8a0   ti_sysbios_xdcruntime_SemThreadSupport_Object__delete__S
c0adb900   writemsg
c0adb958   C$$IO$$
c0adb960   xdc_runtime_Memory_calloc__E
c0adb960   xdc_runtime_Memory_calloc__F
c0adb9c0   xdc_runtime_SysStd_abort__E
c0adb9c0   xdc_runtime_SysStd_abort__F
c0adb9c0   xdc_runtime_System_SupportProxy_abort__E
c0adba20   xdc_runtime_System_aprintf_va__E
c0adba20   xdc_runtime_System_aprintf_va__F
c0adba20   xdc_runtime_System_avprintf__E
c0adba20   xdc_runtime_System_avprintf__F
c0adba80   xdc_runtime_System_printf_va__E
c0adba80   xdc_runtime_System_printf_va__F
c0adba80   xdc_runtime_System_vprintf__E
c0adba80   xdc_runtime_System_vprintf__F
c0adbae0   xdc_runtime_Text_cordText__E
c0adbae0   xdc_runtime_Text_cordText__F
c0adbb40   xdc_runtime_knl_SemThread_Handle__label__S
c0adbba0   xdc_runtime_knl_SemThread_Object__delete__S
c0adbc00   xdc_runtime_knl_SyncSemThread_Handle__label__S
c0adbc60   xdc_runtime_knl_SyncSemThread_Instance_init__F
c0adbcc0   xdc_runtime_knl_SyncSemThread_Object__delete__S
c0adbd20   Bind6FindByHost
c0adbd60   Bind6FindByNet
c0adbda0   BindGetIP
c0adbde0   ExecClose
c0adbe20   ExecTimer
c0adbea0   IPv6IsLinkLocal
c0adbee0   IPv6IsMulticast
c0adbf20   Interrupt_delete
c0adbfa0   LLI6IsValid
c0adbfe0   MD5Init
c0adc020   MLDTestGroup
c0adc060   NC_BootComplete
c0adc0a0   NDK_hookCreate
c0adc0e0   NDK_sprintf
c0adc120   NtRemoveNetwork
c0adc260   Rt6IsDefaultRoute
c0adc2a0   Sock6PcbAttach
c0adc2e0   Sock6SetOOBMark
c0adc320   SockPcbAttach
c0adc360   SockSetOOBMark
c0adc3a0   TCP6TimeoutRemove
c0adc3e0   TCP6TimeoutWait2
c0adc420   TaskDestroy
c0adc460   TcpTimeoutRemove
c0adc4a0   TcpTimeoutWait2
c0adc4e0   __c6xabi_frcmpyd_div
c0adc520   __c6xabi_isinf
c0adc5a0   __c6xabi_llshru
c0adc5e0   __c6xabi_strasgi_64plus
c0adc5e0   __strasgi_64plus
c0adc620   _args_main
c0adc660   _llTimerInit
c0adc6a0   ti_sysbios_family_c62_TaskSupport_buildTaskStack
c0adc6e0   ti_sysbios_family_xxx_Hwi_switchToIsrStack
c0adc720   edma3OsSemGive
c0adc760   efs_loadfunction
c0adc7a0   EVM_Init
c0adc7e0   fdError
c0adc820   fdSelectAbort
c0adc860   fdint_freefdt
c0adc8a0   free
c0adc8e0   inet_addr
c0adc920   list_add
c0adc960   list_remove
c0adca60   strcmp
c0adcaa0   strlen
c0adcae0   ti_sdo_utils_List_get__E
c0adcb20   ti_sdo_utils_List_put__E
c0adcb60   ti_sysbios_BIOS_startFunc__I
c0adcba0   ti_sysbios_family_c64p_EventCombiner_disableEvent__E
c0adcba0   ti_sysbios_family_c64p_EventCombiner_disableEvent__F
c0adcbe0   ti_sysbios_family_c64p_EventCombiner_enableEvent__E
c0adcbe0   ti_sysbios_family_c64p_EventCombiner_enableEvent__F
c0adcc20   ti_sysbios_family_c64p_EventCombiner_unused__E
c0adcc20   ti_sysbios_family_c64p_EventCombiner_unused__F
c0adcc60   ti_sysbios_family_c64p_Hwi_Module__startupDone__F
c0adcc60   ti_sysbios_family_c64p_Hwi_Module__startupDone__S
c0adcca0   ti_sysbios_family_c64p_Hwi_disableInterrupt__E
c0adcca0   ti_sysbios_hal_Hwi_HwiProxy_disableInterrupt__E
c0adcca0   ti_sysbios_hal_Hwi_disableInterrupt__E
c0adcce0   ti_sysbios_family_c64p_Hwi_enableIER__E
c0adcd20   ti_sysbios_family_c64p_Hwi_enableInterrupt__E
c0adcd20   ti_sysbios_hal_Hwi_HwiProxy_enableInterrupt__E
c0adcd20   ti_sysbios_hal_Hwi_enableInterrupt__E
c0adcd60   ti_sysbios_gates_GateMutex_leave__E
c0adcda0   ti_sysbios_hal_Hwi_Instance_finalize__F
c0adcde0   ti_sysbios_hal_Timer_Module__startupDone__F
c0adcde0   ti_sysbios_hal_Timer_Module__startupDone__S
c0adce20   ti_sysbios_heaps_HeapMem_Object__get__S
c0adce60   ti_sysbios_io_DEV_Object__get__S
c0adcea0   ti_sysbios_io_GIO_control__E
c0adcee0   ti_sysbios_knl_Clock_Object__destruct__S
c0adcf20   ti_sysbios_knl_Queue_get__E
c0adcf60   ti_sysbios_knl_Queue_put__E
c0adcfa0   ti_sysbios_knl_Semaphore_Object__destruct__S
c0adcfe0   ti_sysbios_knl_Swi_Object__get__S
c0add020   ti_sysbios_knl_Task_Object__get__S
c0add060   ti_sysbios_knl_Task_sleepTimeout__I
c0add0a0   ti_sysbios_timers_timer64_Timer_Module__startupDone__F
c0add0a0   ti_sysbios_timers_timer64_Timer_Module__startupDone__S
c0add0e0   ti_sysbios_xdcruntime_SemThreadSupport_post__E
c0add0e0   ti_sysbios_xdcruntime_SemThreadSupport_post__F
c0add120   xdc_runtime_Error_check__E
c0add120   xdc_runtime_Error_check__F
c0add160   xdc_runtime_Error_init__E
c0add160   xdc_runtime_Error_init__F
c0add1a0   xdc_runtime_Memory_free__E
c0add1a0   xdc_runtime_Memory_free__F
c0add1e0   xdc_runtime_Registry_findById__E
c0add1e0   xdc_runtime_Registry_findById__F
c0add220   xdc_runtime_System_abort__E
c0add220   xdc_runtime_System_abort__F
c0add260   xdc_runtime_System_aprintf__E
c0add2a0   xdc_runtime_System_printf__E
c0add2e0   xdc_runtime_Text_ropeText__E
c0add2e0   xdc_runtime_Text_ropeText__F
c0add320   xdc_runtime_knl_SemThread_Instance_finalize__F
c0add360   xdc_runtime_knl_SyncSemThread_Instance_finalize__F
c0add3a0   xdc_runtime_knl_SyncSemThread_wait__E
c0add3a0   xdc_runtime_knl_SyncSemThread_wait__F
c0add3e0   Bind6GetInterfaceHandle
c0add400   Bind6GetLifetime
c0add420   Bind6SetLifetime
c0add440   BindGetFirst
c0add460   BindGetIF
c0add480   BindGetNext
c0add4a0   BindIFNet2IPHost
c0add4c0   BindIPHost2IF
c0add4e0   CfgSetDefault
c0add520   ExecHRef
c0add540   ExecLowResource
c0add560   HwPktInit
c0add580   HwPktShutdown
c0add5a0   IPRtChange
c0add5c0   LED_TOGGLE
c0add5e0   LLI6GetNetDevice
c0add600   LLI6IncRefCount
c0add620   LLI6IsDead
c0add640   LLI6IsRouter
c0add660   LLI6SetIncomplete
c0add680   MDIO_getStatus
c0add6a0   NC_IPUpdate
c0add6c0   NC_NetStop
c0add6e0   NDK_hookInit
c0add700   NIMUGetRsvdSizeInfo
c0add720   NIMUSetRsvdSizeInfo
c0add740   NatMsg
c0add760   NodeSetRt
c0add780   NotifyLowResource
c0add7a0   OEMCacheClean
c0add7c0   OEMSysCritOff
c0add7e0   OEMSysCritOn
c0add800   PBM_close
c0add820   RawEthSockPcbInit
c0add840   RawEthSockPrAttach
c0add860   RawEthSockPrDetach
c0add880   Rt6GetIF
c0add8a0   Rt6GetLLI
c0add8c0   Rt6GetMTU
c0add8e0   Rt6IncRefCount
c0add900   Rt6IsLocalRoute
c0add920   SemDelete
c0add940   SemPend
c0add960   SemPost
c0add980   SemReset
c0add9a0   Sock6PrAttach
c0add9c0   Sock6SetOOBData
c0add9e0   SockPrAttach
c0adda00   SockSetOOBData
c0adda60   TCP6PrRecv
c0adda80   TCP6TimeoutAdd
c0addaa0   TaskBlock
c0addac0   TaskSelf
c0addae0   TaskSetPri
c0addb00   TcpPrRecv
c0addb20   TcpTimeoutAdd
c0addb40   TimerFree
c0addb60   _TaskInit
c0addb80   _TaskShutdown
c0addba0   __c6xabi_errno_addr
c0addbc0   __c6xabi_negll
c0addbe0   __cxa_atexit
c0addc00   __cxa_ia64_exit
c0addc20   __xdc__init
c0addc40   _llSerialInit
c0addc60   _llSerialServiceCheck
c0addc80   _llSerialShutdown
c0addca0   _llTimerShutdown
c0addcc0   _llUserLedInit
c0addce0   _llUserLedShutdown
c0addd00   _nop
c0addda0   _register_lock
c0adddc0   _register_unlock
c0addde0   ti_sysbios_family_c62_TaskSupport_glue
c0adde00   ti_sysbios_family_xxx_Hwi_switchToTaskStack
c0adde20   C$$EXIT
c0adde20   abort
c0adde40   atexit
c0adde60   __TI_decompress_none
c0adde80   __TI_decompress_rle24
c0addea0   efs_getfilesize
c0addec0   fdint_signaltimeout
c0addee0   list_get_head
c0addf00   list_get_next
c0addf20   llSerialService
c0addf40   llTimerGetStartTime
c0addf80   putc
c0addfa0   putchar
c0addfc0   ti_sdo_utils_List_Instance_init__F
c0addfe0   ti_sdo_utils_List_Params__init__S
c0ade000   ti_sdo_utils_List_empty__E
c0ade020   ti_sdo_utils_List_next__E
c0ade040   ti_sysbios_BIOS_RtsGateProxy_enter__E
c0ade060   ti_sysbios_BIOS_RtsGateProxy_leave__E
c0ade080   ti_sysbios_BIOS_getThreadType__E
c0ade0a0   ti_sysbios_BIOS_setThreadType__E
c0ade0c0   ti_sysbios_BIOS_start__E
c0ade0e0   ti_sysbios_family_c62_TaskSupport_Module__startupDone__S
c0ade100   ti_sysbios_family_c62_TaskSupport_checkStack__E
c0ade100   ti_sysbios_knl_Task_SupportProxy_checkStack__E
c0ade120   ti_sysbios_family_c62_TaskSupport_getStackAlignment__E
c0ade120   ti_sysbios_knl_Task_SupportProxy_getStackAlignment__E
c0ade140   ti_sysbios_family_c64p_Cache_inv__E
c0ade140   ti_sysbios_hal_Cache_CacheProxy_inv__E
c0ade140   ti_sysbios_hal_Cache_inv__E
c0ade160   ti_sysbios_family_c64p_Cache_wbInv__E
c0ade160   ti_sysbios_hal_Cache_CacheProxy_wbInv__E
c0ade160   ti_sysbios_hal_Cache_wbInv__E
c0ade180   ti_sysbios_family_c64p_Hwi_clearInterrupt__E
c0ade180   ti_sysbios_hal_Hwi_HwiProxy_clearInterrupt__E
c0ade180   ti_sysbios_hal_Hwi_clearInterrupt__E
c0ade1a0   ti_sysbios_family_c64p_Hwi_startup__E
c0ade1a0   ti_sysbios_hal_Hwi_HwiProxy_startup__E
c0ade1a0   ti_sysbios_hal_Hwi_startup__E
c0ade1c0   ti_sysbios_family_c64p_Hwi_switchFromBootStack__E
c0ade1c0   ti_sysbios_hal_Hwi_HwiProxy_switchFromBootStack__E
c0ade1c0   ti_sysbios_hal_Hwi_switchFromBootStack__E
c0ade1e0   ti_sysbios_family_c64p_Hwi_unPluggedInterrupt__I
c0ade200   ti_sysbios_family_c64p_TimestampProvider_Module_startup__E
c0ade200   ti_sysbios_family_c64p_TimestampProvider_Module_startup__F
c0ade220   ti_sysbios_family_c64p_TimestampProvider_get32__E
c0ade220   xdc_runtime_LoggerBuf_TimestampProxy_get32__E
c0ade220   xdc_runtime_Timestamp_SupportProxy_get32__E
c0ade220   xdc_runtime_Timestamp_get32__E
c0ade220   xdc_runtime_Timestamp_get32__F
c0ade240   ti_sysbios_gates_GateHwi_Instance_init__F
c0ade260   ti_sysbios_gates_GateHwi_enter__E
c0ade280   ti_sysbios_gates_GateHwi_leave__E
c0ade2a0   ti_sysbios_gates_GateHwi_query__E
c0ade2a0   ti_sysbios_gates_GateHwi_query__F
c0ade2a0   xdc_runtime_LoggerBuf_Module_GateProxy_query__E
c0ade2a0   xdc_runtime_Main_Module_GateProxy_query__E
c0ade2a0   xdc_runtime_System_Module_GateProxy_query__E
c0ade2c0   ti_sysbios_gates_GateMutex_Instance_finalize__F
c0ade2e0   ti_sysbios_BIOS_RtsGateProxy_query__E
c0ade2e0   ti_sysbios_gates_GateMutex_query__E
c0ade2e0   ti_sysbios_gates_GateMutex_query__F
c0ade2e0   ti_sysbios_heaps_HeapMem_Module_GateProxy_query__E
c0ade300   ti_sysbios_hal_Hwi_HwiProxy_Module__startupDone__S
c0ade320   ti_sysbios_hal_Hwi_HwiProxy_Object__create__S
c0ade340   ti_sysbios_hal_Hwi_HwiProxy_Object__delete__S
c0ade360   ti_sysbios_hal_Hwi_Module_startup__E
c0ade360   ti_sysbios_hal_Hwi_Module_startup__F
c0ade380   ti_sysbios_hal_Hwi_Params__init__S
c0ade3a0   ti_sysbios_hal_Timer_Module_startup__E
c0ade3a0   ti_sysbios_hal_Timer_Module_startup__F
c0ade3c0   ti_sysbios_hal_Timer_TimerProxy_Module__startupDone__S
c0ade3e0   ti_sysbios_hal_Timer_TimerProxy_getExpiredCounts__E
c0ade400   ti_sysbios_hal_Timer_TimerProxy_getPeriod__E
c0ade420   ti_sysbios_hal_Timer_TimerProxy_setNextTick__E
c0ade440   ti_sysbios_heaps_HeapMem_Module_GateProxy_enter__E
c0ade460   ti_sysbios_heaps_HeapMem_Module_GateProxy_leave__E
c0ade480   ti_sysbios_heaps_HeapMem_isBlocking__E
c0ade4a0   ti_sysbios_io_DEV_getDevp__E
c0ade4c0   ti_sysbios_io_DEV_getFxns__E
c0ade4e0   ti_sysbios_io_GIO_Params__init__S
c0ade500   ti_sysbios_knl_Clock_Params__init__S
c0ade520   ti_sysbios_knl_Idle_loop__E
c0ade540   ti_sysbios_knl_Queue_Instance_init__F
c0ade560   ti_sysbios_knl_Queue_Object__destruct__S
c0ade580   ti_sysbios_knl_Queue_Object__get__S
c0ade5a0   ti_sysbios_knl_Queue_empty__E
c0ade5c0   ti_sysbios_knl_Queue_head__E
c0ade5e0   ti_sysbios_knl_Queue_next__E
c0ade600   ti_sysbios_knl_Queue_remove__E
c0ade620   ti_sysbios_knl_Semaphore_Instance_finalize__F
c0ade640   ti_sysbios_knl_Semaphore_Params__init__S
c0ade660   ti_sysbios_knl_Semaphore_reset__E
c0ade680   ti_sysbios_knl_Swi_Params__init__S
c0ade6a0   ti_sysbios_knl_Swi_disable__E
c0ade6c0   ti_sysbios_knl_Task_Object__first__S
c0ade6e0   ti_sysbios_knl_Task_Object__next__S
c0ade700   ti_sysbios_knl_Task_Params__init__S
c0ade720   ti_sysbios_knl_Task_SupportProxy_Module__startupDone__S
c0ade740   ti_sysbios_knl_Task_disable__E
c0ade760   ti_sysbios_knl_Task_enable__E
c0ade780   ti_sysbios_knl_Task_getHookContext__E
c0ade7a0   ti_sysbios_knl_Task_getPri__E
c0ade7c0   ti_sysbios_knl_Task_self__E
c0ade7e0   ti_sysbios_knl_Task_setHookContext__E
c0ade800   ti_sysbios_knl_Task_startup__E
c0ade820   ti_sysbios_timers_timer64_Timer_setNextTick__E
c0ade840   ti_sysbios_xdcruntime_SemThreadSupport_Instance_finalize__F
c0ade860   ti_sysbios_xdcruntime_SemThreadSupport_Params__init__S
c0ade880   xdc_runtime_Error_getMsg__E
c0ade880   xdc_runtime_Error_getMsg__F
c0ade8a0   xdc_runtime_Gate_enterSystem__E
c0ade8a0   xdc_runtime_Gate_enterSystem__F
c0ade8c0   xdc_runtime_Gate_leaveSystem__E
c0ade8c0   xdc_runtime_Gate_leaveSystem__F
c0ade920   xdc_runtime_LoggerBuf_Object__get__S
c0ade940   xdc_runtime_Memory_HeapProxy_alloc__E
c0ade960   xdc_runtime_Memory_HeapProxy_free__E
c0ade980   xdc_runtime_Startup_exec__I
c0ade9a0   xdc_runtime_Startup_reset__I
c0ade9c0   xdc_runtime_SysStd_exit__E
c0ade9c0   xdc_runtime_SysStd_exit__F
c0ade9c0   xdc_runtime_System_SupportProxy_exit__E
c0ade9e0   xdc_runtime_SysStd_putch__E
c0ade9e0   xdc_runtime_SysStd_putch__F
c0ade9e0   xdc_runtime_System_SupportProxy_putch__E
c0adea00   xdc_runtime_SysStd_ready__E
c0adea00   xdc_runtime_SysStd_ready__F
c0adea00   xdc_runtime_System_SupportProxy_ready__E
c0adea20   xdc_runtime_System_Module_GateProxy_enter__E
c0adea40   xdc_runtime_System_Module_GateProxy_leave__E
c0adea60   xdc_runtime_System_Module_startup__E
c0adea60   xdc_runtime_System_Module_startup__F
c0adea80   xdc_runtime_System_exit__E
c0adea80   xdc_runtime_System_exit__F
c0adeaa0   xdc_runtime_System_lastFxn__I
c0adeac0   NDK_vsprintf
c0adeac0   xdc_runtime_System_sprintf_va__E
c0adeac0   xdc_runtime_System_sprintf_va__F
c0adeac0   xdc_runtime_System_vsprintf__E
c0adeac0   xdc_runtime_System_vsprintf__F
c0adeae0   xdc_runtime_Text_visitRope__I
c0adeb40   xdc_runtime_knl_SemThread_Params__init__S
c0adeb60   xdc_runtime_knl_SemThread_Proxy_Object__create__S
c0adeb80   xdc_runtime_knl_SemThread_Proxy_Object__delete__S
c0adeba0   xdc_runtime_knl_SemThread_Proxy_Params__init__S
c0adebc0   xdc_runtime_knl_SemThread_Proxy_pend__E
c0adebe0   xdc_runtime_knl_SemThread_Proxy_post__E
c0adec00   xdc_runtime_knl_SemThread_pend__E
c0adec00   xdc_runtime_knl_SemThread_pend__F
c0adec20   xdc_runtime_knl_SemThread_post__E
c0adec20   xdc_runtime_knl_SemThread_post__F
c0adec40   xdc_runtime_knl_SyncSemThread_query__E
c0adec40   xdc_runtime_knl_SyncSemThread_query__F
c0adec60   xdc_runtime_knl_SyncSemThread_signal__E
c0adec60   xdc_runtime_knl_SyncSemThread_signal__F
c0adec80   xdc_runtime_knl_Sync_Proxy_signal__E
c0adec80   xdc_runtime_knl_Sync_signal__E
c0adec80   xdc_runtime_knl_Sync_signal__F
c0adeca0   xdc_runtime_knl_Sync_Proxy_wait__E
c0adeca0   xdc_runtime_knl_Sync_wait__E
c0adeca0   xdc_runtime_knl_Sync_wait__F
c0ae1870   xdc_runtime_Text_charTab__A
c0ae72b0   xdc_runtime_Text_nodeTab__A
c0ae76e8   _ctypes_
c0ae82b4   ti_sysbios_BIOS_Module__diagsEnabled__C
c0ae86f0   Code2Err
c0ae8744   I2c_PARAMS
c0ae8770   I2c_defaultRxIoParams
c0ae8778   I2c_defaultTxIoParams
c0ae8780   I2c_IOMFXNS
c0ae87e8   Vpif_PARAMS
c0ae8a98   ti_sysbios_knl_Task_Object__PARAMS__C
c0ae8b10   xdc_runtime_Startup_sfxnTab__A
c0ae8c18   ti_sysbios_family_c64p_Hwi_Object__PARAMS__C
c0ae8c48   ti_sysbios_knl_Task_hooks__A
c0ae8d00   ti_sysbios_hal_Hwi_Object__PARAMS__C
c0ae8d2c   ti_sysbios_io_GIO_Object__PARAMS__C
c0ae8da8   ti_sysbios_heaps_HeapMem_Module__FXNS__C
c0ae8dd0   ti_sysbios_knl_Swi_Object__PARAMS__C
c0ae8e44   ti_sysbios_BIOS_Module__diagsIncluded__C
c0ae8e6c   ti_sysbios_gates_GateHwi_Module__FXNS__C
c0ae8e90   ti_sysbios_gates_GateMutex_Module__FXNS__C
c0ae8eb4   ti_sysbios_heaps_HeapMem_Object__PARAMS__C
c0ae8ed8   ti_sysbios_knl_Clock_Object__PARAMS__C
c0ae8efc   ti_sysbios_knl_Semaphore_Object__PARAMS__C
c0ae8f20   xdc_runtime_knl_SyncSemThread_Module__FXNS__C
c0ae8fa8   ti_sdo_utils_List_Object__DESC__C
c0ae8fc8   ti_sysbios_family_c64p_Hwi_Object__DESC__C
c0ae8fe8   ti_sysbios_gates_GateHwi_Object__DESC__C
c0ae9008   ti_sysbios_gates_GateMutex_Object__DESC__C
c0ae9028   ti_sysbios_hal_Hwi_Object__DESC__C
c0ae9048   ti_sysbios_heaps_HeapMem_Object__DESC__C
c0ae9068   ti_sysbios_io_GIO_Object__DESC__C
c0ae9088   ti_sysbios_knl_Clock_Object__DESC__C
c0ae90a8   ti_sysbios_knl_Queue_Object__DESC__C
c0ae90c8   ti_sysbios_knl_Semaphore_Object__DESC__C
c0ae90e8   ti_sysbios_knl_Swi_Object__DESC__C
c0ae9108   ti_sysbios_knl_Task_Object__DESC__C
c0ae9128   ti_sysbios_xdcruntime_SemThreadSupport_Object__DESC__C
c0ae9148   xdc_runtime_knl_SemThread_Module__FXNS__C
c0ae9168   xdc_runtime_knl_SemThread_Object__DESC__C
c0ae9188   xdc_runtime_knl_SyncSemThread_Object__DESC__C
c0ae91e4   ti_sysbios_xdcruntime_SemThreadSupport_Object__PARAMS__C
c0ae9200   xdc_runtime_Startup_sfxnRts__A
c0ae921c   xdc_runtime_knl_SemThread_Object__PARAMS__C
c0ae9268   ti_sdo_utils_List_Object__PARAMS__C
c0ae9280   ti_sysbios_gates_GateHwi_Object__PARAMS__C
c0ae9298   ti_sysbios_gates_GateMutex_Object__PARAMS__C
c0ae92b0   ti_sysbios_knl_Queue_Object__PARAMS__C
c0ae92c8   xdc_runtime_knl_SyncSemThread_Object__PARAMS__C
c0ae9324   ti_sysbios_BIOS_Module__diagsMask__C
c0ae933c   ti_sysbios_BIOS_installedErrorHook__C
c0ae938c   ti_sysbios_family_c62_TaskSupport_stackAlignment__C
c0ae93a4   ti_sysbios_family_c64p_Cache_EMIFA_BASE__C
c0ae93a8   ti_sysbios_family_c64p_EventCombiner_EVTMASK__C
c0ae93e0   ti_sysbios_family_c64p_Cache_initSize__C
c0ae940c   ti_sysbios_family_c64p_Cache_EMIFA_CFG__C
c0ae9410   ti_sysbios_knl_Idle_coreList__A
c0ae9418   ti_sysbios_knl_Idle_coreList__C
c0ae9420   ti_sysbios_knl_Idle_funcList__A
c0ae9428   ti_sysbios_knl_Idle_funcList__C
c0ae9430   ti_sysbios_knl_Task_hooks__C
c0ae9438   xdc_runtime_Startup_firstFxns__A
c0ae9440   xdc_runtime_Startup_firstFxns__C
c0ae9448   xdc_runtime_Startup_lastFxns__C
c0ae9450   ti_sysbios_family_c64p_Cache_EMIFA_LENGTH__C
c0ae9454   ti_sysbios_family_c64p_Cache_EMIFB_BASE__C
c0ae9458   ti_sysbios_family_c64p_Cache_EMIFB_CFG__C
c0ae945c   ti_sysbios_family_c64p_Cache_EMIFB_LENGTH__C
c0ae9460   ti_sysbios_family_c64p_Cache_EMIFC_BASE__C
c0ae9464   ti_sysbios_family_c64p_Cache_EMIFC_CFG__C
c0ae9468   ti_sysbios_family_c64p_Cache_EMIFC_LENGTH__C
c0ae946c   ti_sysbios_family_c64p_Cache_MAR0_31__C
c0ae9470   ti_sysbios_family_c64p_Cache_MAR128_159__C
c0ae9474   ti_sysbios_family_c64p_Cache_MAR160_191__C
c0ae9478   ti_sysbios_family_c64p_Cache_MAR192_223__C
c0ae947c   ti_sysbios_family_c64p_Cache_MAR224_255__C
c0ae9480   ti_sysbios_family_c64p_Cache_MAR32_63__C
c0ae9484   ti_sysbios_family_c64p_Cache_MAR64_95__C
c0ae9488   ti_sysbios_family_c64p_Cache_MAR96_127__C
c0ae948c   ti_sysbios_family_c64p_EventCombiner_E_unpluggedEvent__C
c0ae9490   ti_sysbios_family_c64p_Exception_E_exceptionMin__C
c0ae9494   ti_sysbios_family_c64p_Exception_exceptionHook__C
c0ae9498   ti_sysbios_family_c64p_Exception_externalHook__C
c0ae949c   ti_sysbios_family_c64p_Exception_internalHook__C
c0ae94a0   ti_sysbios_family_c64p_Exception_nmiHook__C
c0ae94a4   ti_sysbios_family_c64p_Hwi_E_alreadyDefined__C
c0ae94a8   ti_sysbios_family_c64p_Hwi_E_handleNotFound__C
c0ae94ac   ti_sysbios_family_c64p_Hwi_LD_end__C
c0ae94b0   ti_sysbios_family_c64p_Hwi_LM_begin__C
c0ae94b4   ti_sysbios_family_c64p_Hwi_Module__diagsEnabled__C
c0ae94b8   ti_sysbios_family_c64p_Hwi_Module__diagsIncluded__C
c0ae94bc   ti_sysbios_family_c64p_Hwi_Module__diagsMask__C
c0ae94c0   ti_sysbios_family_c64p_Hwi_Module__loggerFxn1__C
c0ae94c4   ti_sysbios_family_c64p_Hwi_Module__loggerFxn8__C
c0ae94c8   ti_sysbios_family_c64p_Hwi_Module__loggerObj__C
c0ae94cc   ti_sysbios_gates_GateMutex_A_badContext__C
c0ae94d0   ti_sysbios_gates_GateMutex_Instance_State_sem__O
c0ae94d4   ti_sysbios_gates_GateMutex_Module__diagsEnabled__C
c0ae94d8   ti_sysbios_gates_GateMutex_Module__diagsIncluded__C
c0ae94dc   ti_sysbios_gates_GateMutex_Module__diagsMask__C
c0ae94e0   ti_sysbios_hal_Hwi_E_stackOverflow__C
c0ae94e4   ti_sysbios_heaps_HeapMem_A_align__C
c0ae94e8   ti_sysbios_heaps_HeapMem_A_heapSize__C
c0ae94ec   ti_sysbios_heaps_HeapMem_A_invalidFree__C
c0ae94f0   ti_sysbios_heaps_HeapMem_A_zeroBlock__C
c0ae94f4   ti_sysbios_heaps_HeapMem_E_memory__C
c0ae94f8   ti_sysbios_heaps_HeapMem_Module__diagsEnabled__C
c0ae94fc   ti_sysbios_heaps_HeapMem_Module__diagsIncluded__C
c0ae9500   ti_sysbios_heaps_HeapMem_Module__diagsMask__C
c0ae9504   ti_sysbios_heaps_HeapMem_Module__gateObj__C
c0ae9508   ti_sysbios_heaps_HeapMem_Object__count__C
c0ae950c   ti_sysbios_heaps_HeapMem_reqAlign__C
c0ae9510   ti_sysbios_io_DEV_Object__count__C
c0ae9514   ti_sysbios_io_DEV_tableSize__C
c0ae9518   ti_sysbios_io_GIO_A_badModel__C
c0ae951c   ti_sysbios_io_GIO_E_createFailed__C
c0ae9520   ti_sysbios_io_GIO_E_notFound__C
c0ae9524   ti_sysbios_io_GIO_Instance_State_doneList__O
c0ae9528   ti_sysbios_io_GIO_Instance_State_freeList__O
c0ae952c   ti_sysbios_io_GIO_Module__diagsEnabled__C
c0ae9530   ti_sysbios_io_GIO_Module__diagsIncluded__C
c0ae9534   ti_sysbios_io_GIO_Module__diagsMask__C
c0ae9538   ti_sysbios_knl_Clock_A_badThreadType__C
c0ae953c   ti_sysbios_knl_Clock_LM_begin__C
c0ae9540   ti_sysbios_knl_Clock_LM_tick__C
c0ae9544   ti_sysbios_knl_Clock_LW_delayed__C
c0ae9548   ti_sysbios_knl_Clock_Module_State_clockQ__O
c0ae954c   ti_sysbios_knl_Clock_Module__diagsEnabled__C
c0ae9550   ti_sysbios_knl_Clock_Module__diagsIncluded__C
c0ae9554   ti_sysbios_knl_Clock_Module__diagsMask__C
c0ae9558   ti_sysbios_knl_Clock_Module__loggerFxn1__C
c0ae955c   ti_sysbios_knl_Clock_Module__loggerFxn2__C
c0ae9560   ti_sysbios_knl_Clock_Module__loggerObj__C
c0ae9564   ti_sysbios_knl_Clock_tickMode__C
c0ae9568   ti_sysbios_knl_Clock_tickPeriod__C
c0ae956c   ti_sysbios_knl_Clock_tickSource__C
c0ae9570   ti_sysbios_knl_Semaphore_A_badContext__C
c0ae9574   ti_sysbios_knl_Semaphore_A_noEvents__C
c0ae9578   ti_sysbios_knl_Semaphore_A_overflow__C
c0ae957c   ti_sysbios_knl_Semaphore_Instance_State_pendQ__O
c0ae9580   ti_sysbios_knl_Semaphore_LM_pend__C
c0ae9584   ti_sysbios_knl_Semaphore_LM_post__C
c0ae9588   ti_sysbios_knl_Semaphore_Module__diagsEnabled__C
c0ae958c   ti_sysbios_knl_Semaphore_Module__diagsIncluded__C
c0ae9590   ti_sysbios_knl_Semaphore_Module__diagsMask__C
c0ae9594   ti_sysbios_knl_Semaphore_Module__loggerFxn2__C
c0ae9598   ti_sysbios_knl_Semaphore_Module__loggerFxn4__C
c0ae959c   ti_sysbios_knl_Semaphore_Module__loggerObj__C
c0ae95a0   ti_sysbios_knl_Swi_A_badPriority__C
c0ae95a4   ti_sysbios_knl_Swi_LD_end__C
c0ae95a8   ti_sysbios_knl_Swi_LM_begin__C
c0ae95ac   ti_sysbios_knl_Swi_LM_post__C
c0ae95b0   ti_sysbios_knl_Swi_Module__diagsEnabled__C
c0ae95b4   ti_sysbios_knl_Swi_Module__diagsIncluded__C
c0ae95b8   ti_sysbios_knl_Swi_Module__diagsMask__C
c0ae95bc   ti_sysbios_knl_Swi_Module__loggerFxn1__C
c0ae95c0   ti_sysbios_knl_Swi_Module__loggerFxn4__C
c0ae95c4   ti_sysbios_knl_Swi_Module__loggerObj__C
c0ae95c8   ti_sysbios_knl_Swi_Object__count__C
c0ae95cc   ti_sysbios_knl_Task_A_badPriority__C
c0ae95d0   ti_sysbios_knl_Task_A_badTaskState__C
c0ae95d4   ti_sysbios_knl_Task_A_badThreadType__C
c0ae95d8   ti_sysbios_knl_Task_A_badTimeout__C
c0ae95dc   ti_sysbios_knl_Task_A_noPendElem__C
c0ae95e0   ti_sysbios_knl_Task_E_deleteNotAllowed__C
c0ae95e4   ti_sysbios_knl_Task_E_spOutOfBounds__C
c0ae95e8   ti_sysbios_knl_Task_E_stackOverflow__C
c0ae95ec   ti_sysbios_knl_Task_LD_block__C
c0ae95f0   ti_sysbios_knl_Task_LD_exit__C
c0ae95f4   ti_sysbios_knl_Task_LD_ready__C
c0ae95f8   ti_sysbios_knl_Task_LM_setPri__C
c0ae95fc   ti_sysbios_knl_Task_LM_sleep__C
c0ae9600   ti_sysbios_knl_Task_LM_switch__C
c0ae9604   ti_sysbios_knl_Task_Module_State_inactiveQ__O
c0ae9608   ti_sysbios_knl_Task_Module_State_terminatedQ__O
c0ae960c   ti_sysbios_knl_Task_Module__diagsEnabled__C
c0ae9610   ti_sysbios_knl_Task_Module__diagsIncluded__C
c0ae9614   ti_sysbios_knl_Task_Module__diagsMask__C
c0ae9618   ti_sysbios_knl_Task_Module__loggerFxn2__C
c0ae961c   ti_sysbios_knl_Task_Module__loggerFxn4__C
c0ae9620   ti_sysbios_knl_Task_Module__loggerObj__C
c0ae9624   ti_sysbios_knl_Task_Object__count__C
c0ae9628   ti_sysbios_knl_Task_Object__heap__C
c0ae962c   ti_sysbios_knl_Task_allBlockedFunc__C
c0ae9630   ti_sysbios_knl_Task_defaultStackHeap__C
c0ae9634   ti_sysbios_knl_Task_defaultStackSize__C
c0ae9638   ti_sysbios_knl_Task_numConstructedTasks__C
c0ae963c   ti_sysbios_knl_Task_numPriorities__C
c0ae9640   ti_sysbios_timers_timer64_Timer_A_notAvailable__C
c0ae9644   ti_sysbios_timers_timer64_Timer_E_cannotSupport__C
c0ae9648   ti_sysbios_timers_timer64_Timer_Module__diagsEnabled__C
c0ae964c   ti_sysbios_timers_timer64_Timer_Module__diagsIncluded__C
c0ae9650   ti_sysbios_timers_timer64_Timer_Module__diagsMask__C
c0ae9654   ti_sysbios_timers_timer64_Timer_anyMask__C
c0ae9658   ti_sysbios_timers_timer64_Timer_freqDivisor__C
c0ae965c   ti_sysbios_timers_timer64_Timer_numLocalTimers__C
c0ae9660   ti_sysbios_timers_timer64_Timer_numTimerDevices__C
c0ae9664   ti_sysbios_xdcruntime_SemThreadSupport_Instance_State_sem__O
c0ae9668   xdc_runtime_Assert_E_assertFailed__C
c0ae966c   xdc_runtime_Core_A_initializedParams__C
c0ae9670   xdc_runtime_Core_Module__diagsEnabled__C
c0ae9674   xdc_runtime_Core_Module__diagsIncluded__C
c0ae9678   xdc_runtime_Core_Module__diagsMask__C
c0ae967c   xdc_runtime_Error_E_generic__C
c0ae9680   xdc_runtime_Error_E_memory__C
c0ae9684   xdc_runtime_Error_Module__diagsEnabled__C
c0ae9688   xdc_runtime_Error_Module__diagsIncluded__C
c0ae968c   xdc_runtime_Error_Module__diagsMask__C
c0ae9690   xdc_runtime_Error_Module__loggerFxn8__C
c0ae9694   xdc_runtime_Error_Module__loggerObj__C
c0ae9698   xdc_runtime_Error_policy__C
c0ae969c   xdc_runtime_Error_raiseHook__C
c0ae96a0   xdc_runtime_IGateProvider_Interface__BASE__C
c0ae96a4   xdc_runtime_IHeap_Interface__BASE__C
c0ae96a8   xdc_runtime_IModule_Interface__BASE__C
c0ae96ac   xdc_runtime_Log_L_error__C
c0ae96b0   xdc_runtime_LoggerBuf_Object__count__C
c0ae96b4   xdc_runtime_Main_Module__diagsEnabled__C
c0ae96b8   xdc_runtime_Main_Module__diagsIncluded__C
c0ae96bc   xdc_runtime_Main_Module__diagsMask__C
c0ae96c0   xdc_runtime_Main_Module__loggerFxn4__C
c0ae96c4   xdc_runtime_Main_Module__loggerObj__C
c0ae96c8   xdc_runtime_Memory_defaultHeapInstance__C
c0ae96cc   xdc_runtime_Startup_execImpl__C
c0ae96d0   xdc_runtime_Startup_lastFxns__A
c0ae96d4   xdc_runtime_Startup_maxPasses__C
c0ae96d8   xdc_runtime_Startup_sfxnRts__C
c0ae96dc   xdc_runtime_Startup_sfxnTab__C
c0ae96e0   xdc_runtime_System_Module__gateObj__C
c0ae96e4   xdc_runtime_System_extendFxn__C
c0ae96e8   xdc_runtime_System_maxAtexitHandlers__C
c0ae96ec   xdc_runtime_Text_charTab__C
c0ae96f0   xdc_runtime_Text_nameEmpty__C
c0ae96f4   xdc_runtime_Text_nameStatic__C
c0ae96f8   xdc_runtime_Text_nameUnknown__C
c0ae96fc   xdc_runtime_Text_nodeTab__C
c0ae9700   xdc_runtime_Text_visitRopeFxn__C
c0ae9704   xdc_runtime_knl_ISemaphore_Interface__BASE__C
c0ae9708   xdc_runtime_knl_ISync_Interface__BASE__C
c0ae970c   ti_sysbios_BIOS_Module__id__C
c0ae9710   ti_sysbios_family_c64p_EventCombiner_Module__id__C
c0ae9714   ti_sysbios_family_c64p_Exception_Module__id__C
c0ae9718   ti_sysbios_family_c64p_Hwi_Module__id__C
c0ae971c   ti_sysbios_family_c64p_Hwi_Module__loggerDefined__C
c0ae9720   ti_sysbios_gates_GateMutex_Module__id__C
c0ae9724   ti_sysbios_hal_Hwi_Module__id__C
c0ae9728   ti_sysbios_heaps_HeapMem_Module__id__C
c0ae972c   ti_sysbios_io_DEV_Module__id__C
c0ae9730   ti_sysbios_io_GIO_Module__id__C
c0ae9734   ti_sysbios_knl_Clock_Module__id__C
c0ae9738   ti_sysbios_knl_Clock_Module__loggerDefined__C
c0ae973c   ti_sysbios_knl_Semaphore_Module__id__C
c0ae9740   ti_sysbios_knl_Semaphore_Module__loggerDefined__C
c0ae9744   ti_sysbios_knl_Swi_Module__id__C
c0ae9748   ti_sysbios_knl_Swi_Module__loggerDefined__C
c0ae974c   ti_sysbios_knl_Task_Module__id__C
c0ae9750   ti_sysbios_knl_Task_Module__loggerDefined__C
c0ae9754   ti_sysbios_knl_Task_deleteTerminatedTasks__C
c0ae9758   ti_sysbios_knl_Task_initStackFlag__C
c0ae975c   ti_sysbios_timers_timer64_Timer_Module__id__C
c0ae9760   ti_sysbios_timers_timer64_Timer_startupNeeded__C
c0ae9764   xdc_runtime_Core_Module__id__C
c0ae9768   xdc_runtime_Error_Module__loggerDefined__C
c0ae976c   xdc_runtime_Error_maxDepth__C
c0ae9770   xdc_runtime_Main_Module__id__C
c0ae9774   xdc_runtime_Main_Module__loggerDefined__C
c0ae9778   xdc_runtime_Memory_Module__id__C
c0ae977c   xdc_runtime_Text_charCnt__C
c0ae9780   xdc_runtime_Text_isLoaded__C
c0ae9784   xdc_runtime_Text_registryModsLastId__C
c0ae9788   xdc_runtime_Text_unnamedModsLastId__C
c0ae9790   edma3GblCfgParams
c0aea018   ti_sdo_utils_List_Module__root__V
c0aea020   ti_sdo_utils_NameServerRemoteNull_Module__root__V
c0aea028   ti_sysbios_BIOS_Module__state__V
c0aea048   ti_sysbios_family_c64p_Cache_Module__state__V
c0aea04c   ti_sysbios_family_c64p_EventCombiner_Module__state__V
c0aea44c   ti_sysbios_family_c64p_Exception_Module__state__V
c0aea478   ti_sysbios_family_c64p_Hwi_Module__root__V
c0aea480   ti_sysbios_family_c64p_Hwi_Module__state__V
c0aea4e8   ti_sysbios_family_c64p_primus_TimerSupport_Module__state__V
c0aea4ec   ti_sysbios_gates_GateHwi_Module__root__V
c0aea4f4   ti_sysbios_gates_GateMutex_Module__root__V
c0aea4fc   ti_sysbios_hal_Hwi_Module__root__V
c0aea504   ti_sysbios_hal_Timer_Module__root__V
c0aea50c   ti_sysbios_heaps_HeapMem_Module__root__V
c0aea514   ti_sysbios_io_DEV_Module__root__V
c0aea51c   ti_sysbios_io_DEV_Module__state__V
c0aea520   ti_sysbios_io_GIO_Module__root__V
c0aea528   ti_sysbios_knl_Clock_Module__root__V
c0aea530   ti_sysbios_knl_Clock_Module__state__V
c0aea558   ti_sysbios_knl_Queue_Module__root__V
c0aea560   ti_sysbios_knl_Semaphore_Module__root__V
c0aea568   ti_sysbios_knl_Swi_Module__root__V
c0aea570   ti_sysbios_knl_Swi_Module__state__V
c0aea58c   ti_sysbios_knl_Task_Module__root__V
c0aea594   ti_sysbios_knl_Task_Module__state__V
c0aea5dc   ti_sysbios_timers_timer64_Timer_Module__root__V
c0aea5e4   ti_sysbios_timers_timer64_Timer_Module__state__V
c0aea5f8   ti_sysbios_xdcruntime_SemThreadSupport_Module__root__V
c0aea600   xdc_runtime_Error_Module__state__V
c0aea604   xdc_runtime_LoggerBuf_Module__root__V
c0aea60c   xdc_runtime_LoggerBuf_Module__state__V
c0aea614   xdc_runtime_Memory_Module__state__V
c0aea618   xdc_runtime_Registry_Module__state__V
c0aea620   xdc_runtime_Startup_Module__state__V
c0aea628   xdc_runtime_System_Module__state__V
c0aea634   xdc_runtime_Text_Module__state__V
c0aea63c   xdc_runtime_knl_SemThread_Module__root__V
c0aea644   xdc_runtime_knl_SyncNull_Module__root__V
c0aea64c   xdc_runtime_knl_SyncSemThread_Module__root__V
c0aea654   __xdc__init__addr
c0aea658   _ftable
c0aea838   ti_sysbios_knl_Task_Object__table__V
c0aea968   TSK_idle
c0aea9b4   _ipcfg
c0aeab88   ti_sysbios_knl_Swi_Module_State_0_readyQ__A
c0aeac08   ti_sysbios_knl_Task_Module_State_0_readyQ__A
c0aead00   ti_sysbios_family_c64p_Hwi_Object__table__V
c0aead78   ADV7391_Fxns
c0aeade0   ti_sysbios_timers_timer64_Timer_Module_State_0_device__A
c0aeaee0   ti_sysbios_timers_timer64_Timer_Object__table__V
c0aeaf2c   _ft_end
c0aeaff0   ccXferCompInt
c0aeb0b0   tcErrorInt
c0aeb0f0   ti_sysbios_gates_GateMutex_Object__table__V
c0aeb19c   __errno
c0aeb19c   errno
c0aeb1a0   ti_sysbios_io_DEV_Object__table__V
c0aeb1d0   ti_sysbios_knl_Swi_Object__table__V
c0aeb200   _oscfg
c0aeb224   TVP5150_Fxns
c0aeb248   pstrMsgName
c0aeb268   ti_sysbios_io_DEV_Module_State_0_table__A
c0aeb288   ti_sysbios_timers_timer64_Timer_Module_State_0_gctrl__A
c0aeb2a8   ti_sysbios_timers_timer64_Timer_Module_State_0_handles__A
c0aeb2c8   ti_sysbios_timers_timer64_Timer_Module_State_0_intFreqs__A
c0aeb2e8   xdc_runtime_System_Module_State_0_atexitHandlers__A
c0aeb30c   Vpif_IOMFXNS
c0aeb328   ti_ndk_config_Global_Id2Size
c0aeb378   ti_sysbios_heaps_HeapMem_Object__table__V
c0aeb3e8   _cleanup_ptr
c0aeb3ec   _dtors_ptr
c0aeb3f0   __TI_enable_exit_profile_output
c0aeb418   NIMUDeviceTable
c0aeb428   ccErrorInt
c0aeb430   _lock
c0aeb434   _unlock
c0aeb438   ti_sysbios_family_c64p_primus_TimerSupport_Module_State_0_suspSrc__A
c0aeb440   ti_sysbios_hal_Hwi_Object__table__V
c0aeb448   ti_sysbios_hal_Timer_Object__table__V
c0aeb470   ti_sysbios_gates_GateHwi_Object__table__V
c0aeb478   ti_sysbios_knl_Task_Module_State_0_idleTask__A
c0aeb800   ti_sysbios_family_c64p_Hwi0
c0aeb800   ti_sysbios_family_c64p_Hwi_int0
c0aeb820   ti_sysbios_family_c64p_Hwi_int1
c0aeb840   ti_sysbios_family_c64p_Hwi_int2
c0aeb860   ti_sysbios_family_c64p_Hwi_int3
c0aeb880   ti_sysbios_family_c64p_Hwi_int4
c0aeb8a0   ti_sysbios_family_c64p_Hwi_int5
c0aeb8c0   ti_sysbios_family_c64p_Hwi_int6
c0aeb8e0   ti_sysbios_family_c64p_Hwi_int7
c0aeb900   ti_sysbios_family_c64p_Hwi_int8
c0aeb920   ti_sysbios_family_c64p_Hwi_int9
c0aeb940   ti_sysbios_family_c64p_Hwi_int10
c0aeb960   ti_sysbios_family_c64p_Hwi_int11
c0aeb980   ti_sysbios_family_c64p_Hwi_int12
c0aeb9a0   ti_sysbios_family_c64p_Hwi_int13
c0aeb9c0   ti_sysbios_family_c64p_Hwi_int14
c0aeb9e0   ti_sysbios_family_c64p_Hwi_int15
c0aebaa0   __TI_STATIC_BASE
c0aebaa0   semIn2P
c0aebaa4   semP2In
c0aebaa8   semP2Net
c0aebaac   semNet2P
c0aebab0   semUM2P
c0aebab4   semP2UM
c0aebab8   semUM2Net
c0aebabc   semNet2UM
c0aebac0   HwiUart1
c0aebac4   HwiUart2
c0aebae0   txFreeQ
c0aebae4   txPendingQ
c0aebb04   _IGMPInDiscard
c0aebb08   _IGMPInQuery
c0aebb0c   _IGMPInQueryGroup
c0aebb10   _IGMPInResponse
c0aebb14   _IGMPOutResponse
c0aebb18   dsp_num
c0aebb1c   region_id
c0aebb58   CONTENT_TYPE_APPLET
c0aebb5c   CONTENT_TYPE_AU
c0aebb60   CONTENT_TYPE_CSS
c0aebb64   CONTENT_TYPE_DOC
c0aebb68   CONTENT_TYPE_GIF
c0aebb6c   CONTENT_TYPE_HTML
c0aebb70   CONTENT_TYPE_JPG
c0aebb74   CONTENT_TYPE_MPEG
c0aebb78   CONTENT_TYPE_PDF
c0aebb7c   CONTENT_TYPE_WAV
c0aebb80   CONTENT_TYPE_ZIP
c0aebb84   CONTENT_TYPE
c0aebb88   CONTENT_LENGTH
c0aebb8c   CRLF
c0aebb90   DEFAULT_NAME
c0aebb94   HTTP_VER
c0aebb98   SPACE
c0aebb9c   uartRegs1
c0aebba0   uartRegs2
c0aebba4   c018_flag
c0aebba8   UART1_CmdStartChar_flag
c0aebbac   UART1_CmdReady_Flag
c0aebbb0   UART1_CmdCount
c0aebbb4   tuichao1
c0aebbb5   tuichao2
c0aebbb8   UART2_CmdStartChar_flag
c0aebbbc   UART2_CmdReady_Flag
c0aebbc0   UART2_CmdCount
c0aebbc4   UART1_CmdReady_Flag_tim
c0aebbc8   MainConfigSize
c0aebbcc   MainConfigValid
c0aebbd0   LocalIPAddr
c0aebbd4   LocalIPMask
c0aebbd8   GatewayIP
c0aebbdc   ServerIPAddr
c0aebbe0   HostName
c0aebbe4   DomainName
c0aebbf0   PITCount
c0aebbf4   PITUsed
c0aebbf8   PITHigh
c0aebc30   memory_squeeze_error
c0aebc78   resMgrInstance
c0aebc7c   userInitConfig
c0aebc80   ptrRMIArray
c0aebc84   ptrInitCfgArray
c0aebcb0   _IGMPForceVersion1
c0aebcbc   TxChanEnable_all
c0aebcc0   RxChanEnable_all
c0aebcc4   corenum
c0aebcd8   edma3NumPaRAMSets
c0aebcf0   _ICMPInErrors
c0aebcf4   _ICMPOutErrors
c0aebcf8   _IPExecuting
c0aebd08   gFragQList
c0aebd28   tcp_iss
c0aebd2c   ptTimeFirst
c0aebd30   pt6TimeFirst
c0aebd34   tcp6_iss
c0aebd40   pktCount
c0aebd50   httpErrorResponseHook
c0aebd5c   _IPReasmPtr
c0aebd64   gMLDNodeList
c0aebd7c   IPV6_MAX_MULTICAST_SOLICIT
c0aebd80   IPV6_MAX_UNICAST_SOLICIT
c0aebd84   IPV6_RETRANS_TIME
c0aebd88   IPV6_DELAY_FIRST_PROBE_TIME
c0aebd8c   IPV6_REACHABLE_TIME
c0aebd90   IPV6_MAX_RTR_SOLICITATION_DELAY
c0aebd94   IPV6_RTR_SOLICITATION_INTERVAL
c0aebd98   IPV6_MAX_RTR_SOLICITATIONS
c0aebd9c   INFINITE_LT
c0aebda0   ti_ndk_config_Global_rawPageSize
c0aebda4   ti_ndk_config_Global_rawPageCount
c0aebda8   ti_ndk_config_Global_smallest
c0aebdac   ti_ndk_config_Global_largest
c0aebdb0   ti_ndk_config_Global_numFrameBuf
c0aebdb4   ti_ndk_config_Global_sizeFrameBuf
c0aebdb8   EDMA3_MAX_RM_INSTANCES
c0aebdbc   __CIOBUF_
c0aed134   __TI_Handler_Table_Base
c0aed140   __TI_Handler_Table_Limit
c0aed150   __TI_CINIT_Base
c0aed178   __TI_CINIT_Limit
c3000000   my_boot
ffffffff   __TI_pprof_out_hndl
ffffffff   __TI_prof_data_size
ffffffff   __TI_prof_data_start
ffffffff   __binit__
ffffffff   __c_args__
ffffffff   binit
UNDEFED    __TI_INITARRAY_Base
UNDEFED    __TI_INITARRAY_Limit

[1662 symbols]
